 ntfsfile

 Timestamp is 50797d3d (Sat Oct 13 18:39:57 2012)

 Preferred load address is 61000000

 Start         Length     Name                   Class
 0001:00000000 0005fa54H .text                   CODE
 0001:0005fa60 00006cd3H .text$x                 CODE
 0001:00066740 00000106H .text$yc                CODE
 0001:00066850 000000cbH .text$yd                CODE
 0002:00000000 00000244H .idata$5                DATA
 0002:00000244 00000004H .CRT$XCA                DATA
 0002:00000248 0000001cH .CRT$XCU                DATA
 0002:00000264 00000004H .CRT$XCZ                DATA
 0002:00000268 00000004H .CRT$XIA                DATA
 0002:0000026c 00000010H .CRT$XIC                DATA
 0002:0000027c 00000004H .CRT$XIZ                DATA
 0002:00000280 00000004H .CRT$XPA                DATA
 0002:00000284 00000004H .CRT$XPX                DATA
 0002:00000288 00000004H .CRT$XPXA               DATA
 0002:0000028c 00000004H .CRT$XPZ                DATA
 0002:00000290 00000004H .CRT$XTA                DATA
 0002:00000294 00000004H .CRT$XTZ                DATA
 0002:000002a0 00013e08H .rdata                  DATA
 0002:000140a8 0000004bH .rdata$debug            DATA
 0002:000140f4 00000840H .rdata$r                DATA
 0002:00014940 00000344H .rdata$sxdata           DATA
 0002:00014c84 00000004H .rtc$IAA                DATA
 0002:00014c88 00000004H .rtc$IZZ                DATA
 0002:00014c8c 00000004H .rtc$TAA                DATA
 0002:00014c90 00000004H .rtc$TZZ                DATA
 0002:00014c98 0000924cH .xdata$x                DATA
 0002:0001dee4 00000078H .idata$2                DATA
 0002:0001df5c 00000014H .idata$3                DATA
 0002:0001df70 00000244H .idata$4                DATA
 0002:0001e1b4 00000ab8H .idata$6                DATA
 0002:0001ec70 0000015bH .edata                  DATA
 0003:00000000 00001a60H .data                   DATA
 0003:00001a60 000037c8H .bss                    DATA
 0004:00000000 00000058H .rsrc$01                DATA
 0004:00000060 000002a0H .rsrc$02                DATA

  Address         Publics by Value              Rva+Base       Lib:Object

 0000:00000000       __except_list              00000000     <absolute>
 0000:000000d1       ___safe_se_handler_count   000000d1     <absolute>
 0000:00000000       ___ImageBase               61000000     <linker-defined>
 0001:00000000       ??0MsgError@@QAE@PB_W@Z    61001000 f i main.obj
 0001:00000040       ?message@MsgError@@UBE?AVUnicodeString@col@@XZ 61001040 f i main.obj
 0001:00000050       ?get_system_message@@YA?AVUnicodeString@col@@K@Z 61001050 f i main.obj
 0001:00000140       ?message@SystemError@@UBE?AVUnicodeString@col@@XZ 61001140 f i main.obj
 0001:00000170       ??1NtfsVolume@@QAE@XZ      61001170 f i main.obj
 0001:000001e0       ?close@NtfsVolume@@QAEXXZ  610011e0 f i main.obj
 0001:00000290       ??0SystemError@@QAE@ABV0@@Z 61001290 f i main.obj
 0001:000002c0       ??0Error@@QAE@ABV0@@Z      610012c0 f i main.obj
 0001:000002e0       ?load_base_file_rec@FileInfo@@QAE_K_K@Z 610012e0 f i main.obj
 0001:00000310       ?process_file@FileInfo@@QAEX_K@Z 61001310 f i main.obj
 0001:00000340       ??0FileAnalyzer@@QAE@XZ    61001340 f i main.obj
 0001:00000500       ??1FileAnalyzer@@QAE@XZ    61001500 f i main.obj
 0001:000005f0       ??0FileInfo@@QAE@XZ        610015f0 f i main.obj
 0001:00000670       ??1FileInfo@@QAE@XZ        61001670 f i main.obj
 0001:000006d0       ?str_to_char_info@@YA?AV?$Array@UFAR_CHAR_INFO@@@col@@ABVUnicodeString@2@ABV?$Array@UFarColor@@@2@@Z 610016d0 f   main.obj
 0001:00000860       ?fmt_char_cnt@@YAIABVUnicodeString@col@@@Z 61001860 f   main.obj
 0001:00000880       ?far_get_text@@YA?AVUnicodeString@col@@PAXI@Z 61001880 f   main.obj
 0001:000009e0       ?display_file_info@FileAnalyzer@@QAEX_N@Z 610019e0 f   main.obj
 0001:0000a970       ??1MsgError@@QAE@XZ        6100b970 f i main.obj
 0001:0000a990       ??0MsgError@@QAE@ABV0@@Z   6100b990 f i main.obj
 0001:0000a9c0       ?update_totals@FileAnalyzer@@QAEXABVFileInfo@@_N@Z 6100b9c0 f   main.obj
 0001:0000ab40       ?process_file@FileAnalyzer@@QAEXAAVFileInfo@@_N@Z 6100bb40 f   main.obj
 0001:0000aee0       ?process_recursive@FileAnalyzer@@QAEXABVUnicodeString@col@@@Z 6100bee0 f   main.obj
 0001:0000b280       ?panel_go_to_file@@YA_NABVUnicodeString@col@@@Z 6100c280 f   main.obj
 0001:0000b570       _GetGlobalInfoW@4          6100c570 f   main.obj
 0001:0000b600       _SetStartupInfoW@4         6100c600 f   main.obj
 0001:0000b6b0       _GetPluginInfoW@4          6100c6b0 f   main.obj
 0001:0000b710       ?process@FileAnalyzer@@QAEXXZ 6100c710 f   main.obj
 0001:0000ba60       ?th_proc@FileAnalyzer@@SGIPAX@Z 6100ca60 f   main.obj
 0001:0000bae0       ?dialog_handler@FileAnalyzer@@QAEHHHPAX@Z 6100cae0 f   main.obj
 0001:0000bdf0       ?dlg_proc@FileAnalyzer@@SGHPAXHH0@Z 6100cdf0 f   main.obj
 0001:0000bf10       ?file_list_from_cmdline@@YA_NABVUnicodeString@col@@AAV?$ObjectArray@VUnicodeString@col@@@2@AAV12@@Z 6100cf10 f   main.obj
 0001:0000c090       ?get_unicode_file_path@@YA?AVUnicodeString@col@@ABUPluginPanelItem@@ABV12@_N@Z 6100d090 f   main.obj
 0001:0000c0c0       ?file_list_from_panel@@YA_NAAV?$ObjectArray@VUnicodeString@col@@@col@@_N@Z 6100d0c0 f   main.obj
 0001:0000c4b0       ?plugin_show_metadata@@YAXABV?$ObjectArray@VUnicodeString@col@@@col@@@Z 6100d4b0 f   main.obj
 0001:0000c640       ?plugin_process_contents@@YAXABV?$ObjectArray@VUnicodeString@col@@@col@@@Z 6100d640 f   main.obj
 0001:0000c740       ??0ContentInfo@@QAE@XZ     6100d740 f i main.obj
 0001:0000c7d0       ??1ContentInfo@@QAE@XZ     6100d7d0 f i main.obj
 0001:0000c870       _OpenW@4                   6100d870 f   main.obj
 0001:0000d6e0       ??1?$ObjectArray@UListData@FarDialog@@@col@@QAE@XZ 6100e6e0 f i content.obj
 0001:0000d6e0       ??1Log@@QAE@XZ             6100e6e0 f i main.obj
 0001:0000d6e0       ??1?$ObjectArray@UNameValue@@@col@@QAE@XZ 6100e6e0 f i filever.obj
 0001:0000d6f0       _ClosePanelW@4             6100e6f0 f   main.obj
 0001:0000d7e0       _GetOpenPanelInfoW@4       6100e7e0 f   main.obj
 0001:0000d8e0       _GetFindDataW@4            6100e8e0 f   main.obj
 0001:0000da20       _FreeFindDataW@4           6100ea20 f   main.obj
 0001:0000db60       _SetDirectoryW@4           6100eb60 f   main.obj
 0001:0000dcf0       _ConfigureW@4              6100ecf0 f   main.obj
 0001:0000de30       ??0FilePanelMode@@QAE@ABU0@@Z 6100ee30 f i main.obj
 0001:0000dee0       ??1FilePanelMode@@QAE@XZ   6100eee0 f i main.obj
 0001:0000df60       ??4FilePanelMode@@QAEAAU0@ABU0@@Z 6100ef60 f i main.obj
 0001:0000e0b0       _ProcessPanelInputW@4      6100f0b0 f   main.obj
 0001:0000e1b0       _ProcessSynchroEventW@4    6100f1b0 f   main.obj
 0001:0000e270       _DllMain@12                6100f270 f   main.obj
 0001:0000e290       ??1?$ObjectArray@VUnicodeString@col@@@col@@QAE@XZ 6100f290 f i main.obj
 0001:0000e2a0       ?item@?$ObjectArray@VUnicodeString@col@@@col@@QAEAAVUnicodeString@2@I@Z 6100f2a0 f i main.obj
 0001:0000e2c0       ??Y?$ObjectArray@VUnicodeString@col@@@col@@QAEAAV01@ABVUnicodeString@1@@Z 6100f2c0 f i main.obj
 0001:0000e2e0       ?item@?$Array@UFarDialogItem@@@col@@QAEAAUFarDialogItem@@I@Z 6100f2e0 f i main.obj
 0001:0000e330       ??1?$ObjectArray@UAttrInfo@@@col@@QAE@XZ 6100f330 f i main.obj
 0001:0000e340       ??0?$Array@UFarColor@@@col@@QAE@XZ 6100f340 f i main.obj
 0001:0000e3a0       ?buf@?$Array@UFarColor@@@col@@QAEPAUFarColor@@I@Z 6100f3a0 f i main.obj
 0001:0000e410       ??1?$ObjectArray@VFileInfo@@@col@@QAE@XZ 6100f410 f i main.obj
 0001:0000e420       ?bsearch@?$ObjectArray@VFileInfo@@@col@@QBEIABVFileInfo@@@Z 6100f420 f i main.obj
 0001:0000e460       ??4UnicodeString@col@@QAEAAV01@ABV01@@Z 6100f460 f i main.obj
 0001:0000e460       ??4?$Array@UFAR_CHAR_INFO@@@col@@QAEAAV01@ABV01@@Z 6100f460 f i main.obj
 0001:0000e490       ?_cmp_def@?$ObjectArray@VUnicodeString@col@@@col@@CAHPBX0@Z 6100f490 f i main.obj
 0001:0000e4e0       ?create@?$Array@E@col@@CAPAUBuffer@12@PBEI@Z 6100f4e0 f i main.obj
 0001:0000e560       ?clean@?$ObjectArray@UAttrInfo@@@col@@AAEXXZ 6100f560 f i main.obj
 0001:0000e5b0       ?clean@?$ObjectArray@UFileNameAttr@@@col@@AAEXXZ 6100f5b0 f i main.obj
 0001:0000e600       ?create@?$ObjectArray@UVarVerInfo@@@col@@CAPAUBuffer@12@PBUVarVerInfo@@I@Z 6100f600 f i filever.obj
 0001:0000e600       ?create@?$ObjectArray@ULogRecord@@@col@@CAPAUBuffer@12@PBULogRecord@@I@Z 6100f600 f i main.obj
 0001:0000e600       ?create@?$ObjectArray@UNameValue@@@col@@CAPAUBuffer@12@PBUNameValue@@I@Z 6100f600 f i filever.obj
 0001:0000e600       ?create@?$ObjectArray@UListData@FarDialog@@@col@@CAPAUBuffer@12@PBUListData@FarDialog@@I@Z 6100f600 f i dlgapi.obj
 0001:0000e660       ?clean@?$ObjectArray@ULogRecord@@@col@@AAEXXZ 6100f660 f i main.obj
 0001:0000e660       ?clean@?$ObjectArray@UListData@FarDialog@@@col@@AAEXXZ 6100f660 f i content.obj
 0001:0000e660       ?clean@?$ObjectArray@UNameValue@@@col@@AAEXXZ 6100f660 f i filever.obj
 0001:0000e6e0       ?resize@?$Array@UFarColor@@@col@@AAEXI@Z 6100f6e0 f i main.obj
 0001:0000e750       ?copy_if_ref@?$Array@UFarColor@@@col@@AAEXXZ 6100f750 f i main.obj
 0001:0000e7b0       ?clean@?$ObjectArray@VFileInfo@@@col@@AAEXXZ 6100f7b0 f i main.obj
 0001:0000e860       ?_cmp_def@?$ObjectArray@VFileInfo@@@col@@CAHPBX0@Z 6100f860 f i main.obj
 0001:0000e8a0       ?resize@?$Array@UFAR_CHAR_INFO@@@col@@AAEXI@Z 6100f8a0 f i main.obj
 0001:0000e900       ?replace@?$ObjectArray@VUnicodeString@col@@@col@@QAEAAV12@IIPBVUnicodeString@2@I@Z 6100f900 f i main.obj
 0001:0000ec00       ?copy_item@?$ObjectArray@UFileNameAttr@@@col@@CAXPAUFileNameAttr@@PBU3@@Z 6100fc00 f i main.obj
 0001:0000ec60       ?ref_alloc@?$Array@UFarColor@@@col@@AAEPAUBuffer@12@I@Z 6100fc60 f i main.obj
 0001:0000ec60       ?ref_alloc@?$Array@UFarListItem@@@col@@AAEPAUBuffer@12@I@Z 6100fc60 f i dlgapi.obj
 0001:0000ece0       ?replace@?$Array@UFarListItem@@@col@@QAEAAV12@IIPBUFarListItem@@I@Z 6100fce0 f i dlgapi.obj
 0001:0000ece0       ?replace@?$Array@UFarColor@@@col@@QAEAAV12@IIPBUFarColor@@I@Z 6100fce0 f i main.obj
 0001:0000f020       ?ref_resize@?$ObjectArray@VFileInfo@@@col@@AAEXI@Z 61010020 f i main.obj
 0001:0000f080       ?ref_alloc@?$Array@UFarMenuItem@@@col@@AAEPAUBuffer@12@I@Z 61010080 f i dlgapi.obj
 0001:0000f080       ?ref_alloc@?$Array@UFAR_CHAR_INFO@@@col@@AAEPAUBuffer@12@I@Z 61010080 f i main.obj
 0001:0000f0f0       ?replace@?$Array@UFAR_CHAR_INFO@@@col@@QAEAAV12@IIPBUFAR_CHAR_INFO@@I@Z 610100f0 f i main.obj
 0001:0000f0f0       ?replace@?$Array@UFarMenuItem@@@col@@QAEAAV12@IIPBUFarMenuItem@@I@Z 610100f0 f i dlgapi.obj
 0001:0000f370       ??0AttrInfo@@QAE@ABU0@@Z   61010370 f i main.obj
 0001:0000f3e0       ??0FileInfo@@QAE@ABV0@@Z   610103e0 f i main.obj
 0001:0000f470       ??1AttrInfo@@QAE@XZ        61010470 f i main.obj
 0001:0000f490       ??1FileNameAttr@@QAE@XZ    61010490 f i main.obj
 0001:0000f4b0       ?ref_alloc@?$Array@UFarDialogItem@@@col@@AAEPAUBuffer@12@I@Z 610104b0 f i main.obj
 0001:0000f520       ?replace@?$Array@UFarDialogItem@@@col@@QAEAAV12@IIPBUFarDialogItem@@I@Z 61010520 f i main.obj
 0001:0000f840       ?ref_alloc@?$ObjectArray@VFileInfo@@@col@@AAEPAUBuffer@12@I@Z 61010840 f i main.obj
 0001:0000f8b0       ?replace@?$ObjectArray@VFileInfo@@@col@@QAEAAV12@IIPBVFileInfo@@I@Z 610108b0 f i main.obj
 0001:0000fc20       ?compare@UnicodeString@col@@QBEHIIPB_WI@Z 61010c20 f i main.obj
 0001:0000fcd0       ?slice@UnicodeString@col@@QBE?AV12@I@Z 61010cd0 f i main.obj
 0001:0000fd00       ?left@UnicodeString@col@@QBE?AV12@I@Z 61010d00 f i main.obj
 0001:0000fd30       ?slice@UnicodeString@col@@QBE?AV12@II@Z 61010d30 f i main.obj
 0001:0000fd60       ?rsearch@UnicodeString@col@@QBEIIIPB_WI@Z 61010d60 f i main.obj
 0001:0000fdc0       ?equal@UnicodeString@col@@QBE_NIIPB_WI@Z 61010dc0 f i main.obj
 0001:0000fe80       ?set_inc@UnicodeString@col@@QAEAAV12@I@Z 61010e80 f i main.obj
 0001:0000fed0       ??Hcol@@YA?AVUnicodeString@0@ABV10@AB_W@Z 61010ed0 f i main.obj
 0001:0000ff70       ??Hcol@@YA?AVUnicodeString@0@ABV10@0@Z 61010f70 f i main.obj
 0001:00010010       ?search@UnicodeString@col@@QBEIIIPB_WI@Z 61011010 f i main.obj
 0001:000100c0       ?add@UnicodeString@col@@QAEAAV12@ABV12@@Z 610110c0 f i main.obj
 0001:000100e0       ??Hcol@@YA?AVUnicodeString@0@PB_WABV10@@Z 610110e0 f i main.obj
 0001:000101b0       ??Hcol@@YA?AVUnicodeString@0@ABV10@PB_W@Z 610111b0 f i main.obj
 0001:00010270       ?format@UnicodeString@col@@SA?AV12@PB_WZZ 61011270 f i main.obj
 0001:000102f0       ?remove@UnicodeString@col@@QAEAAV12@II@Z 610112f0 f i main.obj
 0001:00010490       ?buf@UnicodeString@col@@QAEPA_WI@Z 61011490 f i main.obj
 0001:00010500       ?buf@UnicodeString@col@@QAEPA_WXZ 61011500 f i main.obj
 0001:00010570       ?set_size@UnicodeString@col@@QAEAAV12@I@Z 61011570 f i main.obj
 0001:000105c0       ?resize@UnicodeString@col@@AAEXI@Z 610115c0 f i main.obj
 0001:00010620       ?extend@UnicodeString@col@@QAEAAV12@I@Z 61011620 f i main.obj
 0001:00010680       ?do_format@UnicodeString@col@@AAEAAV12@PB_WPAD@Z 61011680 f i main.obj
 0001:00010e00       ?add_fmt@UnicodeString@col@@QAAAAV12@PB_WZZ 61011e00 f i main.obj
 0001:00010e20       ?strip@UnicodeString@col@@QAEAAV12@XZ 61011e20 f i main.obj
 0001:00010e90       ?ref_alloc@UnicodeString@col@@AAEPAUBuffer@12@I@Z 61011e90 f i main.obj
 0001:00010f00       ?replace@UnicodeString@col@@QAEAAV12@IIPB_WI@Z 61011f00 f i main.obj
 0001:000111d0       ??4UnicodeString@col@@QAEAAV01@PB_W@Z 610121d0 f i main.obj
 0001:00011200       ??1bad_alloc@std@@UAE@XZ   61012200 f i main.obj
 0001:00011210       ??_Ebad_alloc@std@@UAEPAXI@Z 61012210 f i  CIL library: CIL module
 0001:00011210       ??_Gbad_alloc@std@@UAEPAXI@Z 61012210 f i main.obj
 0001:00011240       ??0bad_alloc@std@@QAE@ABV01@@Z 61012240 f i main.obj
 0001:00011260       ?create@UnicodeString@col@@CAPAUBuffer@12@PB_WI@Z 61012260 f i main.obj
 0001:000112f0       ??0UnicodeString@col@@QAE@PB_W@Z 610122f0 f i main.obj
 0001:00011320       ?message@LzoError@@UBE?AVUnicodeString@col@@XZ 61012320 f i content.obj
 0001:00011490       ?options_dlg_proc@@YGHPAXHH0@Z 61012490 f   content.obj
 0001:00011840       ?show_options_dialog@@YA_NAAUContentOptions@@_N@Z 61012840 f   content.obj
 0001:00011da0       ??1FarDialog@@QAE@XZ       61012da0 f i content.obj
 0001:00011e00       ?ed2k_extract_hash_from_url@@YA?AVUnicodeString@col@@ABV12@@Z 61012e00 f   content.obj
 0001:00011ee0       ?save_hashes_to_file@@YAXABVUnicodeString@col@@ABUContentOptions@@ABUContentInfo@@@Z 61012ee0 f   content.obj
 0001:00012a10       ?result_dlg_proc@@YGHPAXHH0@Z 61013a10 f   content.obj
 0001:00012ed0       ?show_result_dialog@@YAXABVUnicodeString@col@@ABUContentOptions@@ABUContentInfo@@@Z 61013ed0 f   content.obj
 0001:00018380       ?ed2k_update_block_hashes@@YAXPBEIAAV?$Array@E@col@@AAIAAUMD4state_st@@@Z 61019380 f   content.obj
 0001:000185d0       ?ed2k_finalize_block_hashes@@YA?AV?$Array@E@col@@AAV12@IAAUMD4state_st@@@Z 610195d0 f   content.obj
 0001:00018730       ?do_update_ui@ProcessFileProgress@@MAEXXZ 61019730 f i content.obj
 0001:00018f40       ??0ProcessFileProgress@@QAE@AAUSharedData@@ABUContentInfo@@ABUContentOptions@@@Z 61019f40 f i content.obj
 0001:00018fc0       ?process_file_content@@YAXABVUnicodeString@col@@ABUContentOptions@@AAUContentInfo@@@Z 61019fc0 f   content.obj
 0001:0001a470       ??0SharedData@@QAE@XZ      6101b470 f i content.obj
 0001:0001a560       ??1SharedData@@QAE@XZ      6101b560 f i content.obj
 0001:0001a590       ??0LzoError@@QAE@ABV0@@Z   6101b590 f i content.obj
 0001:0001a5c0       ?show_result_dialog@@YAXABUCompressionStats@@@Z 6101b5c0 f   content.obj
 0001:0001ac60       ?do_update_ui@CompressFilesProgress@@MAEXXZ 6101bc60 f i content.obj
 0001:0001b740       ?do_update_ui@EstimationProgress@@MAEXXZ 6101c740 f i content.obj
 0001:0001bbd0       ??0EstimationProgress@@QAE@ABUCompressionState@@@Z 6101cbd0 f i content.obj
 0001:0001bc40       ??1FileListProgress@@UAE@XZ 6101cc40 f i file_panel.obj
 0001:0001bc40       ??1VolumeListProgress@?1??create_mft_index@FilePanel@@AAEXXZ@UAE@XZ 6101cc40 f i mftindex.obj
 0001:0001bc40       ??1Progress@?1??update_mft_index_from_usn@FilePanel@@AAEXXZ@UAE@XZ 6101cc40 f i mftindex.obj
 0001:0001bc40       ??1CompressFilesProgress@@UAE@XZ 6101cc40 f i content.obj
 0001:0001bc40       ??1Progress@?3??store_mft_index@FilePanel@@AAEXXZ@UAE@XZ 6101cc40 f i mftindex.obj
 0001:0001bc40       ??1Progress@?1??load_mft_index@FilePanel@@AAEXXZ@UAE@XZ 6101cc40 f i mftindex.obj
 0001:0001bc40       ??1EstimationProgress@@UAE@XZ 6101cc40 f i content.obj
 0001:0001bc40       ??1ProcessFileProgress@@UAE@XZ 6101cc40 f i content.obj
 0001:0001bc50       ?estimate_file_size@@YAXABVUnicodeString@col@@AAUCompressionState@@AAVEstimationProgress@@@Z 6101cc50 f   content.obj
 0001:0001bd60       ?estimate_directory_size@@YAXABVUnicodeString@col@@AAUCompressionState@@AAVEstimationProgress@@@Z 6101cd60 f   content.obj
 0001:0001c130       ?compress_file@@YAXABVUnicodeString@col@@AAUCompressionState@@AAVCompressFilesProgress@@@Z 6101d130 f   content.obj
 0001:0001c710       ?compress_directory@@YAXABVUnicodeString@col@@AAUCompressionState@@AAVCompressFilesProgress@@@Z 6101d710 f   content.obj
 0001:0001caa0       ?compress_files@@YAXABV?$ObjectArray@VUnicodeString@col@@@col@@AAUCompressionStats@@@Z 6101daa0 f   content.obj
 0001:0001d4c0       ??0CompressionState@@QAE@XZ 6101e4c0 f i content.obj
 0001:0001d5c0       ??1CompressionState@@QAE@XZ 6101e5c0 f i content.obj
 0001:0001d610       ?create@?$Array@PAX@col@@CAPAUBuffer@12@PBQAXI@Z 6101e610 f i content.obj
 0001:0001d6a0       ?replace@?$Array@E@col@@QAEAAV12@IIPBEI@Z 6101e6a0 f i content.obj
 0001:0001d940       ?ref_alloc@?$Array@D@col@@AAEPAUBuffer@12@I@Z 6101e940 f i utils.obj
 0001:0001d940       ?ref_alloc@?$Array@E@col@@AAEPAUBuffer@12@I@Z 6101e940 f i content.obj
 0001:0001d9b0       ?replace@?$Array@PB_W@col@@QAEAAV12@IIPBQB_WI@Z 6101e9b0 f i file_panel.obj
 0001:0001d9b0       ?replace@?$Array@I@col@@QAEAAV12@IIPBII@Z 6101e9b0 f i content.obj
 0001:0001dc90       ?replace@?$Array@PAX@col@@QAEAAV12@IIPBQAXI@Z 6101ec90 f i content.obj
 0001:0001df40       ?replace@?$Array@W4BufState@@@col@@QAEAAV12@IIPBW4BufState@@I@Z 6101ef40 f i content.obj
 0001:0001e170       ?ref_alloc@?$Array@I@col@@AAEPAUBuffer@12@I@Z 6101f170 f i content.obj
 0001:0001e170       ?ref_alloc@?$Array@PAX@col@@AAEPAUBuffer@12@I@Z 6101f170 f i content.obj
 0001:0001e170       ?ref_alloc@?$ObjectArray@V?$Array@PB_W@col@@@col@@AAEPAUBuffer@12@I@Z 6101f170 f i file_panel.obj
 0001:0001e170       ?ref_alloc@?$Array@W4BufState@@@col@@AAEPAUBuffer@12@I@Z 6101f170 f i content.obj
 0001:0001e170       ?ref_alloc@?$ObjectArray@VUnicodeString@col@@@col@@AAEPAUBuffer@12@I@Z 6101f170 f i main.obj
 0001:0001e170       ?ref_alloc@?$Array@PB_W@col@@AAEPAUBuffer@12@I@Z 6101f170 f i file_panel.obj
 0001:0001e1e0       ??$wth_proc@USharedData@@@@YGIPAX@Z 6101f1e0 f i content.obj
 0001:0001e2f0       ??$?HPAX@col@@YA?AV?$Array@PAX@0@ABQAXABV10@@Z 6101f2f0 f i content.obj
 0001:0001e3a0       ??$wth_proc@UCompressionState@@@@YGIPAX@Z 6101f3a0 f i content.obj
 0001:0001e4b0       ??$compress_buffer@USharedData@@@@YA_NPAUSharedData@@@Z 6101f4b0 f i content.obj
 0001:0001e700       ??$compress_buffer@UCompressionState@@@@YA_NPAUCompressionState@@@Z 6101f700 f i content.obj
 0001:0001e950       ?icompare@UnicodeString@col@@QBEHABV12@@Z 6101f950 f i content.obj
 0001:0001e9a0       ?create@AnsiString@col@@CAPAUBuffer@12@PBDI@Z 6101f9a0 f i content.obj
 0001:0001ea20       ??0AnsiString@col@@QAE@PBD@Z 6101fa20 f i content.obj
 0001:0001ea40       ??Hcol@@YA?AVAnsiString@0@PBDABV10@@Z 6101fa40 f i content.obj
 0001:0001eb00       ?ref_alloc@AnsiString@col@@AAEPAUBuffer@12@I@Z 6101fb00 f i content.obj
 0001:0001eb70       ?replace@AnsiString@col@@QAEAAV12@IIPBDI@Z 6101fb70 f i content.obj
 0001:0001edc0       ??Hcol@@YA?AVAnsiString@0@ABV10@PBD@Z 6101fdc0 f i content.obj
 0001:0001ee60       ?copy_fmt@UnicodeString@col@@QAAAAV12@PB_WZZ 6101fe60 f i content.obj
 0001:0001ee90       ??0FileListProgress@@QAE@XZ 6101fe90 f i file_panel.obj
 0001:0001ef00       ?invalidate_mft_index@FilePanel@@AAEXXZ 6101ff00 f i file_panel.obj
 0001:0001ef30       ??0FilePanel@@AAE@XZ       6101ff30 f i file_panel.obj
 0001:0001f150       ??1PanelState@@QAE@XZ      61020150 f i file_panel.obj
 0001:0001f1a0       ?save_state@@YA?AUPanelState@@PAX@Z 610201a0 f   file_panel.obj
 0001:0001f480       ?restore_state@@YAXPAXABUPanelState@@@Z 61020480 f   file_panel.obj
 0001:0001f740       ?open@FilePanel@@SAPAV1@XZ 61020740 f   file_panel.obj
 0001:0001f8c0       ??4PanelState@@QAEAAU0@ABU0@@Z 610208c0 f i file_panel.obj
 0001:0001f960       ??1FilePanel@@QAE@XZ       61020960 f i file_panel.obj
 0001:0001fb10       ?apply_saved_state@FilePanel@@QAEXXZ 61020b10 f   file_panel.obj
 0001:0001fb60       ?close@FilePanel@@QAEXXZ   61020b60 f   file_panel.obj
 0001:0001fc80       ?on_close@FilePanel@@QAEXXZ 61020c80 f   file_panel.obj
 0001:0001fdd0       ?get_active_panel@FilePanel@@SAPAV1@XZ 61020dd0 f   file_panel.obj
 0001:0001fe80       ?do_update_ui@FileListProgress@@MAEXXZ 61020e80 f   file_panel.obj
 0001:00020010       ?fit_col_str@@YAAAVUnicodeString@col@@AAV12@I@Z 61021010 f   file_panel.obj
 0001:00020140       ?create_panel_items@FilePanel@@AAE?AUPluginItemList@@ABV?$list@UPanelItemData@FilePanel@@V?$allocator@UPanelItemData@FilePanel@@@std@@@std@@_N@Z 61021140 f   file_panel.obj
 0001:00020930       ??0PluginItemList@@QAE@XZ  61021930 f i file_panel.obj
 0001:000209f0       ??1PluginItemList@@QAE@XZ  610219f0 f i file_panel.obj
 0001:00020a30       ?scan_dir@FilePanel@@AAEXABVUnicodeString@col@@0AAV?$list@UPanelItemData@FilePanel@@V?$allocator@UPanelItemData@FilePanel@@@std@@@std@@AAVFileListProgress@@@Z 61021a30 f   file_panel.obj
 0001:00021d10       ?sort_file_list@FilePanel@@AAEXAAV?$list@UPanelItemData@FilePanel@@V?$allocator@UPanelItemData@FilePanel@@@std@@@std@@@Z 61022d10 f   file_panel.obj
 0001:00021ee0       ?new_file_list@FilePanel@@QAEXAAPAUPluginPanelItem@@AAI_N@Z 61022ee0 f   file_panel.obj
 0001:00022140       ?change_directory@FilePanel@@QAEXABVUnicodeString@col@@_N@Z 61023140 f   file_panel.obj
 0001:00022650       ?fill_plugin_info@FilePanel@@QAEXPAUOpenPanelInfo@@@Z 61023650 f   file_panel.obj
 0001:00022960       ?dialog_proc@FilePanelModeDialog@@CGHPAXHH0@Z 61023960 f i file_panel.obj
 0001:00022fd0       ?show@FilePanelModeDialog@@QAE_NXZ 61023fd0 f i file_panel.obj
 0001:00023e30       ?show_file_panel_mode_dialog@@YA_NAAUFilePanelMode@@@Z 61024e30 f   file_panel.obj
 0001:00023f60       ?parse_column_spec@FilePanel@@AAEXABVUnicodeString@col@@0AAV23@1_N@Z 61024f60 f   file_panel.obj
 0001:00024600       ??1?$ObjectArray@UPluginItemList@@@col@@QAE@XZ 61025600 f i file_panel.obj
 0001:00024610       ??1AnsiString@col@@QAE@XZ  61025610 f i content.obj
 0001:00024610       ??1?$Array@E@col@@QAE@XZ   61025610 f i main.obj
 0001:00024610       ??1?$Array@_K@col@@QAE@XZ  61025610 f i ntfs_file.obj
 0001:00024610       ??1?$Array@_N@col@@QAE@XZ  61025610 f i mftindex.obj
 0001:00024610       ??1?$Array@I@col@@QAE@XZ   61025610 f i content.obj
 0001:00024610       ??1?$Array@W4BufState@@@col@@QAE@XZ 61025610 f i content.obj
 0001:00024610       ??1?$Array@UFarMenuItem@@@col@@QAE@XZ 61025610 f i dlgapi.obj
 0001:00024610       ??1?$Array@D@col@@QAE@XZ   61025610 f i utils.obj
 0001:00024610       ??1?$Array@UFarList@@@col@@QAE@XZ 61025610 f i content.obj
 0001:00024610       ??1?$Array@UClusterChain@@@col@@QAE@XZ 61025610 f i defragment.obj
 0001:00024610       ??1?$Array@PB_W@col@@QAE@XZ 61025610 f i file_panel.obj
 0001:00024610       ??1?$Array@UPluginPanelItem@@@col@@QAE@XZ 61025610 f i file_panel.obj
 0001:00024610       ??1FileVersionDialogData@@QAE@XZ 61025610 f i filever.obj
 0001:00024610       ??1?$Array@UFarColor@@@col@@QAE@XZ 61025610 f i main.obj
 0001:00024610       ??1?$Array@UDataRun@FileInfo@@@col@@QAE@XZ 61025610 f i ntfs_file.obj
 0001:00024610       ??1?$Array@UFarDialogItem@@@col@@QAE@XZ 61025610 f i main.obj
 0001:00024610       ??1?$Array@PAX@col@@QAE@XZ 61025610 f i content.obj
 0001:00024610       ??1?$Array@UFAR_CHAR_INFO@@@col@@QAE@XZ 61025610 f i main.obj
 0001:00024610       ??1UnicodeString@col@@QAE@XZ 61025610 f i main.obj
 0001:00024630       ??0?$Array@PAVFilePanel@@@col@@QAE@XZ 61025630 f i file_panel.obj
 0001:000246a0       ??1?$ObjectArray@UFileRecord@FilePanel@@@col@@QAE@XZ 610256a0 f i file_panel.obj
 0001:000246b0       ??0?$list@UPanelItemData@FilePanel@@V?$allocator@UPanelItemData@FilePanel@@@std@@@std@@QAE@XZ 610256b0 f i file_panel.obj
 0001:00024710       ??1?$list@UPanelItemData@FilePanel@@V?$allocator@UPanelItemData@FilePanel@@@std@@@std@@QAE@XZ 61025710 f i file_panel.obj
 0001:00024730       ?remove@?$Array@PB_W@col@@QAEAAV12@II@Z 61025730 f i file_panel.obj
 0001:00024730       ?remove@?$Array@I@col@@QAEAAV12@II@Z 61025730 f i file_panel.obj
 0001:00024880       ?search@?$Array@W4BufState@@@col@@QBEIIIPBW4BufState@@I@Z 61025880 f i content.obj
 0001:00024880       ?search@?$Array@I@col@@QBEIIIPBII@Z 61025880 f i file_panel.obj
 0001:00024920       ?resize@?$Array@UPluginPanelItem@@@col@@AAEXI@Z 61025920 f i file_panel.obj
 0001:00024980       ?create@?$ObjectArray@V?$Array@PB_W@col@@@col@@CAPAUBuffer@12@PBV?$Array@PB_W@2@I@Z 61025980 f i file_panel.obj
 0001:00024980       ?create@?$ObjectArray@VUnicodeString@col@@@col@@CAPAUBuffer@12@PBVUnicodeString@2@I@Z 61025980 f i main.obj
 0001:000249e0       ?ref_resize@?$ObjectArray@V?$Array@PB_W@col@@@col@@AAEXI@Z 610259e0 f i file_panel.obj
 0001:000249e0       ?ref_resize@?$ObjectArray@VUnicodeString@col@@@col@@AAEXI@Z 610259e0 f i main.obj
 0001:00024a30       ?clean@?$ObjectArray@VUnicodeString@col@@@col@@AAEXXZ 61025a30 f i main.obj
 0001:00024a30       ?clean@?$ObjectArray@V?$Array@PB_W@col@@@col@@AAEXXZ 61025a30 f i file_panel.obj
 0001:00024a80       ?create@?$ObjectArray@UPluginItemList@@@col@@CAPAUBuffer@12@PBUPluginItemList@@I@Z 61025a80 f i file_panel.obj
 0001:00024ae0       ?clean@?$ObjectArray@UPluginItemList@@@col@@AAEXXZ 61025ae0 f i file_panel.obj
 0001:00024b60       ?resize@?$ObjectArray@V?$Array@PB_W@col@@@col@@AAEXI@Z 61025b60 f i file_panel.obj
 0001:00024b60       ?resize@?$ObjectArray@VUnicodeString@col@@@col@@AAEXI@Z 61025b60 f i main.obj
 0001:00024b60       ?resize@?$Array@PB_W@col@@AAEXI@Z 61025b60 f i file_panel.obj
 0001:00024bc0       ?remove@?$Array@PAVFilePanel@@@col@@QAEAAV12@II@Z 61025bc0 f i file_panel.obj
 0001:00024d50       ?search@?$Array@PAVFilePanel@@@col@@QBEIIIPBQAVFilePanel@@I@Z 61025d50 f i file_panel.obj
 0001:00024df0       ?create@?$ObjectArray@UFileRecord@FilePanel@@@col@@CAPAUBuffer@12@PBUFileRecord@FilePanel@@I@Z 61025df0 f i file_panel.obj
 0001:00024df0       ?create@?$ObjectArray@UFileNameAttr@@@col@@CAPAUBuffer@12@PBUFileNameAttr@@I@Z 61025df0 f i main.obj
 0001:00024df0       ?create@?$ObjectArray@UAttrInfo@@@col@@CAPAUBuffer@12@PBUAttrInfo@@I@Z 61025df0 f i main.obj
 0001:00024df0       ?create@?$ObjectArray@VFileInfo@@@col@@CAPAUBuffer@12@PBVFileInfo@@I@Z 61025df0 f i main.obj
 0001:00024e50       ?clean@?$ObjectArray@UFileRecord@FilePanel@@@col@@AAEXXZ 61025e50 f i file_panel.obj
 0001:00024ea0       ?ref_alloc@?$Array@UPluginPanelItem@@@col@@AAEPAUBuffer@12@I@Z 61025ea0 f i file_panel.obj
 0001:00024f10       ?replace@?$ObjectArray@UPluginItemList@@@col@@QAEAAV12@IIPBUPluginItemList@@I@Z 61025f10 f i file_panel.obj
 0001:00025490       ?replace@?$Array@PAVFilePanel@@@col@@QAEAAV12@IIPBQAVFilePanel@@I@Z 61026490 f i file_panel.obj
 0001:000257b0       ?replace@?$ObjectArray@UFileRecord@FilePanel@@@col@@QAEAAV12@IIPBUFileRecord@FilePanel@@I@Z 610267b0 f i file_panel.obj
 0001:00025b40       ?clear@?$list@UPanelItemData@FilePanel@@V?$allocator@UPanelItemData@FilePanel@@@std@@@std@@QAEXXZ 61026b40 f i file_panel.obj
 0001:00025bb0       ?_Buynode@?$_List_val@UPanelItemData@FilePanel@@V?$allocator@UPanelItemData@FilePanel@@@std@@@std@@QAEPAU_Node@?$_List_nod@UPanelItemData@FilePanel@@V?$allocator@UPanelItemData@FilePanel@@@std@@@2@PAU342@0ABUPanelItemData@FilePanel@@@Z 61026bb0 f i file_panel.obj
 0001:00025c20       ??0FileRecord@FilePanel@@QAE@ABU01@@Z 61026c20 f i file_panel.obj
 0001:00025cc0       ??1FileRecord@FilePanel@@QAE@XZ 61026cc0 f i file_panel.obj
 0001:00025ce0       ?replace@?$Array@UPluginPanelItem@@@col@@QAEAAV12@IIPBUPluginPanelItem@@I@Z 61026ce0 f i file_panel.obj
 0001:00025f80       ?replace@?$ObjectArray@V?$Array@PB_W@col@@@col@@QAEAAV12@IIPBV?$Array@PB_W@2@I@Z 61026f80 f i file_panel.obj
 0001:000261d0       ?ref_alloc@?$Array@UClusterChain@@@col@@AAEPAUBuffer@12@I@Z 610271d0 f i defragment.obj
 0001:000261d0       ?ref_alloc@?$Array@UDataRun@FileInfo@@@col@@AAEPAUBuffer@12@I@Z 610271d0 f i ntfs_file.obj
 0001:000261d0       ?ref_alloc@?$ObjectArray@UPluginItemList@@@col@@AAEPAUBuffer@12@I@Z 610271d0 f i file_panel.obj
 0001:00026240       ?ref_alloc@?$Array@PAVFilePanel@@@col@@AAEPAUBuffer@12@I@Z 61027240 f i file_panel.obj
 0001:000262c0       ?ref_alloc@?$ObjectArray@UFileRecord@FilePanel@@@col@@AAEPAUBuffer@12@I@Z 610272c0 f i file_panel.obj
 0001:00026330       ??$sort@UDataSizeCmp@?3??sort_file_list@FilePanel@@AAEXAAV?$list@UPanelItemData@FilePanel@@V?$allocator@UPanelItemData@FilePanel@@@std@@@std@@@Z@@?$list@UPanelItemData@FilePanel@@V?$allocator@UPanelItemData@FilePanel@@@std@@@std@@QAEXUDataSizeCmp@?3??sort_file_list@FilePanel@@AAEXAAV01@@Z@@Z 61027330 f i file_panel.obj
 0001:000265a0       ??$sort@UDiskSizeCmp@?4??sort_file_list@FilePanel@@AAEXAAV?$list@UPanelItemData@FilePanel@@V?$allocator@UPanelItemData@FilePanel@@@std@@@std@@@Z@@?$list@UPanelItemData@FilePanel@@V?$allocator@UPanelItemData@FilePanel@@@std@@@std@@QAEXUDiskSizeCmp@?4??sort_file_list@FilePanel@@AAEXAAV01@@Z@@Z 610275a0 f i file_panel.obj
 0001:00026810       ??$sort@UFragmentsCmp@?5??sort_file_list@FilePanel@@AAEXAAV?$list@UPanelItemData@FilePanel@@V?$allocator@UPanelItemData@FilePanel@@@std@@@std@@@Z@@?$list@UPanelItemData@FilePanel@@V?$allocator@UPanelItemData@FilePanel@@@std@@@std@@QAEXUFragmentsCmp@?5??sort_file_list@FilePanel@@AAEXAAV01@@Z@@Z 61027810 f i file_panel.obj
 0001:00026a80       ??$sort@UStreamsCmp@?6??sort_file_list@FilePanel@@AAEXAAV?$list@UPanelItemData@FilePanel@@V?$allocator@UPanelItemData@FilePanel@@@std@@@std@@@Z@@?$list@UPanelItemData@FilePanel@@V?$allocator@UPanelItemData@FilePanel@@@std@@@std@@QAEXUStreamsCmp@?6??sort_file_list@FilePanel@@AAEXAAV01@@Z@@Z 61027a80 f i file_panel.obj
 0001:00026cf0       ??$sort@UHardLinksCmp@?7??sort_file_list@FilePanel@@AAEXAAV?$list@UPanelItemData@FilePanel@@V?$allocator@UPanelItemData@FilePanel@@@std@@@std@@@Z@@?$list@UPanelItemData@FilePanel@@V?$allocator@UPanelItemData@FilePanel@@@std@@@std@@QAEXUHardLinksCmp@?7??sort_file_list@FilePanel@@AAEXAAV01@@Z@@Z 61027cf0 f i file_panel.obj
 0001:00026f60       ??$sort@UMftRecordsCmp@?8??sort_file_list@FilePanel@@AAEXAAV?$list@UPanelItemData@FilePanel@@V?$allocator@UPanelItemData@FilePanel@@@std@@@std@@@Z@@?$list@UPanelItemData@FilePanel@@V?$allocator@UPanelItemData@FilePanel@@@std@@@std@@QAEXUMftRecordsCmp@?8??sort_file_list@FilePanel@@AAEXAAV01@@Z@@Z 61027f60 f i file_panel.obj
 0001:000271d0       ??$sort@UFragmLevelCmp@?9??sort_file_list@FilePanel@@AAEXAAV?$list@UPanelItemData@FilePanel@@V?$allocator@UPanelItemData@FilePanel@@@std@@@std@@@Z@@?$list@UPanelItemData@FilePanel@@V?$allocator@UPanelItemData@FilePanel@@@std@@@std@@QAEXUFragmLevelCmp@?9??sort_file_list@FilePanel@@AAEXAAV01@@Z@@Z 610281d0 f i file_panel.obj
 0001:00027440       ??$sort@UValidSizeCmp@?L@??sort_file_list@FilePanel@@AAEXAAV?$list@UPanelItemData@FilePanel@@V?$allocator@UPanelItemData@FilePanel@@@std@@@std@@@Z@@?$list@UPanelItemData@FilePanel@@V?$allocator@UPanelItemData@FilePanel@@@std@@@std@@QAEXUValidSizeCmp@?L@??sort_file_list@FilePanel@@AAEXAAV01@@Z@@Z 61028440 f i file_panel.obj
 0001:000276b0       ??$sort@UNameLenCmp@?M@??sort_file_list@FilePanel@@AAEXAAV?$list@UPanelItemData@FilePanel@@V?$allocator@UPanelItemData@FilePanel@@@std@@@std@@@Z@@?$list@UPanelItemData@FilePanel@@V?$allocator@UPanelItemData@FilePanel@@@std@@@std@@QAEXUNameLenCmp@?M@??sort_file_list@FilePanel@@AAEXAAV01@@Z@@Z 610286b0 f i file_panel.obj
 0001:00027920       ?_Splice_same@?$list@UPanelItemData@FilePanel@@V?$allocator@UPanelItemData@FilePanel@@@std@@@std@@QAEXV?$_List_const_iterator@V?$_List_val@UPanelItemData@FilePanel@@V?$allocator@UPanelItemData@FilePanel@@@std@@@std@@@2@AAV12@00I@Z 61028920 f i file_panel.obj
 0001:000279a0       ??$merge@UDataSizeCmp@?3??sort_file_list@FilePanel@@AAEXAAV?$list@UPanelItemData@FilePanel@@V?$allocator@UPanelItemData@FilePanel@@@std@@@std@@@Z@@?$list@UPanelItemData@FilePanel@@V?$allocator@UPanelItemData@FilePanel@@@std@@@std@@QAEXAAV01@UDataSizeCmp@?3??sort_file_list@FilePanel@@AAEX0@Z@@Z 610289a0 f i file_panel.obj
 0001:00027a30       ??$merge@UDiskSizeCmp@?4??sort_file_list@FilePanel@@AAEXAAV?$list@UPanelItemData@FilePanel@@V?$allocator@UPanelItemData@FilePanel@@@std@@@std@@@Z@@?$list@UPanelItemData@FilePanel@@V?$allocator@UPanelItemData@FilePanel@@@std@@@std@@QAEXAAV01@UDiskSizeCmp@?4??sort_file_list@FilePanel@@AAEX0@Z@@Z 61028a30 f i file_panel.obj
 0001:00027ac0       ??$merge@UFragmentsCmp@?5??sort_file_list@FilePanel@@AAEXAAV?$list@UPanelItemData@FilePanel@@V?$allocator@UPanelItemData@FilePanel@@@std@@@std@@@Z@@?$list@UPanelItemData@FilePanel@@V?$allocator@UPanelItemData@FilePanel@@@std@@@std@@QAEXAAV01@UFragmentsCmp@?5??sort_file_list@FilePanel@@AAEX0@Z@@Z 61028ac0 f i file_panel.obj
 0001:00027b40       ??$merge@UStreamsCmp@?6??sort_file_list@FilePanel@@AAEXAAV?$list@UPanelItemData@FilePanel@@V?$allocator@UPanelItemData@FilePanel@@@std@@@std@@@Z@@?$list@UPanelItemData@FilePanel@@V?$allocator@UPanelItemData@FilePanel@@@std@@@std@@QAEXAAV01@UStreamsCmp@?6??sort_file_list@FilePanel@@AAEX0@Z@@Z 61028b40 f i file_panel.obj
 0001:00027bc0       ??$merge@UHardLinksCmp@?7??sort_file_list@FilePanel@@AAEXAAV?$list@UPanelItemData@FilePanel@@V?$allocator@UPanelItemData@FilePanel@@@std@@@std@@@Z@@?$list@UPanelItemData@FilePanel@@V?$allocator@UPanelItemData@FilePanel@@@std@@@std@@QAEXAAV01@UHardLinksCmp@?7??sort_file_list@FilePanel@@AAEX0@Z@@Z 61028bc0 f i file_panel.obj
 0001:00027c40       ??$merge@UMftRecordsCmp@?8??sort_file_list@FilePanel@@AAEXAAV?$list@UPanelItemData@FilePanel@@V?$allocator@UPanelItemData@FilePanel@@@std@@@std@@@Z@@?$list@UPanelItemData@FilePanel@@V?$allocator@UPanelItemData@FilePanel@@@std@@@std@@QAEXAAV01@UMftRecordsCmp@?8??sort_file_list@FilePanel@@AAEX0@Z@@Z 61028c40 f i file_panel.obj
 0001:00027cc0       ??$merge@UFragmLevelCmp@?9??sort_file_list@FilePanel@@AAEXAAV?$list@UPanelItemData@FilePanel@@V?$allocator@UPanelItemData@FilePanel@@@std@@@std@@@Z@@?$list@UPanelItemData@FilePanel@@V?$allocator@UPanelItemData@FilePanel@@@std@@@std@@QAEXAAV01@UFragmLevelCmp@?9??sort_file_list@FilePanel@@AAEX0@Z@@Z 61028cc0 f i file_panel.obj
 0001:00027d50       ??$merge@UValidSizeCmp@?L@??sort_file_list@FilePanel@@AAEXAAV?$list@UPanelItemData@FilePanel@@V?$allocator@UPanelItemData@FilePanel@@@std@@@std@@@Z@@?$list@UPanelItemData@FilePanel@@V?$allocator@UPanelItemData@FilePanel@@@std@@@std@@QAEXAAV01@UValidSizeCmp@?L@??sort_file_list@FilePanel@@AAEX0@Z@@Z 61028d50 f i file_panel.obj
 0001:00027de0       ??$merge@UNameLenCmp@?M@??sort_file_list@FilePanel@@AAEXAAV?$list@UPanelItemData@FilePanel@@V?$allocator@UPanelItemData@FilePanel@@@std@@@std@@@Z@@?$list@UPanelItemData@FilePanel@@V?$allocator@UPanelItemData@FilePanel@@@std@@@std@@QAEXAAV01@UNameLenCmp@?M@??sort_file_list@FilePanel@@AAEX0@Z@@Z 61028de0 f i file_panel.obj
 0001:00027e60       ??0PanelItemData@FilePanel@@QAE@ABU01@@Z 61028e60 f i file_panel.obj
 0001:00027f00       ??3@YAXPAX0@Z              61028f00 f i file_panel.obj
 0001:00027f10       ??Hcol@@YA?AVUnicodeString@0@AB_WABV10@@Z 61028f10 f i file_panel.obj
 0001:00027fc0       ?last_item@UnicodeString@col@@QAEAA_WXZ 61028fc0 f i file_panel.obj
 0001:00028010       ?type_name@AttrInfo@@QBE?AVUnicodeString@col@@XZ 61029010 f   ntfs_file.obj
 0001:000280e0       ?find_full_paths@FileInfo@@QAEXXZ 610290e0 f   ntfs_file.obj
 0001:00028810       ?load_mft_record@FileInfo@@AAE_K_KAAV?$Array@E@col@@@Z 61029810 f   ntfs_file.obj
 0001:00028ab0       ?find_attribute@FileInfo@@AAEIABV?$Array@E@col@@IG@Z 61029ab0 f   ntfs_file.obj
 0001:00028c80       ?decode_data_runs@FileInfo@@AAE?AV?$Array@UDataRun@FileInfo@@@col@@ABV?$Array@E@3@I@Z 61029c80 f   ntfs_file.obj
 0001:00029040       ?process_attribute@FileInfo@@AAEXABV?$Array@E@col@@I@Z 6102a040 f   ntfs_file.obj
 0001:000299c0       ?process_attr_list_entry@FileInfo@@AAEXPBUATTR_LIST_ENTRY@@AAV?$Array@_K@col@@@Z 6102a9c0 f   ntfs_file.obj
 0001:00029b30       ?process_base_file_rec@FileInfo@@QAEXXZ 6102ab30 f   ntfs_file.obj
 0001:0002a490       ?buf@?$Array@E@col@@QAEPAEI@Z 6102b490 f i ntfs_file.obj
 0001:0002a490       ?buf@?$Array@D@col@@QAEPADI@Z 6102b490 f i utils.obj
 0001:0002a4f0       ?set_size@?$Array@E@col@@QAEAAV12@I@Z 6102b4f0 f i ntfs_file.obj
 0001:0002a530       ?remove@?$Array@E@col@@QAEAAV12@II@Z 6102b530 f i ntfs_file.obj
 0001:0002a660       ?resize@?$Array@E@col@@AAEXI@Z 6102b660 f i ntfs_file.obj
 0001:0002a660       ?resize@?$Array@D@col@@AAEXI@Z 6102b660 f i utils.obj
 0001:0002a6c0       ?search@?$Array@_K@col@@QBEIIIPB_KI@Z 6102b6c0 f i ntfs_file.obj
 0001:0002a760       ?ref_resize@?$ObjectArray@UAttrInfo@@@col@@AAEXI@Z 6102b760 f i ntfs_file.obj
 0001:0002a820       ?replace@?$ObjectArray@UAttrInfo@@@col@@QAEAAV12@IIPBUAttrInfo@@I@Z 6102b820 f i ntfs_file.obj
 0001:0002ade0       ?replace@?$ObjectArray@UFileNameAttr@@@col@@QAEAAV12@IIPBUFileNameAttr@@I@Z 6102bde0 f i ntfs_file.obj
 0001:0002b3a0       ?ref_alloc@?$ObjectArray@UFileNameAttr@@@col@@AAEPAUBuffer@12@I@Z 6102c3a0 f i ntfs_file.obj
 0001:0002b3a0       ?ref_alloc@?$ObjectArray@UAttrInfo@@@col@@AAEPAUBuffer@12@I@Z 6102c3a0 f i ntfs_file.obj
 0001:0002b420       ?replace@?$Array@UDataRun@FileInfo@@@col@@QAEAAV12@IIPBUDataRun@FileInfo@@I@Z 6102c420 f i ntfs_file.obj
 0001:0002b420       ?replace@?$Array@UClusterChain@@@col@@QAEAAV12@IIPBUClusterChain@@I@Z 6102c420 f i defragment.obj
 0001:0002b6f0       ?replace@?$Array@_K@col@@QAEAAV12@IIPB_KI@Z 6102c6f0 f i ntfs_file.obj
 0001:0002b950       ?set@Options@@IAE_NPB_W_K@Z 6102c950 f i options.obj
 0001:0002b9c0       ?get@Options@@IAE_NPB_WAAVUnicodeString@col@@@Z 6102c9c0 f i options.obj
 0001:0002ba50       ??1Options@@QAE@XZ         6102ca50 f i options.obj
 0001:0002ba70       ?create@Options@@QAE_NXZ   6102ca70 f i options.obj
 0001:0002bb30       ?get_bool@Options@@QAE_NPB_W_N@Z 6102cb30 f i options.obj
 0001:0002bbb0       ?get_str@Options@@QAE?AVUnicodeString@col@@PB_WABV23@@Z 6102cbb0 f i options.obj
 0001:0002bc60       ?set_str@Options@@QAEXPB_WABVUnicodeString@col@@1@Z 6102cc60 f i options.obj
 0001:0002bcf0       ??0FilePanelMode@@QAE@XZ   6102ccf0 f   options.obj
 0001:0002bdd0       ?load_plugin_options@@YAXXZ 6102cdd0 f   options.obj
 0001:0002c420       ?store_plugin_options@@YAXXZ 6102d420 f   options.obj
 0001:0002ccc0       ?unicode_to_oem@@YAXAAVAnsiString@col@@ABVUnicodeString@2@@Z 6102dcc0 f   utils.obj
 0001:0002ce10       ?oem_to_unicode@@YAXAAVUnicodeString@col@@ABVAnsiString@2@@Z 6102de10 f   utils.obj
 0001:0002cf70       ?unicode_to_oem@@YA?AVAnsiString@col@@ABVUnicodeString@2@@Z 6102df70 f   utils.obj
 0001:0002cff0       ?oem_to_unicode@@YA?AVUnicodeString@col@@ABVAnsiString@2@@Z 6102dff0 f   utils.obj
 0001:0002d070       ?ansi_to_unicode@@YA?AVUnicodeString@col@@ABVAnsiString@2@I@Z 6102e070 f   utils.obj
 0001:0002d190       ?unicode_to_ansi@@YA?AVAnsiString@col@@ABVUnicodeString@2@I@Z 6102e190 f   utils.obj
 0001:0002d320       ?format_inf_amount@@YA?AVUnicodeString@col@@_K@Z 6102e320 f   utils.obj
 0001:0002d430       ?format_inf_amount_short@@YA?AVUnicodeString@col@@_K_N@Z 6102e430 f   utils.obj
 0001:0002d470       ?load_suffixes@@YAXXZ      6102e470 f   utils.obj
 0001:0002da10       ?format_data_size@@YA?AVUnicodeString@col@@_KABV?$ObjectArray@VUnicodeString@col@@@2@@Z 6102ea10 f   utils.obj
 0001:0002dd20       ?format_time@@YA?AVUnicodeString@col@@_K@Z 6102ed20 f   utils.obj
 0001:0002dd90       ?format_time2@@YA?AVUnicodeString@col@@_K@Z 6102ed90 f   utils.obj
 0001:0002dee0       ?format_hex_array@@YA?AVUnicodeString@col@@ABV?$Array@E@2@@Z 6102eee0 f   utils.obj
 0001:0002df70       ?word_wrap@@YA?AVUnicodeString@col@@ABV12@I@Z 6102ef70 f   utils.obj
 0001:0002e020       ?get_module_version@@YA?AUModuleVersion@@PAUHINSTANCE__@@@Z 6102f020 f   utils.obj
 0001:0002e240       ?locate_path_root@@YAXABVUnicodeString@col@@AAIAA_N@Z 6102f240 f   utils.obj
 0001:0002e360       ?extract_path_root@@YA?AVUnicodeString@col@@ABV12@@Z 6102f360 f   utils.obj
 0001:0002e3a0       ?extract_file_name@@YA?AVUnicodeString@col@@ABV12@@Z 6102f3a0 f   utils.obj
 0001:0002e420       ?extract_file_path@@YA?AVUnicodeString@col@@ABV12@@Z 6102f420 f   utils.obj
 0001:0002e490       ?remove_path_root@@YA?AVUnicodeString@col@@ABV12@@Z 6102f490 f   utils.obj
 0001:0002e4e0       ?long_path@@YA?AVUnicodeString@col@@ABV12@@Z 6102f4e0 f   utils.obj
 0001:0002e9a0       ?add_trailing_slash@@YA?AVUnicodeString@col@@ABV12@@Z 6102f9a0 f   utils.obj
 0001:0002e9f0       ?del_trailing_slash@@YA?AVUnicodeString@col@@ABV12@@Z 6102f9f0 f   utils.obj
 0001:0002ea30       ?add_trailing_slash@@YA?AV?$basic_string@_WU?$char_traits@_W@std@@V?$allocator@_W@2@@std@@ABV12@@Z 6102fa30 f   utils.obj
 0001:0002ea90       ?del_trailing_slash@@YA?AV?$basic_string@_WU?$char_traits@_W@std@@V?$allocator@_W@2@@std@@ABV12@@Z 6102fa90 f   utils.obj
 0001:0002eaf0       ?int_to_str@@YA?AVUnicodeString@col@@H@Z 6102faf0 f   utils.obj
 0001:0002eb80       ?center@@YA?AVUnicodeString@col@@ABV12@I@Z 6102fb80 f   utils.obj
 0001:0002ebc0       ?fit_str@@YA?AVUnicodeString@col@@ABV12@I@Z 6102fbc0 f   utils.obj
 0001:0002ecd0       ?split_str@@YA?AV?$ObjectArray@VUnicodeString@col@@@col@@ABVUnicodeString@2@_W@Z 6102fcd0 f   utils.obj
 0001:0002edd0       ?round@@YAHN@Z             6102fdd0 f   utils.obj
 0001:0002ee10       ??1ProgressMonitor@@UAE@XZ 6102fe10 f   utils.obj
 0001:0002eec0       ?update_ui@ProgressMonitor@@QAEX_N@Z 6102fec0 f   utils.obj
 0001:0002f040       ?show@Log@@QAEXXZ          61030040 f   utils.obj
 0001:0002f470       ?far_get_panel_dir@@YA?AVUnicodeString@col@@PAX@Z 61030470 f   utils.obj
 0001:0002f5c0       ?far_set_panel_dir@@YA_NPAXABVUnicodeString@col@@@Z 610305c0 f   utils.obj
 0001:0002f630       ?far_get_full_path@@YA?AVUnicodeString@col@@ABV12@@Z 61030630 f   utils.obj
 0001:0002f730       ?far_get_panel_item@@YAPAUPluginPanelItem@@PAXI@Z 61030730 f   utils.obj
 0001:0002fa20       ?far_get_selected_panel_item@@YAPAUPluginPanelItem@@PAXI@Z 61030a20 f   utils.obj
 0001:0002fd10       ?error_dlg@@YAXABVError@@@Z 61030d10 f   utils.obj
 0001:0002ffc0       ?error_dlg@@YAXABVexception@std@@@Z 61030fc0 f   utils.obj
 0001:00030210       ?get_temp_path@@YA?AVUnicodeString@col@@XZ 61031210 f   utils.obj
 0001:00030390       ??0Event@@QAE@_N0@Z        61031390 f   utils.obj
 0001:00030430       ??1Event@@QAE@XZ           61031430 f   utils.obj
 0001:00030430       ??1Semaphore@@QAE@XZ       61031430 f   utils.obj
 0001:00030430       ??1File@@QAE@XZ            61031430 f   utils.obj
 0001:00030440       ??0Semaphore@@QAE@II@Z     61031440 f   utils.obj
 0001:000304e0       ??0File@@QAE@ABVUnicodeString@col@@KKKK@Z 610314e0 f   utils.obj
 0001:000305b0       ?size@File@@QAE_KXZ        610315b0 f   utils.obj
 0001:00030650       ?read@File@@QAEIPAXI@Z     61031650 f   utils.obj
 0001:000306f0       ??1FileEnum@@QAE@XZ        610316f0 f   utils.obj
 0001:00030720       ?next@FileEnum@@QAE_NXZ    61031720 f   utils.obj
 0001:00030900       ?get_find_data@@YA?AUFindData@@ABVUnicodeString@col@@@Z 61031900 f   utils.obj
 0001:000309d0       ?substr@?$basic_string@_WU?$char_traits@_W@std@@V?$allocator@_W@2@@std@@QBE?AV12@II@Z 610319d0 f i utils.obj
 0001:00030a00       ?buf@?$Array@E@col@@QAEPAEXZ 61031a00 f i utils.obj
 0001:00030a60       ??0?$Array@D@col@@QAE@XZ   61031a60 f i utils.obj
 0001:00030ac0       ??1?$unique_ptr@EU?$default_delete@E@std@@@std@@QAE@XZ 61031ac0 f i utils.obj
 0001:00030ae0       ??$?H_WU?$char_traits@_W@std@@V?$allocator@_W@1@@std@@YA?AV?$basic_string@_WU?$char_traits@_W@std@@V?$allocator@_W@2@@0@ABV10@_W@Z 61031ae0 f i utils.obj
 0001:00030b90       ?assign@?$basic_string@_WU?$char_traits@_W@std@@V?$allocator@_W@2@@std@@QAEAAV12@$$QAV12@@Z 61031b90 f i utils.obj
 0001:00030c00       ?append@?$basic_string@_WU?$char_traits@_W@std@@V?$allocator@_W@2@@std@@QAEAAV12@I_W@Z 61031c00 f i utils.obj
 0001:00030ca0       ?append@?$basic_string@_WU?$char_traits@_W@std@@V?$allocator@_W@2@@std@@QAEAAV12@ABV12@II@Z 61031ca0 f i utils.obj
 0001:00030d80       ?set_size@UnicodeString@col@@QAEAAV12@XZ 61031d80 f i utils.obj
 0001:00030df0       ?compact@UnicodeString@col@@QAEAAV12@XZ 61031df0 f i utils.obj
 0001:00030e50       ?right@UnicodeString@col@@QBE?AV12@I@Z 61031e50 f i utils.obj
 0001:00030e80       ??1?$basic_string@_WU?$char_traits@_W@std@@V?$allocator@_W@2@@std@@QAE@XZ 61031e80 f i utils.obj
 0001:00030eb0       ?erase@?$basic_string@_WU?$char_traits@_W@std@@V?$allocator@_W@2@@std@@QAEAAV12@II@Z 61031eb0 f i utils.obj
 0001:00030f30       ?allocate@?$allocator@_W@std@@QAEPA_WI@Z 61031f30 f i utils.obj
 0001:00030f90       ?_Copy@?$basic_string@_WU?$char_traits@_W@std@@V?$allocator@_W@2@@std@@QAEXII@Z 61031f90 f i utils.obj
 0001:00031110       ?_Grow@?$basic_string@_WU?$char_traits@_W@std@@V?$allocator@_W@2@@std@@QAE_NI_N@Z 61032110 f i utils.obj
 0001:000311d0       ?assign@?$basic_string@_WU?$char_traits@_W@std@@V?$allocator@_W@2@@std@@QAEAAV12@ABV12@II@Z 610321d0 f i utils.obj
 0001:000312d0       ?equal@UnicodeString@col@@QBE_NIPB_W@Z 610322d0 f i utils.obj
 0001:00031320       ?resize@AnsiString@col@@AAEXI@Z 61032320 f i utils.obj
 0001:00031380       ?buf@AnsiString@col@@QAEPADI@Z 61032380 f i utils.obj
 0001:000313e0       ?get_real_path@@YA?AVUnicodeString@col@@ABV12@@Z 610323e0 f   volume.obj
 0001:000314e0       ??0VolumeInfo@@QAE@ABVUnicodeString@col@@@Z 610324e0 f   volume.obj
 0001:00031640       ?get_volume_path@@YA?AVUnicodeString@col@@ABV12@@Z 61032640 f   volume.obj
 0001:00031690       ?open@NtfsVolume@@QAEXABVUnicodeString@col@@@Z 61032690 f   volume.obj
 0001:000319f0       ?flush@NtfsVolume@@QAEXXZ  610329f0 f   volume.obj
 0001:00031a60       ?get_volume_guid@@YA?AVUnicodeString@col@@ABV12@@Z 61032a60 f   volume.obj
 0001:00031c70       ?far_get_msg@@YA?AVUnicodeString@col@@H@Z 61032c70 f   dlgapi.obj
 0001:00031cd0       ?get_msg_width@@YAIXZ      61032cd0 f   dlgapi.obj
 0001:00031d20       ?far_message@@YAHABU_GUID@@ABVUnicodeString@col@@H_K@Z 61032d20 f   dlgapi.obj
 0001:00031d60       ?far_menu@@YAHABU_GUID@@ABVUnicodeString@col@@ABV?$ObjectArray@VUnicodeString@col@@@3@PB_W@Z 61032d60 f   dlgapi.obj
 0001:00031ed0       ?get_label_len@@YAIABVUnicodeString@col@@@Z 61032ed0 f   dlgapi.obj
 0001:00031ef0       ?draw_text_box@@YAXABVUnicodeString@col@@ABV?$ObjectArray@VUnicodeString@col@@@2@I@Z 61032ef0 f   dlgapi.obj
 0001:000321e0       ?frame@FarDialog@@AAEXABVUnicodeString@col@@@Z 610331e0 f   dlgapi.obj
 0001:000322a0       ?calc_frame_size@FarDialog@@AAEXXZ 610332a0 f   dlgapi.obj
 0001:00032310       ??0FarDialog@@QAE@ABU_GUID@@ABVUnicodeString@col@@I@Z 61033310 f   dlgapi.obj
 0001:00032450       ?separator@FarDialog@@QAEIXZ 61033450 f   dlgapi.obj
 0001:000324f0       ?separator@FarDialog@@QAEIABVUnicodeString@col@@@Z 610334f0 f   dlgapi.obj
 0001:000325b0       ?label@FarDialog@@QAEIABVUnicodeString@col@@IK@Z 610335b0 f   dlgapi.obj
 0001:000326c0       ?var_edit_box@FarDialog@@QAEIABVUnicodeString@col@@IK@Z 610336c0 f   dlgapi.obj
 0001:000327b0       ?fix_edit_box@FarDialog@@QAEIABVUnicodeString@col@@IK@Z 610337b0 f   dlgapi.obj
 0001:000328a0       ?button@FarDialog@@QAEIABVUnicodeString@col@@K_N@Z 610338a0 f   dlgapi.obj
 0001:000329b0       ?check_box@FarDialog@@QAEIABVUnicodeString@col@@HK@Z 610339b0 f   dlgapi.obj
 0001:00032ac0       ?combo_box@FarDialog@@QAEIABV?$ObjectArray@VUnicodeString@col@@@col@@IIK@Z 61033ac0 f   dlgapi.obj
 0001:00032dc0       ??0ListData@FarDialog@@QAE@XZ 61033dc0 f i dlgapi.obj
 0001:00032eb0       ?show@FarDialog@@QAEHP6GHPAXHH0@ZPB_W@Z 61033eb0 f   dlgapi.obj
 0001:00032fa0       ?get_text@FarDialog@@QAE?AVUnicodeString@col@@I@Z 61033fa0 f   dlgapi.obj
 0001:00033110       ?get_check@FarDialog@@QAE_NI@Z 61034110 f   dlgapi.obj
 0001:00033140       ?get_list_pos@FarDialog@@QAEII@Z 61034140 f   dlgapi.obj
 0001:00033160       ?link_label@FarDialog@@QAEXII@Z 61034160 f   dlgapi.obj
 0001:00033450       ?remove@?$Array@UFarDialogItem@@@col@@QAEAAV12@II@Z 61034450 f i dlgapi.obj
 0001:000335e0       ?resize@?$Array@UFarDialogItem@@@col@@AAEXI@Z 610345e0 f i dlgapi.obj
 0001:00033640       ?replace@?$Array@UFarList@@@col@@QAEAAV12@IIPBUFarList@@I@Z 61034640 f i dlgapi.obj
 0001:00033860       ?ref_alloc@?$Array@UFarList@@@col@@AAEPAUBuffer@12@I@Z 61034860 f i dlgapi.obj
 0001:000338e0       ?add@Log@@QAEXABVUnicodeString@col@@0@Z 610348e0 f i defragment.obj
 0001:000339f0       ?do_update_ui@DefragProgress@@MAEXXZ 610349f0 f i defragment.obj
 0001:00033fd0       ??0DefragProgress@@QAE@XZ  61034fd0 f i defragment.obj
 0001:00034080       ?update_defrag_ui@DefragProgress@@UAEX_N@Z 61035080 f i defragment.obj
 0001:00034090       ??_EDefragProgress@@UAEPAXI@Z 61035090 f i  CIL library: CIL module
 0001:00034090       ??_GDefragProgress@@UAEPAXI@Z 61035090 f i defragment.obj
 0001:000340d0       ??1DefragProgress@@UAE@XZ  610350d0 f i defragment.obj
 0001:00034100       ?get_chain_count@@YAIABV?$Array@UClusterChain@@@col@@I_K@Z 61035100 f   defragment.obj
 0001:00034160       ?defragment@@YAXABVUnicodeString@col@@AAVIDefragProgress@@@Z 61035160 f   defragment.obj
 0001:00035550       ?defragment@@YAXABV?$ObjectArray@VUnicodeString@col@@@col@@AAULog@@@Z 61036550 f   defragment.obj
 0001:000357d0       ?slice@?$Array@UClusterChain@@@col@@QBE?AV12@II@Z 610367d0 f i defragment.obj
 0001:00035800       ?create@?$Array@UClusterChain@@@col@@CAPAUBuffer@12@PBUClusterChain@@I@Z 61036800 f i defragment.obj
 0001:00035880       ?resize@?$Array@UClusterChain@@@col@@AAEXI@Z 61036880 f i defragment.obj
 0001:00035880       ?resize@?$Array@UDataRun@FileInfo@@@col@@AAEXI@Z 61036880 f i ntfs_file.obj
 0001:000358e0       ?replace@?$ObjectArray@UListData@FarDialog@@@col@@QAEAAV12@IIPBUListData@FarDialog@@I@Z 610368e0 f i dlgapi.obj
 0001:000358e0       ?replace@?$ObjectArray@ULogRecord@@@col@@QAEAAV12@IIPBULogRecord@@I@Z 610368e0 f i defragment.obj
 0001:000358e0       ?replace@?$ObjectArray@UNameValue@@@col@@QAEAAV12@IIPBUNameValue@@I@Z 610368e0 f i filever.obj
 0001:00035ba0       ?alloc@?$Array@UClusterChain@@@col@@AAEPAUBuffer@12@I@Z 61036ba0 f i defragment.obj
 0001:00035ba0       ?alloc@?$Array@UPluginPanelItem@@@col@@AAEPAUBuffer@12@I@Z 61036ba0 f i file_panel.obj
 0001:00035ba0       ?alloc@?$Array@PAX@col@@AAEPAUBuffer@12@I@Z 61036ba0 f i content.obj
 0001:00035ba0       ?alloc@?$Array@UFAR_CHAR_INFO@@@col@@AAEPAUBuffer@12@I@Z 61036ba0 f i main.obj
 0001:00035ba0       ?alloc@?$Array@I@col@@AAEPAUBuffer@12@I@Z 61036ba0 f i content.obj
 0001:00035ba0       ?alloc@?$Array@UFarMenuItem@@@col@@AAEPAUBuffer@12@I@Z 61036ba0 f i dlgapi.obj
 0001:00035ba0       ?alloc@?$Array@PB_W@col@@AAEPAUBuffer@12@I@Z 61036ba0 f i file_panel.obj
 0001:00035ba0       ?alloc@?$Array@_K@col@@AAEPAUBuffer@12@I@Z 61036ba0 f i ntfs_file.obj
 0001:00035ba0       ?alloc@UnicodeString@col@@AAEPAUBuffer@12@I@Z 61036ba0 f i main.obj
 0001:00035ba0       ?alloc@?$Array@UFarDialogItem@@@col@@AAEPAUBuffer@12@I@Z 61036ba0 f i main.obj
 0001:00035ba0       ?alloc@?$Array@W4BufState@@@col@@AAEPAUBuffer@12@I@Z 61036ba0 f i content.obj
 0001:00035ba0       ?alloc@?$Array@PAVFilePanel@@@col@@AAEPAUBuffer@12@I@Z 61036ba0 f i file_panel.obj
 0001:00035ba0       ?alloc@?$Array@E@col@@AAEPAUBuffer@12@I@Z 61036ba0 f i content.obj
 0001:00035ba0       ?alloc@?$Array@UFarList@@@col@@AAEPAUBuffer@12@I@Z 61036ba0 f i dlgapi.obj
 0001:00035ba0       ?alloc@?$Array@UDataRun@FileInfo@@@col@@AAEPAUBuffer@12@I@Z 61036ba0 f i ntfs_file.obj
 0001:00035ba0       ?alloc@?$Array@UFarColor@@@col@@AAEPAUBuffer@12@I@Z 61036ba0 f i main.obj
 0001:00035ba0       ?alloc@?$Array@UFarListItem@@@col@@AAEPAUBuffer@12@I@Z 61036ba0 f i dlgapi.obj
 0001:00035ba0       ?alloc@AnsiString@col@@AAEPAUBuffer@12@I@Z 61036ba0 f i content.obj
 0001:00035be0       ??$_cmp@UClusterChain_CompareCnt@?GA@??defragment@@YAXABVUnicodeString@col@@AAVIDefragProgress@@@Z@UClusterChain@@@?$Array@UClusterChain@@@col@@CAHPBX0@Z 61036be0 f i defragment.obj
 0001:00035c50       ?add_file_records@FilePanel@@AAEXAAV?$list@UFileRecord@FilePanel@@V?$allocator@UFileRecord@FilePanel@@@std@@@std@@ABVFileInfo@@@Z 61036c50 f   mftindex.obj
 0001:000363e0       ?prepare_usn_journal@FilePanel@@AAEXXZ 610373e0 f   mftindex.obj
 0001:00036650       ?delete_usn_journal@FilePanel@@AAEXXZ 61037650 f   mftindex.obj
 0001:00036740       ?create_mft_index@FilePanel@@AAEXXZ 61037740 f   mftindex.obj
 0001:00036f20       ??_EProcessFileProgress@@UAEPAXI@Z 61037f20 f i  CIL library: CIL module
 0001:00036f20       ??_GCompressFilesProgress@@UAEPAXI@Z 61037f20 f i content.obj
 0001:00036f20       ??_EVolumeListProgress@?1??create_mft_index@FilePanel@@AAEXXZ@UAEPAXI@Z 61037f20 f i  CIL library: CIL module
 0001:00036f20       ??_EProgress@?3??store_mft_index@FilePanel@@AAEXXZ@UAEPAXI@Z 61037f20 f i  CIL library: CIL module
 0001:00036f20       ??_GFileListProgress@@UAEPAXI@Z 61037f20 f i file_panel.obj
 0001:00036f20       ??_EFileListProgress@@UAEPAXI@Z 61037f20 f i  CIL library: CIL module
 0001:00036f20       ??_GProgress@?3??store_mft_index@FilePanel@@AAEXXZ@UAEPAXI@Z 61037f20 f i mftindex.obj
 0001:00036f20       ??_GProcessFileProgress@@UAEPAXI@Z 61037f20 f i content.obj
 0001:00036f20       ??_GEstimationProgress@@UAEPAXI@Z 61037f20 f i content.obj
 0001:00036f20       ??_EProgress@?1??load_mft_index@FilePanel@@AAEXXZ@UAEPAXI@Z 61037f20 f i  CIL library: CIL module
 0001:00036f20       ??_ECompressFilesProgress@@UAEPAXI@Z 61037f20 f i  CIL library: CIL module
 0001:00036f20       ??_EProgressMonitor@@UAEPAXI@Z 61037f20 f i  CIL library: CIL module
 0001:00036f20       ??_GProgress@?1??load_mft_index@FilePanel@@AAEXXZ@UAEPAXI@Z 61037f20 f i mftindex.obj
 0001:00036f20       ??_EProgress@?1??update_mft_index_from_usn@FilePanel@@AAEXXZ@UAEPAXI@Z 61037f20 f i  CIL library: CIL module
 0001:00036f20       ??_GProgress@?1??update_mft_index_from_usn@FilePanel@@AAEXXZ@UAEPAXI@Z 61037f20 f i mftindex.obj
 0001:00036f20       ??_EEstimationProgress@@UAEPAXI@Z 61037f20 f i  CIL library: CIL module
 0001:00036f20       ??_GProgressMonitor@@UAEPAXI@Z 61037f20 f i utils.obj
 0001:00036f20       ??_GVolumeListProgress@?1??create_mft_index@FilePanel@@AAEXXZ@UAEPAXI@Z 61037f20 f i mftindex.obj
 0001:00036f40       ?update_mft_index_from_usn@FilePanel@@AAEXXZ 61037f40 f   mftindex.obj
 0001:00037bc0       ??1?$set@_KU?$less@_K@std@@V?$allocator@_K@2@@std@@QAE@XZ 61038bc0 f i mftindex.obj
 0001:00037c30       ?mft_scan_dir@FilePanel@@AAEX_KABVUnicodeString@col@@AAV?$list@UPanelItemData@FilePanel@@V?$allocator@UPanelItemData@FilePanel@@@std@@@std@@AAVFileListProgress@@@Z 61038c30 f   mftindex.obj
 0001:00038090       ?mft_find_root@FilePanel@@ABE_KXZ 61039090 f   mftindex.obj
 0001:00038150       ?mft_find_path@FilePanel@@AAE_KABVUnicodeString@col@@@Z 61039150 f   mftindex.obj
 0001:000383c0       ?open_volume@FilePanel@@AAEXABVUnicodeString@col@@@Z 610393c0 f   mftindex.obj
 0001:000384c0       ?toggle_mft_mode@FilePanel@@QAEXXZ 610394c0 f   mftindex.obj
 0001:00038700       ?reload_mft_all@FilePanel@@SAXXZ 61039700 f   mftindex.obj
 0001:00038740       ?store_mft_index@FilePanel@@AAEXXZ 61039740 f   mftindex.obj
 0001:000399c0       ?load_mft_index@FilePanel@@AAEXXZ 6103a9c0 f   mftindex.obj
 0001:0003a4f0       ?get_mft_index_cache_name@FilePanel@@AAE?AVUnicodeString@col@@XZ 6103b4f0 f   mftindex.obj
 0001:0003a720       ?mft_get_totals@FilePanel@@QAE?AUTotals@1@ABV?$ObjectArray@VUnicodeString@col@@@col@@@Z 6103b720 f   mftindex.obj
 0001:0003ae50       ??1?$map@_KIU?$less@_K@std@@V?$allocator@U?$pair@$$CB_KI@std@@@2@@std@@QAE@XZ 6103be50 f i mftindex.obj
 0001:0003aec0       ?extend@?$Array@E@col@@QAEAAV12@I@Z 6103bec0 f i mftindex.obj
 0001:0003af10       ?extend@?$ObjectArray@UFileRecord@FilePanel@@@col@@QAEAAV12@I@Z 6103bf10 f i mftindex.obj
 0001:0003af40       ??1?$list@UFileRecord@FilePanel@@V?$allocator@UFileRecord@FilePanel@@@std@@@std@@QAE@XZ 6103bf40 f i mftindex.obj
 0001:0003af60       ?resize@?$ObjectArray@UFileRecord@FilePanel@@@col@@AAEXI@Z 6103bf60 f i mftindex.obj
 0001:0003afc0       ?ref_resize@?$ObjectArray@UFileRecord@FilePanel@@@col@@AAEXI@Z 6103bfc0 f i mftindex.obj
 0001:0003b020       ??1?$_Tree_val@V?$_Tmap_traits@V?$basic_string@_WU?$char_traits@_W@std@@V?$allocator@_W@2@@std@@V12@U?$less@V?$basic_string@_WU?$char_traits@_W@std@@V?$allocator@_W@2@@std@@@2@V?$allocator@U?$pair@$$CBV?$basic_string@_WU?$char_traits@_W@std@@V?$allocator@_W@2@@std@@V12@@std@@@2@$0A@@std@@@std@@QAE@XZ 6103c020 f i volume_list.obj
 0001:0003b020       ??1?$_Tree_val@V?$_Tmap_traits@_KIU?$less@_K@std@@V?$allocator@U?$pair@$$CB_KI@std@@@2@$0A@@std@@@std@@QAE@XZ 6103c020 f i mftindex.obj
 0001:0003b020       ??1?$_Tree_val@V?$_Tset_traits@_KU?$less@_K@std@@V?$allocator@_K@2@$0A@@std@@@std@@QAE@XZ 6103c020 f i mftindex.obj
 0001:0003b040       ?clear@?$list@UFileRecord@FilePanel@@V?$allocator@UFileRecord@FilePanel@@@std@@@std@@QAEXXZ 6103c040 f i mftindex.obj
 0001:0003b090       ?_Buynode@?$_List_val@UFileRecord@FilePanel@@V?$allocator@UFileRecord@FilePanel@@@std@@@std@@QAEPAU_Node@?$_List_nod@UFileRecord@FilePanel@@V?$allocator@UFileRecord@FilePanel@@@std@@@2@PAU342@0ABUFileRecord@FilePanel@@@Z 6103c090 f i mftindex.obj
 0001:0003b100       ?erase@?$_Tree@V?$_Tset_traits@_KU?$less@_K@std@@V?$allocator@_K@2@$0A@@std@@@std@@QAE?AV?$_Tree_const_iterator@V?$_Tree_val@V?$_Tset_traits@_KU?$less@_K@std@@V?$allocator@_K@2@$0A@@std@@@std@@@2@V32@0@Z 6103c100 f i mftindex.obj
 0001:0003b1b0       ?_Eqrange@?$_Tree@V?$_Tset_traits@_KU?$less@_K@std@@V?$allocator@_K@2@$0A@@std@@@std@@IBE?AU?$pair@V?$_Tree_const_iterator@V?$_Tree_val@V?$_Tset_traits@_KU?$less@_K@std@@V?$allocator@_K@2@$0A@@std@@@std@@@std@@V12@@2@AB_K@Z 6103c1b0 f i mftindex.obj
 0001:0003b260       ?erase@?$_Tree@V?$_Tmap_traits@_KIU?$less@_K@std@@V?$allocator@U?$pair@$$CB_KI@std@@@2@$0A@@std@@@std@@QAE?AV?$_Tree_iterator@V?$_Tree_val@V?$_Tmap_traits@_KIU?$less@_K@std@@V?$allocator@U?$pair@$$CB_KI@std@@@2@$0A@@std@@@std@@@2@V?$_Tree_const_iterator@V?$_Tree_val@V?$_Tmap_traits@_KIU?$less@_K@std@@V?$allocator@U?$pair@$$CB_KI@std@@@2@$0A@@std@@@std@@@2@0@Z 6103c260 f i mftindex.obj
 0001:0003b310       ?_Eqrange@?$_Tree@V?$_Tmap_traits@_KIU?$less@_K@std@@V?$allocator@U?$pair@$$CB_KI@std@@@2@$0A@@std@@@std@@IBE?AU?$pair@V?$_Tree_const_iterator@V?$_Tree_val@V?$_Tmap_traits@_KIU?$less@_K@std@@V?$allocator@U?$pair@$$CB_KI@std@@@2@$0A@@std@@@std@@@std@@V12@@2@AB_K@Z 6103c310 f i mftindex.obj
 0001:0003b3c0       ?erase@?$_Tree@V?$_Tset_traits@_KU?$less@_K@std@@V?$allocator@_K@2@$0A@@std@@@std@@QAE?AV?$_Tree_const_iterator@V?$_Tree_val@V?$_Tset_traits@_KU?$less@_K@std@@V?$allocator@_K@2@$0A@@std@@@std@@@2@V32@@Z 6103c3c0 f i mftindex.obj
 0001:0003b640       ?clear@?$_Tree@V?$_Tset_traits@_KU?$less@_K@std@@V?$allocator@_K@2@$0A@@std@@@std@@QAEXXZ 6103c640 f i mftindex.obj
 0001:0003b690       ?_Min@?$_Tree_val@V?$_Tset_traits@_KU?$less@_K@std@@V?$allocator@_K@2@$0A@@std@@@std@@SAPAU_Node@?$_Tree_nod@V?$_Tset_traits@_KU?$less@_K@std@@V?$allocator@_K@2@$0A@@std@@@2@PAU342@@Z 6103c690 f i mftindex.obj
 0001:0003b6b0       ?erase@?$_Tree@V?$_Tmap_traits@_KIU?$less@_K@std@@V?$allocator@U?$pair@$$CB_KI@std@@@2@$0A@@std@@@std@@QAE?AV?$_Tree_iterator@V?$_Tree_val@V?$_Tmap_traits@_KIU?$less@_K@std@@V?$allocator@U?$pair@$$CB_KI@std@@@2@$0A@@std@@@std@@@2@V?$_Tree_const_iterator@V?$_Tree_val@V?$_Tmap_traits@_KIU?$less@_K@std@@V?$allocator@U?$pair@$$CB_KI@std@@@2@$0A@@std@@@std@@@2@@Z 6103c6b0 f i mftindex.obj
 0001:0003b930       ?clear@?$_Tree@V?$_Tmap_traits@_KIU?$less@_K@std@@V?$allocator@U?$pair@$$CB_KI@std@@@2@$0A@@std@@@std@@QAEXXZ 6103c930 f i mftindex.obj
 0001:0003b980       ?_Min@?$_Tree_val@V?$_Tmap_traits@_KIU?$less@_K@std@@V?$allocator@U?$pair@$$CB_KI@std@@@2@$0A@@std@@@std@@SAPAU_Node@?$_Tree_nod@V?$_Tmap_traits@_KIU?$less@_K@std@@V?$allocator@U?$pair@$$CB_KI@std@@@2@$0A@@std@@@2@PAU342@@Z 6103c980 f i mftindex.obj
 0001:0003b9a0       ?_Erase@?$_Tree@V?$_Tset_traits@_KU?$less@_K@std@@V?$allocator@_K@2@$0A@@std@@@std@@IAEXPAU_Node@?$_Tree_nod@V?$_Tset_traits@_KU?$less@_K@std@@V?$allocator@_K@2@$0A@@std@@@2@@Z 6103c9a0 f i mftindex.obj
 0001:0003b9e0       ?_Lrotate@?$_Tree@V?$_Tset_traits@_KU?$less@_K@std@@V?$allocator@_K@2@$0A@@std@@@std@@IAEXPAU_Node@?$_Tree_nod@V?$_Tset_traits@_KU?$less@_K@std@@V?$allocator@_K@2@$0A@@std@@@2@@Z 6103c9e0 f i mftindex.obj
 0001:0003ba30       ?_Rrotate@?$_Tree@V?$_Tset_traits@_KU?$less@_K@std@@V?$allocator@_K@2@$0A@@std@@@std@@IAEXPAU_Node@?$_Tree_nod@V?$_Tset_traits@_KU?$less@_K@std@@V?$allocator@_K@2@$0A@@std@@@2@@Z 6103ca30 f i mftindex.obj
 0001:0003ba80       ?_Max@?$_Tree_val@V?$_Tset_traits@_KU?$less@_K@std@@V?$allocator@_K@2@$0A@@std@@@std@@SAPAU_Node@?$_Tree_nod@V?$_Tset_traits@_KU?$less@_K@std@@V?$allocator@_K@2@$0A@@std@@@2@PAU342@@Z 6103ca80 f i mftindex.obj
 0001:0003baa0       ?_Erase@?$_Tree@V?$_Tmap_traits@_KIU?$less@_K@std@@V?$allocator@U?$pair@$$CB_KI@std@@@2@$0A@@std@@@std@@IAEXPAU_Node@?$_Tree_nod@V?$_Tmap_traits@_KIU?$less@_K@std@@V?$allocator@U?$pair@$$CB_KI@std@@@2@$0A@@std@@@2@@Z 6103caa0 f i mftindex.obj
 0001:0003bae0       ?_Lrotate@?$_Tree@V?$_Tmap_traits@_KIU?$less@_K@std@@V?$allocator@U?$pair@$$CB_KI@std@@@2@$0A@@std@@@std@@IAEXPAU_Node@?$_Tree_nod@V?$_Tmap_traits@_KIU?$less@_K@std@@V?$allocator@U?$pair@$$CB_KI@std@@@2@$0A@@std@@@2@@Z 6103cae0 f i mftindex.obj
 0001:0003bb30       ?_Rrotate@?$_Tree@V?$_Tmap_traits@_KIU?$less@_K@std@@V?$allocator@U?$pair@$$CB_KI@std@@@2@$0A@@std@@@std@@IAEXPAU_Node@?$_Tree_nod@V?$_Tmap_traits@_KIU?$less@_K@std@@V?$allocator@U?$pair@$$CB_KI@std@@@2@$0A@@std@@@2@@Z 6103cb30 f i mftindex.obj
 0001:0003bb80       ?_Max@?$_Tree_val@V?$_Tmap_traits@_KIU?$less@_K@std@@V?$allocator@U?$pair@$$CB_KI@std@@@2@$0A@@std@@@std@@SAPAU_Node@?$_Tree_nod@V?$_Tmap_traits@_KIU?$less@_K@std@@V?$allocator@U?$pair@$$CB_KI@std@@@2@$0A@@std@@@2@PAU342@@Z 6103cb80 f i mftindex.obj
 0001:0003bba0       ??$swap@UFileRecord@FilePanel@@@std@@YAXAAUFileRecord@FilePanel@@0@Z 6103cba0 f i mftindex.obj
 0001:0003bc00       ??4FileRecord@FilePanel@@QAEAAU01@ABU01@@Z 6103cc00 f i mftindex.obj
 0001:0003bcb0       ?_Linsert@?$_Tree@V?$_Tset_traits@_KU?$less@_K@std@@V?$allocator@_K@2@$0A@@std@@@std@@QAE?AU?$pair@V?$_Tree_const_iterator@V?$_Tree_val@V?$_Tset_traits@_KU?$less@_K@std@@V?$allocator@_K@2@$0A@@std@@@std@@@std@@_N@2@PAU_Node@?$_Tree_nod@V?$_Tset_traits@_KU?$less@_K@std@@V?$allocator@_K@2@$0A@@std@@@2@_N@Z 6103ccb0 f i mftindex.obj
 0001:0003bdb0       ?_Linsert@?$_Tree@V?$_Tmap_traits@_KIU?$less@_K@std@@V?$allocator@U?$pair@$$CB_KI@std@@@2@$0A@@std@@@std@@QAE?AU?$pair@V?$_Tree_iterator@V?$_Tree_val@V?$_Tmap_traits@_KIU?$less@_K@std@@V?$allocator@U?$pair@$$CB_KI@std@@@2@$0A@@std@@@std@@@std@@_N@2@PAU_Node@?$_Tree_nod@V?$_Tmap_traits@_KIU?$less@_K@std@@V?$allocator@U?$pair@$$CB_KI@std@@@2@$0A@@std@@@2@_N@Z 6103cdb0 f i mftindex.obj
 0001:0003beb0       ?_Insert@?$_Tree@V?$_Tset_traits@_KU?$less@_K@std@@V?$allocator@_K@2@$0A@@std@@@std@@IAE?AV?$_Tree_const_iterator@V?$_Tree_val@V?$_Tset_traits@_KU?$less@_K@std@@V?$allocator@_K@2@$0A@@std@@@std@@@2@_NPAU_Node@?$_Tree_nod@V?$_Tset_traits@_KU?$less@_K@std@@V?$allocator@_K@2@$0A@@std@@@2@1@Z 6103ceb0 f i mftindex.obj
 0001:0003c0d0       ?_Insert@?$_Tree@V?$_Tmap_traits@_KIU?$less@_K@std@@V?$allocator@U?$pair@$$CB_KI@std@@@2@$0A@@std@@@std@@IAE?AV?$_Tree_iterator@V?$_Tree_val@V?$_Tmap_traits@_KIU?$less@_K@std@@V?$allocator@U?$pair@$$CB_KI@std@@@2@$0A@@std@@@std@@@2@_NPAU_Node@?$_Tree_nod@V?$_Tmap_traits@_KIU?$less@_K@std@@V?$allocator@U?$pair@$$CB_KI@std@@@2@$0A@@std@@@2@1@Z 6103d0d0 f i mftindex.obj
 0001:0003c2f0       ??F?$_Tree_unchecked_const_iterator@V?$_Tree_val@V?$_Tset_traits@_KU?$less@_K@std@@V?$allocator@_K@2@$0A@@std@@@std@@U_Iterator_base0@2@@std@@QAEAAV01@XZ 6103d2f0 f i mftindex.obj
 0001:0003c350       ??F?$_Tree_unchecked_const_iterator@V?$_Tree_val@V?$_Tmap_traits@_KIU?$less@_K@std@@V?$allocator@U?$pair@$$CB_KI@std@@@2@$0A@@std@@@std@@U_Iterator_base0@2@@std@@QAEAAV01@XZ 6103d350 f i mftindex.obj
 0001:0003c3b0       ??$_cmp@UFileRecordCompare@FilePanel@@UFileRecord@2@@?$ObjectArray@UFileRecord@FilePanel@@@col@@CAHPBX0@Z 6103d3b0 f i mftindex.obj
 0001:0003c410       ??$_cmp@UParentFileIndexCompare@?1??mft_scan_dir@FilePanel@@AAEX_KABVUnicodeString@col@@AAV?$list@UPanelItemData@FilePanel@@V?$allocator@UPanelItemData@FilePanel@@@std@@@std@@AAVFileListProgress@@@Z@_K@?$ObjectArray@UFileRecord@FilePanel@@@col@@CAHPBX0@Z 6103d410 f i mftindex.obj
 0001:0003c450       ??$_Buynode@$$CB_K@?$_Tree_val@V?$_Tset_traits@_KU?$less@_K@std@@V?$allocator@_K@2@$0A@@std@@@std@@QAEPAU_Node@?$_Tree_nod@V?$_Tset_traits@_KU?$less@_K@std@@V?$allocator@_K@2@$0A@@std@@@1@$$QB_K@Z 6103d450 f i mftindex.obj
 0001:0003c450       ??$_Buynode@_K@?$_Tree_val@V?$_Tset_traits@_KU?$less@_K@std@@V?$allocator@_K@2@$0A@@std@@@std@@QAEPAU_Node@?$_Tree_nod@V?$_Tset_traits@_KU?$less@_K@std@@V?$allocator@_K@2@$0A@@std@@@1@$$QA_K@Z 6103d450 f i mftindex.obj
 0001:0003c4c0       ??$_Buynode@U?$pair@_KI@std@@@?$_Tree_val@V?$_Tmap_traits@_KIU?$less@_K@std@@V?$allocator@U?$pair@$$CB_KI@std@@@2@$0A@@std@@@std@@QAEPAU_Node@?$_Tree_nod@V?$_Tmap_traits@_KIU?$less@_K@std@@V?$allocator@U?$pair@$$CB_KI@std@@@2@$0A@@std@@@1@$$QAU?$pair@_KI@1@@Z 6103d4c0 f i mftindex.obj
 0001:0003c540       ??$_Distance2@V?$_Tree_const_iterator@V?$_Tree_val@V?$_Tset_traits@_KU?$less@_K@std@@V?$allocator@_K@2@$0A@@std@@@std@@@std@@I@std@@YAXV?$_Tree_const_iterator@V?$_Tree_val@V?$_Tset_traits@_KU?$less@_K@std@@V?$allocator@_K@2@$0A@@std@@@std@@@0@0AAIUbidirectional_iterator_tag@0@@Z 6103d540 f i mftindex.obj
 0001:0003c5b0       ??$_Distance2@V?$_Tree_const_iterator@V?$_Tree_val@V?$_Tmap_traits@_KIU?$less@_K@std@@V?$allocator@U?$pair@$$CB_KI@std@@@2@$0A@@std@@@std@@@std@@I@std@@YAXV?$_Tree_const_iterator@V?$_Tree_val@V?$_Tmap_traits@_KIU?$less@_K@std@@V?$allocator@U?$pair@$$CB_KI@std@@@2@$0A@@std@@@std@@@0@0AAIUbidirectional_iterator_tag@0@@Z 6103d5b0 f i mftindex.obj
 0001:0003c620       ?get_version_info@@YA?AUVersionData@@ABVUnicodeString@col@@@Z 6103d620 f   filever.obj
 0001:0003ea40       ??1VersionData@@QAE@XZ     6103fa40 f i filever.obj
 0001:0003ea70       ??1ListData@FarDialog@@QAE@XZ 6103fa70 f i content.obj
 0001:0003ea70       ??1PanelItemData@FilePanel@@QAE@XZ 6103fa70 f i file_panel.obj
 0001:0003ea70       ??1CertificateInfo@@QAE@XZ 6103fa70 f i filever.obj
 0001:0003ea70       ??1LogRecord@@QAE@XZ       6103fa70 f i main.obj
 0001:0003ea70       ??1NameValue@@QAE@XZ       6103fa70 f i filever.obj
 0001:0003eaa0       ??1VarVerInfo@@QAE@XZ      6103faa0 f i filever.obj
 0001:0003eab0       ?get_certificate_info@@YA?AUCertificateInfo@@PAXPBU_CMSG_SIGNER_INFO@@@Z 6103fab0 f   filever.obj
 0001:0003ecc0       ?get_signature_info@@YA?AV?$ObjectArray@UNameValue@@@col@@ABVUnicodeString@2@@Z 6103fcc0 f   filever.obj
 0001:0003fb50       ?verify_signature@@YAJABVUnicodeString@col@@@Z 61040b50 f   filever.obj
 0001:0003fc30       ?get_prop_list@@YA?AV?$ObjectArray@UNameValue@@@col@@ABVUnicodeString@2@@Z 61040c30 f   filever.obj
 0001:00040030       ?file_version_dialog_proc@@YGHPAXHH0@Z 61041030 f   filever.obj
 0001:00040500       ?show_file_version_dialog@@YAXABVUnicodeString@col@@ABUVersionData@@@Z 61041500 f   filever.obj
 0001:00041380       ?plugin_show_file_version@@YAXABVUnicodeString@col@@@Z 61042380 f   filever.obj
 0001:000415e0       ??1?$ObjectArray@UVarVerInfo@@@col@@QAE@XZ 610425e0 f i filever.obj
 0001:000415f0       ??1?$_com_ptr_t@V?$_com_IIID@UIPropertyStorage@@$1?_GUID_00000138_0000_0000_c000_000000000046@@3U__s_GUID@@B@@@@QAE@XZ 610425f0 f i filever.obj
 0001:000415f0       ??1?$_com_ptr_t@V?$_com_IIID@UIPropertySetStorage@@$1?_GUID_0000013a_0000_0000_c000_000000000046@@3U__s_GUID@@B@@@@QAE@XZ 610425f0 f i filever.obj
 0001:00041610       ?clean@?$ObjectArray@UVarVerInfo@@@col@@AAEXXZ 61042610 f i filever.obj
 0001:00041660       ?ref_alloc@?$ObjectArray@UNameValue@@@col@@AAEPAUBuffer@12@I@Z 61042660 f i filever.obj
 0001:00041660       ?ref_alloc@?$ObjectArray@UVarVerInfo@@@col@@AAEPAUBuffer@12@I@Z 61042660 f i filever.obj
 0001:00041660       ?ref_alloc@?$ObjectArray@ULogRecord@@@col@@AAEPAUBuffer@12@I@Z 61042660 f i defragment.obj
 0001:00041660       ?ref_alloc@?$ObjectArray@UListData@FarDialog@@@col@@AAEPAUBuffer@12@I@Z 61042660 f i dlgapi.obj
 0001:00041660       ?ref_alloc@?$Array@_K@col@@AAEPAUBuffer@12@I@Z 61042660 f i ntfs_file.obj
 0001:000416d0       ?replace@?$ObjectArray@UVarVerInfo@@@col@@QAEAAV12@IIPBUVarVerInfo@@I@Z 610426d0 f i filever.obj
 0001:00041990       ??YUnicodeString@col@@QAEAAV01@PB_W@Z 61042990 f i filever.obj
 0001:00041990       ?add@UnicodeString@col@@QAEAAV12@PB_W@Z 61042990 f i main.obj
 0001:000419c0       ??1CriticalSection@@UAE@XZ 610429c0 f i compress_files.obj
 0001:000419e0       ??_GCriticalSection@@UAEPAXI@Z 610429e0 f i compress_files.obj
 0001:000419e0       ??_ECriticalSection@@UAEPAXI@Z 610429e0 f i  CIL library: CIL module
 0001:00041a10       ??0CriticalSectionLock@@QAE@AAVCriticalSection@@@Z 61042a10 f i compress_files.obj
 0001:00041a40       ??1CriticalSectionLock@@QAE@XZ 61042a40 f i compress_files.obj
 0001:00041a60       ?init_comp_api@@YAXXZ      61042a60 f   compress_files.obj
 0001:00041b60       ?get_comp_work_buffer_size@@YAIXZ 61042b60 f   compress_files.obj
 0001:00041c10       ?get_cluster_size@@YAIABVUnicodeString@col@@@Z 61042c10 f   compress_files.obj
 0001:00041cc0       ?get_time@@YA_KXZ          61042cc0 f   compress_files.obj
 0001:00041d60       ?get_time_freq@@YA_KXZ     61042d60 f   compress_files.obj
 0001:00041e00       ??0Buffer@@QAE@XZ          61042e00 f i compress_files.obj
 0001:00041e20       ??1Buffer@@QAE@XZ          61042e20 f i compress_files.obj
 0001:00041e60       ?allocate@Buffer@@QAEXIII@Z 61042e60 f i compress_files.obj
 0001:00041f20       ??0BufferArray@@QAE@II@Z   61042f20 f i compress_files.obj
 0001:00042020       ??1BufferArray@@QAE@XZ     61043020 f i compress_files.obj
 0001:00042050       ??_EBuffer@@QAEPAXI@Z      61043050 f i compress_files.obj
 0001:00042080       ?update_defrag_ui@CompressFiles@@UAEX_N@Z 61043080 f i compress_files.obj
 0001:000420a0       ??0CompressFiles@@QAE@ABUCompressFilesParams@@AAULog@@II@Z 610430a0 f i compress_files.obj
 0001:000421f0       ??_ECompressFiles@@UAEPAXI@Z 610431f0 f i  CIL library: CIL module
 0001:000421f0       ??_GCompressFiles@@UAEPAXI@Z 610431f0 f i compress_files.obj
 0001:00042210       ??1CompressFiles@@UAE@XZ   61043210 f i compress_files.obj
 0001:00042300       ?stop_threads@WorkerThreads@@AAEXXZ 61043300 f i compress_files.obj
 0001:00042370       ?thread_proc@WorkerThreads@@CGIPAX@Z 61043370 f i compress_files.obj
 0001:000423e0       ??0WorkerThreads@@QAE@AAUCompressFiles@@@Z 610433e0 f i compress_files.obj
 0001:000425c0       ??1WorkerThreads@@QAE@XZ   610435c0 f i compress_files.obj
 0001:00042620       ?do_update_ui@CompressFiles@@UAEXXZ 61043620 f   compress_files.obj
 0001:00043a80       ?estimate_file_size@CompressFiles@@QAEXABUFindData@@@Z 61044a80 f   compress_files.obj
 0001:00043b00       ?estimate_directory_size@CompressFiles@@QAEXABVUnicodeString@col@@@Z 61044b00 f   compress_files.obj
 0001:00043cf0       ?run_compression_thread@CompressFiles@@QAEXXZ 61044cf0 f   compress_files.obj
 0001:00043fc0       ??0ReadOnlyFileAccess@@QAE@ABVUnicodeString@col@@@Z 61044fc0 f i compress_files.obj
 0001:00044110       ??1ReadOnlyFileAccess@@QAE@XZ 61045110 f i compress_files.obj
 0001:000441e0       ?compress_file@CompressFiles@@QAEXABVUnicodeString@col@@ABUFindData@@@Z 610451e0 f   compress_files.obj
 0001:00044950       ?compress_directory@CompressFiles@@QAEXABVUnicodeString@col@@@Z 61045950 f   compress_files.obj
 0001:00044b80       ?process@CompressFiles@@QAEXABV?$ObjectArray@VUnicodeString@col@@@col@@@Z 61045b80 f   compress_files.obj
 0001:00045140       ?plugin_compress_files@@YAXABV?$ObjectArray@VUnicodeString@col@@@col@@ABUCompressFilesParams@@AAULog@@@Z 61046140 f   compress_files.obj
 0001:000451f0       ?dialog_proc@CompressFilesDialog@@CGHPAXHH0@Z 610461f0 f i compress_files.obj
 0001:00045370       ?show@CompressFilesDialog@@QAE_NXZ 61046370 f i compress_files.obj
 0001:000455d0       ?show_compress_files_dialog@@YA_NAAUCompressFilesParams@@@Z 610465d0 f   compress_files.obj
 0001:000456e0       ??1CompressFilesDialog@@QAE@XZ 610466e0 f i compress_files.obj
 0001:000456e0       ??1FilePanelModeDialog@@QAE@XZ 610466e0 f i file_panel.obj
 0001:000456f0       ??1?$vector@PAXV?$allocator@PAX@std@@@std@@QAE@XZ 610466f0 f i compress_files.obj
 0001:00045720       ?reserve@?$vector@PAXV?$allocator@PAX@std@@@std@@QAEXI@Z 61046720 f i compress_files.obj
 0001:000457a0       ?allocate@?$allocator@PAX@std@@QAEPAPAXI@Z 610467a0 f i compress_files.obj
 0001:00045800       ??$_Insert@V?$_Vector_iterator@V?$_Vector_val@PAXV?$allocator@PAX@std@@@std@@@std@@@?$vector@PAXV?$allocator@PAX@std@@@std@@QAEXV?$_Vector_const_iterator@V?$_Vector_val@PAXV?$allocator@PAX@std@@@std@@@1@V?$_Vector_iterator@V?$_Vector_val@PAXV?$allocator@PAX@std@@@std@@@1@1Uforward_iterator_tag@1@@Z 61046800 f i compress_files.obj
 0001:000459b0       ??$_Uninit_copy@V?$_Vector_iterator@V?$_Vector_val@PAXV?$allocator@PAX@std@@@std@@@std@@PAPAXV?$allocator@PAX@2@@std@@YAPAPAXV?$_Vector_iterator@V?$_Vector_val@PAXV?$allocator@PAX@std@@@std@@@0@0PAPAXAAV?$allocator@PAX@0@U_Nonscalar_ptr_iterator_tag@0@@Z 610469b0 f i compress_files.obj
 0001:000459e0       ??$_Rotate@PAPAXHPAX@std@@YAXPAPAX00PAH0@Z 610469e0 f i compress_files.obj
 0001:00045a70       ??1VolumeEnum@@QAE@XZ      61046a70 f i volume_list.obj
 0001:00045a90       ?next@VolumeEnum@@QAE_NXZ  61046a90 f i volume_list.obj
 0001:00045bb0       ?get_volume_path@VolumeEnum@@QBE?AV?$basic_string@_WU?$char_traits@_W@std@@V?$allocator@_W@2@@std@@XZ 61046bb0 f i volume_list.obj
 0001:00045c10       ?next@LogicalDrivesEnum@@QAE_NXZ 61046c10 f i volume_list.obj
 0001:00045d60       ?get_drive@LogicalDrivesEnum@@QBE?AV?$basic_string@_WU?$char_traits@_W@std@@V?$allocator@_W@2@@std@@XZ 61046d60 f i volume_list.obj
 0001:00045dc0       ?get_volume_mount_points@@YA?AV?$list@V?$basic_string@_WU?$char_traits@_W@std@@V?$allocator@_W@2@@std@@V?$allocator@V?$basic_string@_WU?$char_traits@_W@std@@V?$allocator@_W@2@@std@@@2@@std@@ABV?$basic_string@_WU?$char_traits@_W@std@@V?$allocator@_W@2@@2@@Z 61046dc0 f   volume_list.obj
 0001:000460e0       ?get_device_path@@YA_NABV?$basic_string@_WU?$char_traits@_W@std@@V?$allocator@_W@2@@std@@AAV12@@Z 610470e0 f   volume_list.obj
 0001:00046340       ?get_volume_guid_path@@YA_NABV?$basic_string@_WU?$char_traits@_W@std@@V?$allocator@_W@2@@std@@AAV12@@Z 61047340 f   volume_list.obj
 0001:00046450       ?enum_volumes@@YA?AV?$list@UVolumeItem@@V?$allocator@UVolumeItem@@@std@@@std@@XZ 61047450 f   volume_list.obj
 0001:00046c00       ??1LogicalDrivesEnum@@QAE@XZ 61047c00 f i volume_list.obj
 0001:00046c20       ??1?$map@V?$basic_string@_WU?$char_traits@_W@std@@V?$allocator@_W@2@@std@@V12@U?$less@V?$basic_string@_WU?$char_traits@_W@std@@V?$allocator@_W@2@@std@@@2@V?$allocator@U?$pair@$$CBV?$basic_string@_WU?$char_traits@_W@std@@V?$allocator@_W@2@@std@@V12@@std@@@2@@std@@QAE@XZ 61047c20 f i volume_list.obj
 0001:00046c90       ??1VolumeItem@@QAE@XZ      61047c90 f i volume_list.obj
 0001:00046d10       ?create_volume_items@FilePanel@@AAE?AUPluginItemList@@XZ 61047d10 f   volume_list.obj
 0001:00047430       ??1?$unique_ptr@$$BY0A@_WU?$default_delete@$$BY0A@_W@std@@@std@@QAE@XZ 61048430 f i volume_list.obj
 0001:00047440       ??1?$list@V?$basic_string@_WU?$char_traits@_W@std@@V?$allocator@_W@2@@std@@V?$allocator@V?$basic_string@_WU?$char_traits@_W@std@@V?$allocator@_W@2@@std@@@2@@std@@QAE@XZ 61048440 f i volume_list.obj
 0001:00047460       ?erase@?$list@V?$basic_string@_WU?$char_traits@_W@std@@V?$allocator@_W@2@@std@@V?$allocator@V?$basic_string@_WU?$char_traits@_W@std@@V?$allocator@_W@2@@std@@@2@@std@@QAE?AV?$_List_iterator@V?$_List_val@V?$basic_string@_WU?$char_traits@_W@std@@V?$allocator@_W@2@@std@@V?$allocator@V?$basic_string@_WU?$char_traits@_W@std@@V?$allocator@_W@2@@std@@@2@@std@@@2@V?$_List_const_iterator@V?$_List_val@V?$basic_string@_WU?$char_traits@_W@std@@V?$allocator@_W@2@@std@@V?$allocator@V?$basic_string@_WU?$char_traits@_W@std@@V?$allocator@_W@2@@std@@@2@@std@@@2@@Z 61048460 f i volume_list.obj
 0001:000474c0       ??1?$list@UVolumeItem@@V?$allocator@UVolumeItem@@@std@@@std@@QAE@XZ 610484c0 f i volume_list.obj
 0001:00047510       ??A?$map@V?$basic_string@_WU?$char_traits@_W@std@@V?$allocator@_W@2@@std@@V12@U?$less@V?$basic_string@_WU?$char_traits@_W@std@@V?$allocator@_W@2@@std@@@2@V?$allocator@U?$pair@$$CBV?$basic_string@_WU?$char_traits@_W@std@@V?$allocator@_W@2@@std@@V12@@std@@@2@@std@@QAEAAV?$basic_string@_WU?$char_traits@_W@std@@V?$allocator@_W@2@@1@ABV21@@Z 61048510 f i volume_list.obj
 0001:000476a0       ??1?$pair@$$CBV?$basic_string@_WU?$char_traits@_W@std@@V?$allocator@_W@2@@std@@V12@@std@@QAE@XZ 610486a0 f i volume_list.obj
 0001:000476a0       ??$_Dest_val@V?$allocator@U?$pair@$$CBV?$basic_string@_WU?$char_traits@_W@std@@V?$allocator@_W@2@@std@@V12@@std@@@std@@U?$pair@$$CBV?$basic_string@_WU?$char_traits@_W@std@@V?$allocator@_W@2@@std@@V12@@2@@std@@YAXAAV?$allocator@U?$pair@$$CBV?$basic_string@_WU?$char_traits@_W@std@@V?$allocator@_W@2@@std@@V12@@std@@@0@PAU?$pair@$$CBV?$basic_string@_WU?$char_traits@_W@std@@V?$allocator@_W@2@@std@@V12@@0@@Z 610486a0 f i volume_list.obj
 0001:000476f0       ??1?$_List_val@V?$basic_string@_WU?$char_traits@_W@std@@V?$allocator@_W@2@@std@@V?$allocator@V?$basic_string@_WU?$char_traits@_W@std@@V?$allocator@_W@2@@std@@@2@@std@@QAE@XZ 610486f0 f i volume_list.obj
 0001:00047700       ??R?$less@V?$basic_string@_WU?$char_traits@_W@std@@V?$allocator@_W@2@@std@@@std@@QBE_NABV?$basic_string@_WU?$char_traits@_W@std@@V?$allocator@_W@2@@1@0@Z 61048700 f i volume_list.obj
 0001:00047730       ?clear@?$list@V?$basic_string@_WU?$char_traits@_W@std@@V?$allocator@_W@2@@std@@V?$allocator@V?$basic_string@_WU?$char_traits@_W@std@@V?$allocator@_W@2@@std@@@2@@std@@QAEXXZ 61048730 f i volume_list.obj
 0001:00047790       ?_Buynode@?$_List_val@UVolumeItem@@V?$allocator@UVolumeItem@@@std@@@std@@QAEPAU_Node@?$_List_nod@UVolumeItem@@V?$allocator@UVolumeItem@@@std@@@2@PAU342@0ABUVolumeItem@@@Z 61048790 f i volume_list.obj
 0001:00047850       ?erase@?$_Tree@V?$_Tmap_traits@V?$basic_string@_WU?$char_traits@_W@std@@V?$allocator@_W@2@@std@@V12@U?$less@V?$basic_string@_WU?$char_traits@_W@std@@V?$allocator@_W@2@@std@@@2@V?$allocator@U?$pair@$$CBV?$basic_string@_WU?$char_traits@_W@std@@V?$allocator@_W@2@@std@@V12@@std@@@2@$0A@@std@@@std@@QAE?AV?$_Tree_iterator@V?$_Tree_val@V?$_Tmap_traits@V?$basic_string@_WU?$char_traits@_W@std@@V?$allocator@_W@2@@std@@V12@U?$less@V?$basic_string@_WU?$char_traits@_W@std@@V?$allocator@_W@2@@std@@@2@V?$allocator@U?$pair@$$CBV?$basic_string@_WU?$char_traits@_W@std@@V?$allocator@_W@2@@std@@V12@@std@@@2@$0A@@std@@@std@@@2@V?$_Tree_const_iterator@V?$_Tree_val@V?$_Tmap_traits@V?$basic_string@_WU?$char_traits@_W@std@@V?$allocator@_W@2@@std@@V12@U?$less@V?$basic_string@_WU?$char_traits@_W@std@@V?$allocator@_W@2@@std@@@2@V?$allocator@U?$pair@$$CBV?$basic_string@_WU?$char_traits@_W@std@@V?$allocator@_W@2@@std@@V12@@std@@@2@$0A@@std@@@std@@@2@0@Z 61048850 f i volume_list.obj
 0001:00047920       ?_Lbound@?$_Tree@V?$_Tmap_traits@V?$basic_string@_WU?$char_traits@_W@std@@V?$allocator@_W@2@@std@@V12@U?$less@V?$basic_string@_WU?$char_traits@_W@std@@V?$allocator@_W@2@@std@@@2@V?$allocator@U?$pair@$$CBV?$basic_string@_WU?$char_traits@_W@std@@V?$allocator@_W@2@@std@@V12@@std@@@2@$0A@@std@@@std@@IAEPAU_Node@?$_Tree_nod@V?$_Tmap_traits@V?$basic_string@_WU?$char_traits@_W@std@@V?$allocator@_W@2@@std@@V12@U?$less@V?$basic_string@_WU?$char_traits@_W@std@@V?$allocator@_W@2@@std@@@2@V?$allocator@U?$pair@$$CBV?$basic_string@_WU?$char_traits@_W@std@@V?$allocator@_W@2@@std@@V12@@std@@@2@$0A@@std@@@2@ABV?$basic_string@_WU?$char_traits@_W@std@@V?$allocator@_W@2@@2@@Z 61048920 f i volume_list.obj
 0001:000479e0       ?_Splice_same@?$list@V?$basic_string@_WU?$char_traits@_W@std@@V?$allocator@_W@2@@std@@V?$allocator@V?$basic_string@_WU?$char_traits@_W@std@@V?$allocator@_W@2@@std@@@2@@std@@QAEXV?$_List_const_iterator@V?$_List_val@V?$basic_string@_WU?$char_traits@_W@std@@V?$allocator@_W@2@@std@@V?$allocator@V?$basic_string@_WU?$char_traits@_W@std@@V?$allocator@_W@2@@std@@@2@@std@@@2@AAV12@00I@Z 610489e0 f i volume_list.obj
 0001:00047a60       ?erase@?$_Tree@V?$_Tmap_traits@V?$basic_string@_WU?$char_traits@_W@std@@V?$allocator@_W@2@@std@@V12@U?$less@V?$basic_string@_WU?$char_traits@_W@std@@V?$allocator@_W@2@@std@@@2@V?$allocator@U?$pair@$$CBV?$basic_string@_WU?$char_traits@_W@std@@V?$allocator@_W@2@@std@@V12@@std@@@2@$0A@@std@@@std@@QAE?AV?$_Tree_iterator@V?$_Tree_val@V?$_Tmap_traits@V?$basic_string@_WU?$char_traits@_W@std@@V?$allocator@_W@2@@std@@V12@U?$less@V?$basic_string@_WU?$char_traits@_W@std@@V?$allocator@_W@2@@std@@@2@V?$allocator@U?$pair@$$CBV?$basic_string@_WU?$char_traits@_W@std@@V?$allocator@_W@2@@std@@V12@@std@@@2@$0A@@std@@@std@@@2@V?$_Tree_const_iterator@V?$_Tree_val@V?$_Tmap_traits@V?$basic_string@_WU?$char_traits@_W@std@@V?$allocator@_W@2@@std@@V12@U?$less@V?$basic_string@_WU?$char_traits@_W@std@@V?$allocator@_W@2@@std@@@2@V?$allocator@U?$pair@$$CBV?$basic_string@_WU?$char_traits@_W@std@@V?$allocator@_W@2@@std@@V12@@std@@@2@$0A@@std@@@std@@@2@@Z 61048a60 f i volume_list.obj
 0001:00047d30       ?_Erase@?$_Tree@V?$_Tmap_traits@V?$basic_string@_WU?$char_traits@_W@std@@V?$allocator@_W@2@@std@@V12@U?$less@V?$basic_string@_WU?$char_traits@_W@std@@V?$allocator@_W@2@@std@@@2@V?$allocator@U?$pair@$$CBV?$basic_string@_WU?$char_traits@_W@std@@V?$allocator@_W@2@@std@@V12@@std@@@2@$0A@@std@@@std@@IAEXPAU_Node@?$_Tree_nod@V?$_Tmap_traits@V?$basic_string@_WU?$char_traits@_W@std@@V?$allocator@_W@2@@std@@V12@U?$less@V?$basic_string@_WU?$char_traits@_W@std@@V?$allocator@_W@2@@std@@@2@V?$allocator@U?$pair@$$CBV?$basic_string@_WU?$char_traits@_W@std@@V?$allocator@_W@2@@std@@V12@@std@@@2@$0A@@std@@@2@@Z 61048d30 f i volume_list.obj
 0001:00047dc0       ?_Lrotate@?$_Tree@V?$_Tmap_traits@V?$basic_string@_WU?$char_traits@_W@std@@V?$allocator@_W@2@@std@@V12@U?$less@V?$basic_string@_WU?$char_traits@_W@std@@V?$allocator@_W@2@@std@@@2@V?$allocator@U?$pair@$$CBV?$basic_string@_WU?$char_traits@_W@std@@V?$allocator@_W@2@@std@@V12@@std@@@2@$0A@@std@@@std@@IAEXPAU_Node@?$_Tree_nod@V?$_Tmap_traits@V?$basic_string@_WU?$char_traits@_W@std@@V?$allocator@_W@2@@std@@V12@U?$less@V?$basic_string@_WU?$char_traits@_W@std@@V?$allocator@_W@2@@std@@@2@V?$allocator@U?$pair@$$CBV?$basic_string@_WU?$char_traits@_W@std@@V?$allocator@_W@2@@std@@V12@@std@@@2@$0A@@std@@@2@@Z 61048dc0 f i volume_list.obj
 0001:00047e10       ?_Rrotate@?$_Tree@V?$_Tmap_traits@V?$basic_string@_WU?$char_traits@_W@std@@V?$allocator@_W@2@@std@@V12@U?$less@V?$basic_string@_WU?$char_traits@_W@std@@V?$allocator@_W@2@@std@@@2@V?$allocator@U?$pair@$$CBV?$basic_string@_WU?$char_traits@_W@std@@V?$allocator@_W@2@@std@@V12@@std@@@2@$0A@@std@@@std@@IAEXPAU_Node@?$_Tree_nod@V?$_Tmap_traits@V?$basic_string@_WU?$char_traits@_W@std@@V?$allocator@_W@2@@std@@V12@U?$less@V?$basic_string@_WU?$char_traits@_W@std@@V?$allocator@_W@2@@std@@@2@V?$allocator@U?$pair@$$CBV?$basic_string@_WU?$char_traits@_W@std@@V?$allocator@_W@2@@std@@V12@@std@@@2@$0A@@std@@@2@@Z 61048e10 f i volume_list.obj
 0001:00047e60       ?_Max@?$_Tree_val@V?$_Tmap_traits@V?$basic_string@_WU?$char_traits@_W@std@@V?$allocator@_W@2@@std@@V12@U?$less@V?$basic_string@_WU?$char_traits@_W@std@@V?$allocator@_W@2@@std@@@2@V?$allocator@U?$pair@$$CBV?$basic_string@_WU?$char_traits@_W@std@@V?$allocator@_W@2@@std@@V12@@std@@@2@$0A@@std@@@std@@SAPAU_Node@?$_Tree_nod@V?$_Tmap_traits@V?$basic_string@_WU?$char_traits@_W@std@@V?$allocator@_W@2@@std@@V12@U?$less@V?$basic_string@_WU?$char_traits@_W@std@@V?$allocator@_W@2@@std@@@2@V?$allocator@U?$pair@$$CBV?$basic_string@_WU?$char_traits@_W@std@@V?$allocator@_W@2@@std@@V12@@std@@@2@$0A@@std@@@2@PAU342@@Z 61048e60 f i volume_list.obj
 0001:00047e80       ?_Min@?$_Tree_val@V?$_Tmap_traits@V?$basic_string@_WU?$char_traits@_W@std@@V?$allocator@_W@2@@std@@V12@U?$less@V?$basic_string@_WU?$char_traits@_W@std@@V?$allocator@_W@2@@std@@@2@V?$allocator@U?$pair@$$CBV?$basic_string@_WU?$char_traits@_W@std@@V?$allocator@_W@2@@std@@V12@@std@@@2@$0A@@std@@@std@@SAPAU_Node@?$_Tree_nod@V?$_Tmap_traits@V?$basic_string@_WU?$char_traits@_W@std@@V?$allocator@_W@2@@std@@V12@U?$less@V?$basic_string@_WU?$char_traits@_W@std@@V?$allocator@_W@2@@std@@@2@V?$allocator@U?$pair@$$CBV?$basic_string@_WU?$char_traits@_W@std@@V?$allocator@_W@2@@std@@V12@@std@@@2@$0A@@std@@@2@PAU342@@Z 61048e80 f i volume_list.obj
 0001:00047ea0       ?_Insert@?$_Tree@V?$_Tmap_traits@V?$basic_string@_WU?$char_traits@_W@std@@V?$allocator@_W@2@@std@@V12@U?$less@V?$basic_string@_WU?$char_traits@_W@std@@V?$allocator@_W@2@@std@@@2@V?$allocator@U?$pair@$$CBV?$basic_string@_WU?$char_traits@_W@std@@V?$allocator@_W@2@@std@@V12@@std@@@2@$0A@@std@@@std@@QAE?AV?$_Tree_iterator@V?$_Tree_val@V?$_Tmap_traits@V?$basic_string@_WU?$char_traits@_W@std@@V?$allocator@_W@2@@std@@V12@U?$less@V?$basic_string@_WU?$char_traits@_W@std@@V?$allocator@_W@2@@std@@@2@V?$allocator@U?$pair@$$CBV?$basic_string@_WU?$char_traits@_W@std@@V?$allocator@_W@2@@std@@V12@@std@@@2@$0A@@std@@@std@@@2@V?$_Tree_const_iterator@V?$_Tree_val@V?$_Tmap_traits@V?$basic_string@_WU?$char_traits@_W@std@@V?$allocator@_W@2@@std@@V12@U?$less@V?$basic_string@_WU?$char_traits@_W@std@@V?$allocator@_W@2@@std@@@2@V?$allocator@U?$pair@$$CBV?$basic_string@_WU?$char_traits@_W@std@@V?$allocator@_W@2@@std@@V12@@std@@@2@$0A@@std@@@std@@@2@PAU_Node@?$_Tree_nod@V?$_Tmap_traits@V?$basic_string@_WU?$char_traits@_W@std@@V?$allocator@_W@2@@std@@V12@U?$less@V?$basic_string@_WU?$char_traits@_W@std@@V?$allocator@_W@2@@std@@@2@V?$allocator@U?$pair@$$CBV?$basic_string@_WU?$char_traits@_W@std@@V?$allocator@_W@2@@std@@V12@@std@@@2@$0A@@std@@@2@@Z 61048ea0 f i volume_list.obj
 0001:000480d0       ?compare@?$basic_string@_WU?$char_traits@_W@std@@V?$allocator@_W@2@@std@@QBEHIIPB_WI@Z 610490d0 f i volume_list.obj
 0001:00048140       ?_Linsert@?$_Tree@V?$_Tmap_traits@V?$basic_string@_WU?$char_traits@_W@std@@V?$allocator@_W@2@@std@@V12@U?$less@V?$basic_string@_WU?$char_traits@_W@std@@V?$allocator@_W@2@@std@@@2@V?$allocator@U?$pair@$$CBV?$basic_string@_WU?$char_traits@_W@std@@V?$allocator@_W@2@@std@@V12@@std@@@2@$0A@@std@@@std@@QAE?AU?$pair@V?$_Tree_iterator@V?$_Tree_val@V?$_Tmap_traits@V?$basic_string@_WU?$char_traits@_W@std@@V?$allocator@_W@2@@std@@V12@U?$less@V?$basic_string@_WU?$char_traits@_W@std@@V?$allocator@_W@2@@std@@@2@V?$allocator@U?$pair@$$CBV?$basic_string@_WU?$char_traits@_W@std@@V?$allocator@_W@2@@std@@V12@@std@@@2@$0A@@std@@@std@@@std@@_N@2@PAU_Node@?$_Tree_nod@V?$_Tmap_traits@V?$basic_string@_WU?$char_traits@_W@std@@V?$allocator@_W@2@@std@@V12@U?$less@V?$basic_string@_WU?$char_traits@_W@std@@V?$allocator@_W@2@@std@@@2@V?$allocator@U?$pair@$$CBV?$basic_string@_WU?$char_traits@_W@std@@V?$allocator@_W@2@@std@@V12@@std@@@2@$0A@@std@@@2@_N@Z 61049140 f i volume_list.obj
 0001:000482d0       ?_Insert@?$_Tree@V?$_Tmap_traits@V?$basic_string@_WU?$char_traits@_W@std@@V?$allocator@_W@2@@std@@V12@U?$less@V?$basic_string@_WU?$char_traits@_W@std@@V?$allocator@_W@2@@std@@@2@V?$allocator@U?$pair@$$CBV?$basic_string@_WU?$char_traits@_W@std@@V?$allocator@_W@2@@std@@V12@@std@@@2@$0A@@std@@@std@@IAE?AV?$_Tree_iterator@V?$_Tree_val@V?$_Tmap_traits@V?$basic_string@_WU?$char_traits@_W@std@@V?$allocator@_W@2@@std@@V12@U?$less@V?$basic_string@_WU?$char_traits@_W@std@@V?$allocator@_W@2@@std@@@2@V?$allocator@U?$pair@$$CBV?$basic_string@_WU?$char_traits@_W@std@@V?$allocator@_W@2@@std@@V12@@std@@@2@$0A@@std@@@std@@@2@_NPAU_Node@?$_Tree_nod@V?$_Tmap_traits@V?$basic_string@_WU?$char_traits@_W@std@@V?$allocator@_W@2@@std@@V12@U?$less@V?$basic_string@_WU?$char_traits@_W@std@@V?$allocator@_W@2@@std@@@2@V?$allocator@U?$pair@$$CBV?$basic_string@_WU?$char_traits@_W@std@@V?$allocator@_W@2@@std@@V12@@std@@@2@$0A@@std@@@2@1@Z 610492d0 f i volume_list.obj
 0001:00048520       ??F?$_Tree_unchecked_const_iterator@V?$_Tree_val@V?$_Tmap_traits@V?$basic_string@_WU?$char_traits@_W@std@@V?$allocator@_W@2@@std@@V12@U?$less@V?$basic_string@_WU?$char_traits@_W@std@@V?$allocator@_W@2@@std@@@2@V?$allocator@U?$pair@$$CBV?$basic_string@_WU?$char_traits@_W@std@@V?$allocator@_W@2@@std@@V12@@std@@@2@$0A@@std@@@std@@U_Iterator_base0@2@@std@@QAEAAV01@XZ 61049520 f i volume_list.obj
 0001:00048580       ??$_Buynode@V?$basic_string@_WU?$char_traits@_W@std@@V?$allocator@_W@2@@std@@@?$_List_val@V?$basic_string@_WU?$char_traits@_W@std@@V?$allocator@_W@2@@std@@V?$allocator@V?$basic_string@_WU?$char_traits@_W@std@@V?$allocator@_W@2@@std@@@2@@std@@QAEPAU_Node@?$_List_nod@V?$basic_string@_WU?$char_traits@_W@std@@V?$allocator@_W@2@@std@@V?$allocator@V?$basic_string@_WU?$char_traits@_W@std@@V?$allocator@_W@2@@std@@@2@@1@PAU231@0$$QAV?$basic_string@_WU?$char_traits@_W@std@@V?$allocator@_W@2@@1@@Z 61049580 f i volume_list.obj
 0001:00048650       ??$_Buynode@U?$pair@$$CBV?$basic_string@_WU?$char_traits@_W@std@@V?$allocator@_W@2@@std@@V12@@std@@@?$_Tree_val@V?$_Tmap_traits@V?$basic_string@_WU?$char_traits@_W@std@@V?$allocator@_W@2@@std@@V12@U?$less@V?$basic_string@_WU?$char_traits@_W@std@@V?$allocator@_W@2@@std@@@2@V?$allocator@U?$pair@$$CBV?$basic_string@_WU?$char_traits@_W@std@@V?$allocator@_W@2@@std@@V12@@std@@@2@$0A@@std@@@std@@QAEPAU_Node@?$_Tree_nod@V?$_Tmap_traits@V?$basic_string@_WU?$char_traits@_W@std@@V?$allocator@_W@2@@std@@V12@U?$less@V?$basic_string@_WU?$char_traits@_W@std@@V?$allocator@_W@2@@std@@@2@V?$allocator@U?$pair@$$CBV?$basic_string@_WU?$char_traits@_W@std@@V?$allocator@_W@2@@std@@V12@@std@@@2@$0A@@std@@@1@$$QAU?$pair@$$CBV?$basic_string@_WU?$char_traits@_W@std@@V?$allocator@_W@2@@std@@V12@@1@@Z 61049650 f i volume_list.obj
 0001:00048760       ??0VolumeItem@@QAE@ABU0@@Z 61049760 f i volume_list.obj
 0001:00048810       ??0?$list@V?$basic_string@_WU?$char_traits@_W@std@@V?$allocator@_W@2@@std@@V?$allocator@V?$basic_string@_WU?$char_traits@_W@std@@V?$allocator@_W@2@@std@@@2@@std@@QAE@ABV01@@Z 61049810 f i volume_list.obj
 0001:000488d0       ??$_Insert@V?$_List_const_iterator@V?$_List_val@V?$basic_string@_WU?$char_traits@_W@std@@V?$allocator@_W@2@@std@@V?$allocator@V?$basic_string@_WU?$char_traits@_W@std@@V?$allocator@_W@2@@std@@@2@@std@@@std@@@?$list@V?$basic_string@_WU?$char_traits@_W@std@@V?$allocator@_W@2@@std@@V?$allocator@V?$basic_string@_WU?$char_traits@_W@std@@V?$allocator@_W@2@@std@@@2@@std@@QAEXV?$_List_const_iterator@V?$_List_val@V?$basic_string@_WU?$char_traits@_W@std@@V?$allocator@_W@2@@std@@V?$allocator@V?$basic_string@_WU?$char_traits@_W@std@@V?$allocator@_W@2@@std@@@2@@std@@@1@00Uforward_iterator_tag@1@@Z 610498d0 f i volume_list.obj
 0001:000489a0       ?_Buynode@?$_List_val@V?$basic_string@_WU?$char_traits@_W@std@@V?$allocator@_W@2@@std@@V?$allocator@V?$basic_string@_WU?$char_traits@_W@std@@V?$allocator@_W@2@@std@@@2@@std@@QAEPAU_Node@?$_List_nod@V?$basic_string@_WU?$char_traits@_W@std@@V?$allocator@_W@2@@std@@V?$allocator@V?$basic_string@_WU?$char_traits@_W@std@@V?$allocator@_W@2@@std@@@2@@2@PAU342@0ABV?$basic_string@_WU?$char_traits@_W@std@@V?$allocator@_W@2@@2@@Z 610499a0 f i volume_list.obj
 0001:00048a70       ?assign@?$basic_string@_WU?$char_traits@_W@std@@V?$allocator@_W@2@@std@@QAEAAV12@PB_WI@Z 61049a70 f i volume_list.obj
 0001:00048eb0       _lzo1x_1_compress          61049eb0 f   lzo2_32:lzo1x_1.obj
 0001:00048f90       _lzo_crc32                 61049f90 f   lzo2_32:lzo_crc.obj
 0001:00049140       _MD4_Update                6104a140 f   libeay32:md4_dgst.obj
 0001:00049220       _MD4_Final                 6104a220 f   libeay32:md4_dgst.obj
 0001:00049340       _md4_block_data_order      6104a340 f   libeay32:md4_dgst.obj
 0001:00049a10       _MD5_Update                6104aa10 f   libeay32:md5_dgst.obj
 0001:00049af0       _MD5_Final                 6104aaf0 f   libeay32:md5_dgst.obj
 0001:00049c10       _SHA1_Update               6104ac10 f   libeay32:sha1dgst.obj
 0001:00049cf0       _SHA1_Final                6104acf0 f   libeay32:sha1dgst.obj
 0001:00049e30       _SHA256_Update             6104ae30 f   libeay32:sha256.obj
 0001:00049f10       _SHA256_Final              6104af10 f   libeay32:sha256.obj
 0001:0004a1e0       _CRYPTO_THREADID_current   6104b1e0 f   libeay32:cryptlib.obj
 0001:0004a220       _CRYPTO_THREADID_cmp       6104b220 f   libeay32:cryptlib.obj
 0001:0004a280       _CRYPTO_add_lock           6104b280 f   libeay32:cryptlib.obj
 0001:0004a2f0       _OPENSSL_cpuid_setup       6104b2f0 f   libeay32:cryptlib.obj
 0001:0004a340       _sk_new                    6104b340 f   libeay32:stack.obj
 0001:0004a460       _sk_insert                 6104b460 f   libeay32:stack.obj
 0001:0004a520       _sk_pop_free               6104b520 f   libeay32:stack.obj
 0001:0004ae10       _ERR_put_error             6104be10 f   libeay32:err.obj
 0001:0004af30       _ERR_get_state             6104bf30 f   libeay32:err.obj
 0001:0004b110       _ERR_set_error_data        6104c110 f   libeay32:err.obj
 0001:0004b1a0       _ERR_add_error_data        6104c1a0 f   libeay32:err.obj
 0001:0004b2f0       _BUF_strlcat               6104c2f0 f   libeay32:buffer.obj
 0001:0004b380       _CRYPTO_malloc             6104c380 f   libeay32:mem.obj
 0001:0004b3d0       _CRYPTO_realloc            6104c3d0 f   libeay32:mem.obj
 0001:0004b470       _lh_new                    6104c470 f   libeay32:lhash.obj
 0001:0004b5f0       _lh_free                   6104c5f0 f   libeay32:lhash.obj
 0001:0004b6b0       _lh_insert                 6104c6b0 f   libeay32:lhash.obj
 0001:0004b7a0       _lh_delete                 6104c7a0 f   libeay32:lhash.obj
 0001:0004ba90       _lh_strhash                6104ca90 f   libeay32:lhash.obj
 0001:0004bae0       _CRYPTO_is_mem_check_on    6104cae0 f   libeay32:mem_dbg.obj
 0001:0004bcb0       _CRYPTO_push_info_         6104ccb0 f   libeay32:mem_dbg.obj
 0001:0004bf40       _CRYPTO_pop_info           6104cf40 f   libeay32:mem_dbg.obj
 0001:0004c710       _CRYPTO_free               6104d710 f   libeay32:mem.obj
 0001:0004d120       _CRYPTO_set_ex_data        6104e120 f   libeay32:ex_data.obj
 0001:0004d1c0       _lzo1x_decompress_asm_fast 6104e1c0     lzo2_32:lzo1x_f1.obj
 0001:0004d380       _md5_block_asm_data_order  6104e380     libeay32:md5-586.obj
 0001:0004da40       _sha1_block_data_order     6104ea40     libeay32:sha1-586.obj
 0001:0004ea40       _sha256_block_data_order   6104fa40     libeay32:sha256-586.obj
 0001:0004ee80       _OPENSSL_ia32_cpuid        6104fe80     libeay32:x86cpuid.obj
 0001:0004efc0       _OPENSSL_rdtsc             6104ffc0     libeay32:x86cpuid.obj
 0001:0004efe0       _OPENSSL_instrument_halt   6104ffe0     libeay32:x86cpuid.obj
 0001:0004f020       _OPENSSL_far_spin          61050020     libeay32:x86cpuid.obj
 0001:0004f070       _OPENSSL_wipe_cpu          61050070     libeay32:x86cpuid.obj
 0001:0004f0d0       _OPENSSL_atomic_add        610500d0     libeay32:x86cpuid.obj
 0001:0004f0f0       _OPENSSL_indirect_call     610500f0     libeay32:x86cpuid.obj
 0001:0004f130       _OPENSSL_cleanse           61050130     libeay32:x86cpuid.obj
 0001:0004f1c0       _bn_mul_add_words          610501c0     libeay32:bn-586.obj
 0001:0004f4b0       _bn_mul_words              610504b0     libeay32:bn-586.obj
 0001:0004f670       _bn_sqr_words              61050670     libeay32:bn-586.obj
 0001:0004f7c0       _bn_div_words              610507c0     libeay32:bn-586.obj
 0001:0004f7d0       _bn_add_words              610507d0     libeay32:bn-586.obj
 0001:0004f990       _bn_sub_words              61050990     libeay32:bn-586.obj
 0001:0004fb50       _bn_sub_part_words         61050b50     libeay32:bn-586.obj
 0001:00050100       ?_com_issue_error@@YGXJ@Z  61051100 f   comsuppw:comsupp.obj
 0001:00050120       ??1_com_error@@UAE@XZ      61051120 f i comsuppw:comraise.obj
 0001:00050150       ?_com_raise_error@@YGXJPAUIErrorInfo@@@Z 61051150 f   comsuppw:comraise.obj
 0001:00050190       ??0_com_error@@QAE@ABV0@@Z 61051190 f i comsuppw:comraise.obj
 0001:000501d0       ??_E_com_error@@UAEPAXI@Z  610511d0 f i comsuppw:comraise.obj
 0001:000501d0       ??_G_com_error@@UAEPAXI@Z  610511d0 f i comsuppw:comraise.obj
 0001:00050211       ??_U@YAPAXI@Z              61051211 f   libcpmt:newaop.obj
 0001:0005021c       ??1out_of_range@std@@UAE@XZ 6105121c f i libcpmt:xthrow.obj
 0001:0005021c       ??1length_error@std@@UAE@XZ 6105121c f i libcpmt:xthrow.obj
 0001:00050221       ??0logic_error@std@@QAE@ABV01@@Z 61051221 f i libcpmt:xthrow.obj
 0001:0005023e       ?_Xlength_error@std@@YAXPBD@Z 6105123e f   libcpmt:xthrow.obj
 0001:0005026e       ??0length_error@std@@QAE@ABV01@@Z 6105126e f i libcpmt:xthrow.obj
 0001:0005028b       ?_Xout_of_range@std@@YAXPBD@Z 6105128b f   libcpmt:xthrow.obj
 0001:000502bb       ??0out_of_range@std@@QAE@ABV01@@Z 610512bb f i libcpmt:xthrow.obj
 0001:000502d8       ??_Elogic_error@std@@UAEPAXI@Z 610512d8 f i libcpmt:xthrow.obj
 0001:000502d8       ??_Glogic_error@std@@UAEPAXI@Z 610512d8 f i libcpmt:xthrow.obj
 0001:000502d8       ??_Glength_error@std@@UAEPAXI@Z 610512d8 f i libcpmt:xthrow.obj
 0001:000502d8       ??_Elength_error@std@@UAEPAXI@Z 610512d8 f i libcpmt:xthrow.obj
 0001:000502d8       ??_Gout_of_range@std@@UAEPAXI@Z 610512d8 f i libcpmt:xthrow.obj
 0001:000502d8       ??_Eout_of_range@std@@UAEPAXI@Z 610512d8 f i libcpmt:xthrow.obj
 0001:000502f9       @__security_check_cookie@4 610512f9 f   LIBCMT:secchk.obj
 0001:00050308       _free                      61051308 f   LIBCMT:free.obj
 0001:00050342       ??0exception@std@@QAE@ABQBDH@Z 61051342 f   LIBCMT:stdexcpt.obj
 0001:0005035f       ?what@exception@std@@UBEPBDXZ 6105135f f   LIBCMT:stdexcpt.obj
 0001:0005036c       ?_Copy_str@exception@std@@AAEXPBD@Z 6105136c f   LIBCMT:stdexcpt.obj
 0001:000503ac       ?_Tidy@exception@std@@AAEXXZ 610513ac f   LIBCMT:stdexcpt.obj
 0001:000503ca       ??0exception@std@@QAE@ABQBD@Z 610513ca f   LIBCMT:stdexcpt.obj
 0001:000503f1       ??4exception@std@@QAEAAV01@ABV01@@Z 610513f1 f   LIBCMT:stdexcpt.obj
 0001:00050426       ??1exception@std@@UAE@XZ   61051426 f   LIBCMT:stdexcpt.obj
 0001:00050431       ??_Eexception@std@@UAEPAXI@Z 61051431 f i LIBCMT:stdexcpt.obj
 0001:00050431       ??_Gexception@std@@UAEPAXI@Z 61051431 f i LIBCMT:stdexcpt.obj
 0001:00050458       ??0exception@std@@QAE@ABV01@@Z 61051458 f   LIBCMT:stdexcpt.obj
 0001:0005047d       ??1type_info@@UAE@XZ       6105147d f   LIBCMT:typinfo.obj
 0001:0005048d       ??_Etype_info@@UAEPAXI@Z   6105148d f i LIBCMT:typinfo.obj
 0001:0005048d       ??_Gtype_info@@UAEPAXI@Z   6105148d f i LIBCMT:typinfo.obj
 0001:000504ae       ??8type_info@@QBE_NABV0@@Z 610514ae f   LIBCMT:typinfo.obj
 0001:000504ce       _malloc                    610514ce f   LIBCMT:malloc.obj
 0001:00050570       _memmove                   61051570 f   LIBCMT:memmove.obj
 0001:000508d1       _realloc                   610518d1 f   LIBCMT:realloc.obj
 0001:0005097e       ??3@YAXPAX@Z               6105197e f   LIBCMT:delete.obj
 0001:00050a3f       ___onexitinit              61051a3f f   LIBCMT:onexit.obj
 0001:00050a70       __onexit                   61051a70 f   LIBCMT:onexit.obj
 0001:00050aac       _atexit                    61051aac f   LIBCMT:onexit.obj
 0001:00050ac3       __time64                   61051ac3 f   LIBCMT:time64.obj
 0001:00050b14       __endthreadex              61051b14 f   LIBCMT:threadex.obj
 0001:00050bd9       __beginthreadex            61051bd9 f   LIBCMT:threadex.obj
 0001:00050d10       _qsort                     61051d10 f   LIBCMT:qsort.obj
 0001:00050f9b       _bsearch                   61051f9b f   LIBCMT:bsearch.obj
 0001:0005104f       __purecall                 6105204f f   LIBCMT:purevirt.obj
 0001:00051079       ??0_LocaleUpdate@@QAE@PAUlocaleinfo_struct@@@Z 61052079 f i LIBCMT:wcsnicmp.obj
 0001:00051100       __wcsnicmp_l               61052100 f   LIBCMT:wcsnicmp.obj
 0001:000511e5       __wcsnicmp                 610521e5 f   LIBCMT:wcsnicmp.obj
 0001:00051283       ??_V@YAXPAX@Z              61052283 f   LIBCMT:delete2.obj
 0001:0005128e       ??2@YAPAXI@Z               6105228e f   LIBCMT:new.obj
 0001:0005130e       ??_L@YGXPAXIHP6EX0@Z1@Z    6105230e f   LIBCMT:ehvecctr.obj
 0001:00051373       ?__ArrayUnwind@@YGXPAXIHP6EX0@Z@Z 61052373 f   LIBCMT:ehvecdtr.obj
 0001:000513d1       ??_M@YGXPAXIHP6EX0@Z@Z     610523d1 f   LIBCMT:ehvecdtr.obj
 0001:000514b7       __ui64tow                  610524b7 f   LIBCMT:xtow.obj
 0001:000514d4       __wtol                     610524d4 f   LIBCMT:wtox.obj
 0001:000514ea       __wtoi                     610524ea f   LIBCMT:wtox.obj
 0001:000514f5       __heap_init                610524f5 f   LIBCMT:heapinit.obj
 0001:00051513       __heap_term                61052513 f   LIBCMT:heapinit.obj
 0001:00051527       __get_heap_handle          61052527 f   LIBCMT:heapinit.obj
 0001:0005160c       __itow_s                   6105260c f   LIBCMT:xtows.obj
 0001:00051636       __wcsicmp_l                61052636 f   LIBCMT:wcsicmp.obj
 0001:00051739       __wcsicmp                  61052739 f   LIBCMT:wcsicmp.obj
 0001:000517c4       __CRT_INIT@12              610527c4 f   LIBCMT:dllcrt0.obj
 0001:00051a1e       __DllMainCRTStartup@12     61052a1e f   LIBCMT:dllcrt0.obj
 0001:00051a41       __initp_misc_winsig        61052a41 f   LIBCMT:winsig.obj
 0001:00051a96       ___get_sigabrt             61052a96 f   LIBCMT:winsig.obj
 0001:00051aa3       _raise                     61052aa3 f   LIBCMT:winsig.obj
 0001:00051c46       ___iob_func                61052c46 f   LIBCMT:_file.obj
 0001:00051c4c       ___initstdio               61052c4c f   LIBCMT:_file.obj
 0001:00051cfd       ___endstdio                61052cfd f   LIBCMT:_file.obj
 0001:00051d1d       __lock_file                61052d1d f   LIBCMT:_file.obj
 0001:00051d5e       __lock_file2               61052d5e f   LIBCMT:_file.obj
 0001:00051d90       __unlock_file              61052d90 f   LIBCMT:_file.obj
 0001:00051dcc       __unlock_file2             61052dcc f   LIBCMT:_file.obj
 0001:00051dfb       ___crtCorExitProcess       61052dfb f   LIBCMT:crt0dat.obj
 0001:00051e26       ___crtExitProcess          61052e26 f   LIBCMT:crt0dat.obj
 0001:00051e3e       __lockexit                 61052e3e f   LIBCMT:crt0dat.obj
 0001:00051e47       __unlockexit               61052e47 f   LIBCMT:crt0dat.obj
 0001:00051e50       __init_pointers            61052e50 f   LIBCMT:crt0dat.obj
 0001:00051e83       __initterm_e               61052e83 f   LIBCMT:crt0dat.obj
 0001:00051ea7       __cinit                    61052ea7 f   LIBCMT:crt0dat.obj
 0001:00052080       __exit                     61053080 f   LIBCMT:crt0dat.obj
 0001:00052096       __cexit                    61053096 f   LIBCMT:crt0dat.obj
 0001:000520a5       __amsg_exit                610530a5 f   LIBCMT:crt0dat.obj
 0001:000522ee       _strtoul                   610532ee f   LIBCMT:strtol.obj
 0001:0005231a       __getenv_helper_nolock     6105331a f   LIBCMT:getenv.obj
 0001:000523a1       _getenv                    610533a1 f   LIBCMT:getenv.obj
 0001:00052430       _strchr                    61053430 f   LIBCMT:strchr.obj
 0001:00052436       ___from_strstr_to_strchr   61053436     LIBCMT:strchr.obj
 0001:000524f0       _strncpy                   610534f0 f   LIBCMT:strncpy.obj
 0001:00052614       __isdigit_l                61053614 f i LIBCMT:_ctype.obj
 0001:00052665       _isdigit                   61053665 f i LIBCMT:_ctype.obj
 0001:000526a0       _strcmp                    610536a0 f   LIBCMT:strcmp.obj
 0001:00052728       _feof                      61053728 f   LIBCMT:feoferr.obj
 0001:00052750       _ferror                    61053750 f   LIBCMT:feoferr.obj
 0001:00052778       __flush                    61053778 f   LIBCMT:fflush.obj
 0001:000527e0       __fflush_nolock            610537e0 f   LIBCMT:fflush.obj
 0001:00052902       _fflush                    61053902 f   LIBCMT:fflush.obj
 0001:00052955       __flushall                 61053955 f   LIBCMT:fflush.obj
 0001:0005295e       __get_errno_from_oserr     6105395e f   LIBCMT:dosmap.obj
 0001:000529a0       __errno                    610539a0 f   LIBCMT:dosmap.obj
 0001:000529b3       ___doserrno                610539b3 f   LIBCMT:dosmap.obj
 0001:000529c6       __dosmaperr                610539c6 f   LIBCMT:dosmap.obj
 0001:000529e9       _fgets                     610539e9 f   LIBCMT:fgets.obj
 0001:00052b21       __fsopen                   61053b21 f   LIBCMT:fopen.obj
 0001:00052bdd       _fopen                     61053bdd f   LIBCMT:fopen.obj
 0001:00052bf4       __fread_nolock_s           61053bf4 f   LIBCMT:fread.obj
 0001:00052db0       _fread_s                   61053db0 f   LIBCMT:fread.obj
 0001:00052e3e       _fread                     61053e3e f   LIBCMT:fread.obj
 0001:00052e5b       __fileno                   61053e5b f   LIBCMT:fileno.obj
 0001:00052e81       __fwrite_nolock            61053e81 f   LIBCMT:fwrite.obj
 0001:00052fd8       _fwrite                    61053fd8 f   LIBCMT:fwrite.obj
 0001:00053052       __setmode_nolock           61054052 f   LIBCMT:setmode.obj
 0001:0005310d       __get_fmode                6105410d f   LIBCMT:setmode.obj
 0001:0005313a       __setmode                  6105413a f   LIBCMT:setmode.obj
 0001:00053225       __ftell_nolock             61054225 f   LIBCMT:ftell.obj
 0001:000533b9       _ftell                     610543b9 f   LIBCMT:ftell.obj
 0001:0005341e       __fseek_nolock             6105441e f   LIBCMT:fseek.obj
 0001:000534a8       _fseek                     610544a8 f   LIBCMT:fseek.obj
 0001:00053524       __fclose_nolock            61054524 f   LIBCMT:fclose.obj
 0001:00053591       _fclose                    61054591 f   LIBCMT:fclose.obj
 0001:00053605       __CxxThrowException@8      61054605 f   LIBCMT:throw.obj
 0001:00053651       __cfltcvt_init             61054651 f   LIBCMT:_fpinit_.obj
 0001:000536b1       __fpmath                   610546b1 f   LIBCMT:_fpinit_.obj
 0001:000536d0       __except_handler4          610546d0 f   LIBCMT:chandler4.obj
 0001:00053860       _memset                    61054860 f   LIBCMT:memset.obj
 0001:000538e0       __alloca_probe_16          610548e0 f   LIBCMT:alloca16.obj
 0001:000538f6       __alloca_probe_8           610548f6     LIBCMT:alloca16.obj
 0001:0005390c       ___report_gsfailure        6105490c f   LIBCMT:gs_report.obj
 0001:00053a12       _strcpy_s                  61054a12 f   LIBCMT:strcpy_s.obj
 0001:00053a80       _strlen                    61054a80 f   LIBCMT:strlen.obj
 0001:00053b0b       ?_Type_info_dtor@type_info@@CAXPAV1@@Z 61054b0b f   LIBCMT:typname.obj
 0001:00053b7b       __GET_RTERRMSG             61054b7b f   LIBCMT:crt0msg.obj
 0001:00053ba1       __NMSG_WRITE               61054ba1 f   LIBCMT:crt0msg.obj
 0001:00053d50       __FF_MSGBANNER             61054d50 f   LIBCMT:crt0msg.obj
 0001:00053d89       __initp_heap_handler       61054d89 f   LIBCMT:handler.obj
 0001:00053d98       __callnewh                 61054d98 f   LIBCMT:handler.obj
 0001:00053dc0       __VEC_memcpy               61054dc0 f   LIBCMT:p4_memcpy.obj
 0001:00053ec3       ___sse2_available_init     61054ec3 f   LIBCMT:cpu_disp.obj
 0001:00053ed3       __malloc_crt               61054ed3 f   LIBCMT:crtheap.obj
 0001:00053f18       __calloc_crt               61054f18 f   LIBCMT:crtheap.obj
 0001:00053f64       __realloc_crt              61054f64 f   LIBCMT:crtheap.obj
 0001:00053fb2       __recalloc_crt             61054fb2 f   LIBCMT:crtheap.obj
 0001:00054004       __msize                    61055004 f   LIBCMT:msize.obj
 0001:00054040       __SEH_prolog4              61055040 f   LIBCMT:sehprolg4.obj
 0001:00054085       __SEH_epilog4              61055085 f   LIBCMT:sehprolg4.obj
 0001:000540a0       __aulldiv                  610550a0 f   LIBCMT:ulldiv.obj
 0001:00054108       __encoded_null             61055108 f   LIBCMT:tidtable.obj
 0001:00054111       ___crtTlsAlloc@4           61055111 f   LIBCMT:tidtable.obj
 0001:0005411a       ___fls_getvalue@4          6105511a f   LIBCMT:tidtable.obj
 0001:00054134       ___get_flsindex            61055134 f   LIBCMT:tidtable.obj
 0001:0005413a       ___set_flsgetvalue         6105513a f   LIBCMT:tidtable.obj
 0001:0005416e       ___fls_setvalue@8          6105516e f   LIBCMT:tidtable.obj
 0001:0005418b       __mtterm                   6105518b f   LIBCMT:tidtable.obj
 0001:000541c8       __initptd                  610551c8 f   LIBCMT:tidtable.obj
 0001:0005427c       __getptd_noexit            6105527c f   LIBCMT:tidtable.obj
 0001:000542f5       __getptd                   610552f5 f   LIBCMT:tidtable.obj
 0001:0005430f       __freefls@4                6105530f f   LIBCMT:tidtable.obj
 0001:0005443e       __freeptd                  6105543e f   LIBCMT:tidtable.obj
 0001:000544ac       __mtinit                   610554ac f   LIBCMT:tidtable.obj
 0001:00054627       __XcptFilter               61055627 f   LIBCMT:winxfltr.obj
 0001:00054771       ___CppXcptFilter           61055771 f   LIBCMT:winxfltr.obj
 0001:00054791       __initp_misc_invarg        61055791 f   LIBCMT:invarg.obj
 0001:000547a0       __call_reportfault         610557a0 f   LIBCMT:invarg.obj
 0001:000548c9       __invoke_watson            610558c9 f   LIBCMT:invarg.obj
 0001:000548ee       __invalid_parameter        610558ee f   LIBCMT:invarg.obj
 0001:0005491b       __invalid_parameter_noinfo 6105591b f   LIBCMT:invarg.obj
 0001:0005492b       _abort                     6105592b f   LIBCMT:abort.obj
 0001:0005495e       __set_abort_behavior       6105595e f   LIBCMT:abort.obj
 0001:0005497f       __initp_misc_purevirt      6105597f f   LIBCMT:inithelp.obj
 0001:00054bb1       ___updatetmbcinfo          61055bb1 f   LIBCMT:mbctype.obj
 0001:00054cd1       __setmbcp_nolock           61055cd1 f   LIBCMT:mbctype.obj
 0001:00054eba       __setmbcp                  61055eba f   LIBCMT:mbctype.obj
 0001:00055054       ___initmbctable            61056054 f   LIBCMT:mbctype.obj
 0001:00055072       ___addlocaleref            61056072 f   LIBCMT:localref.obj
 0001:00055101       ___removelocaleref         61056101 f   LIBCMT:localref.obj
 0001:0005519a       ___freetlocinfo            6105619a f   LIBCMT:localref.obj
 0001:000552e5       __updatetlocinfoEx_nolock  610562e5 f   LIBCMT:localref.obj
 0001:00055332       ___updatetlocinfo          61056332 f   LIBCMT:localref.obj
 0001:000553ab       __towlower_l               610563ab f   LIBCMT:towlower.obj
 0001:0005544b       ?terminate@@YAXXZ          6105644b f   LIBCMT:hooks.obj
 0001:00055484       ?unexpected@@YAXXZ         61056484 f   LIBCMT:hooks.obj
 0001:00055497       ?_inconsistency@@YAXXZ     61056497 f   LIBCMT:hooks.obj
 0001:000554cf       __initp_eh_hooks           610564cf f   LIBCMT:hooks.obj
 0001:000554e0       __aulldvrm                 610564e0 f   LIBCMT:ulldvrm.obj
 0001:00055737       _wcstol                    61056737 f   LIBCMT:wcstol.obj
 0001:00055751       __ioinit                   61056751 f   LIBCMT:ioinit.obj
 0001:00055996       __ioterm                   61056996 f   LIBCMT:ioinit.obj
 0001:000559e9       __setenvp                  610569e9 f   LIBCMT:stdenvp.obj
 0001:00055c5f       __setargv                  61056c5f f   LIBCMT:stdargv.obj
 0001:00055d1a       ___crtGetEnvironmentStringsA 61056d1a f   LIBCMT:a_env.obj
 0001:00055db1       __RTC_Initialize           61056db1 f   LIBCMT:_initsect_.obj
 0001:00055dd7       __RTC_Terminate            61056dd7 f   LIBCMT:_initsect_.obj
 0001:00055dfd       ___security_init_cookie    61056dfd f   LIBCMT:gs_support.obj
 0001:00055e98       __mtinitlocks              61056e98 f   LIBCMT:mlock.obj
 0001:00055ee2       __mtdeletelocks            61056ee2 f   LIBCMT:mlock.obj
 0001:00055f39       __unlock                   61056f39 f   LIBCMT:mlock.obj
 0001:00055f50       __mtinitlocknum            61056f50 f   LIBCMT:mlock.obj
 0001:00056012       __lock                     61057012 f   LIBCMT:mlock.obj
 0001:00056050       _memcpy                    61057050 f   LIBCMT:memcpy.obj
 0001:000563b1       __fcloseall                610573b1 f   LIBCMT:closeall.obj
 0001:0005644d       __initp_misc_rand_s        6105744d f   LIBCMT:rand_s.obj
 0001:0005645c       __initp_misc_cfltcvt_tab   6105745c f   LIBCMT:cmiscdat.obj
 0001:00056480       __ValidateImageBase        61057480 f   LIBCMT:pesect.obj
 0001:000564c0       __FindPESection            610574c0 f   LIBCMT:pesect.obj
 0001:00056510       __IsNonwritableInCurrentImage 61057510 f   LIBCMT:pesect.obj
 0001:000565cc       __flsbuf                   610575cc f   LIBCMT:_flsbuf.obj
 0001:00056730       __isctype_l                61057730 f   LIBCMT:isctype.obj
 0001:000567e8       __mbsnbicoll_l             610577e8 f   LIBCMT:mbsnbico.obj
 0001:000568c6       __mbsnbicoll               610578c6 f   LIBCMT:mbsnbico.obj
 0001:000568e0       ___wtomb_environ           610578e0 f   LIBCMT:wtombenv.obj
 0001:00056977       _strnlen                   61057977 f   LIBCMT:strlen_s.obj
 0001:000569a0       __alldiv                   610579a0 f   LIBCMT:lldiv.obj
 0001:00056a50       __allrem                   61057a50 f   LIBCMT:llrem.obj
 0001:00056b02       __write_nolock             61057b02 f   LIBCMT:write.obj
 0001:000571ff       __write                    610581ff f   LIBCMT:write.obj
 0001:000572d3       __commit                   610582d3 f   LIBCMT:commit.obj
 0001:000573ac       __getstream                610583ac f   LIBCMT:stream.obj
 0001:000574e0       __local_unwind4            610584e0 f   LIBCMT:exsup4.obj
 0001:000575b6       __seh_longjmp_unwind4@4    610585b6 f   LIBCMT:exsup4.obj
 0001:000575d2       @_EH4_CallFilterFunc@8     610585d2 f   LIBCMT:exsup4.obj
 0001:000575e9       @_EH4_TransferToHandler@8  610585e9 f   LIBCMT:exsup4.obj
 0001:00057602       @_EH4_GlobalUnwind2@8      61058602 f   LIBCMT:exsup4.obj
 0001:0005761b       @_EH4_LocalUnwind@16       6105861b f   LIBCMT:exsup4.obj
 0001:00057632       __filbuf                   61058632 f   LIBCMT:_filbuf.obj
 0001:00057754       __openfile                 61058754 f   LIBCMT:_open.obj
 0001:000579eb       __read_nolock              610589eb f   LIBCMT:read.obj
 0001:00057fa3       __read                     61058fa3 f   LIBCMT:read.obj
 0001:00058099       _memcpy_s                  61059099 f   LIBCMT:memcpy_s.obj
 0001:0005810e       __set_osfhnd               6105910e f   LIBCMT:osfinfo.obj
 0001:0005818f       __free_osfhnd              6105918f f   LIBCMT:osfinfo.obj
 0001:00058215       __get_osfhandle            61059215 f   LIBCMT:osfinfo.obj
 0001:0005827e       ___lock_fhandle            6105927e f   LIBCMT:osfinfo.obj
 0001:0005831d       __unlock_fhandle           6105931d f   LIBCMT:osfinfo.obj
 0001:00058344       __alloc_osfhnd             61059344 f   LIBCMT:osfinfo.obj
 0001:000584dd       __lseek_nolock             610594dd f   LIBCMT:lseek.obj
 0001:00058552       __lseek                    61059552 f   LIBCMT:lseek.obj
 0001:00058626       __close_nolock             61059626 f   LIBCMT:close.obj
 0001:000586c2       __close                    610596c2 f   LIBCMT:close.obj
 0001:00058786       __freebuf                  61059786 f   LIBCMT:_freebuf.obj
 0001:000587b7       __forcdecpt_l              610597b7 f   LIBCMT:cvt.obj
 0001:0005882b       __cropzeros_l              6105982b f   LIBCMT:cvt.obj
 0001:000588ad       __positive                 610598ad f   LIBCMT:cvt.obj
 0001:000588c9       __fassign_l                610598c9 f   LIBCMT:cvt.obj
 0001:0005890b       __fassign                  6105990b f   LIBCMT:cvt.obj
 0001:00058944       __forcdecpt                61059944 f   LIBCMT:cvt.obj
 0001:00058957       __cropzeros                61059957 f   LIBCMT:cvt.obj
 0001:00058acb       __cftoe_l                  61059acb f   LIBCMT:cvt.obj
 0001:00058b92       __cftoe                    61059b92 f   LIBCMT:cvt.obj
 0001:00058bb2       __cftoa_l                  61059bb2 f   LIBCMT:cvt.obj
 0001:0005902b       __cftof_l                  6105a02b f   LIBCMT:cvt.obj
 0001:000590ec       __cftog_l                  6105a0ec f   LIBCMT:cvt.obj
 0001:000591d9       __cfltcvt_l                6105a1d9 f   LIBCMT:cvt.obj
 0001:00059261       __cfltcvt                  6105a261 f   LIBCMT:cvt.obj
 0001:00059284       __setdefaultprecision      6105a284 f   LIBCMT:fp8.obj
 0001:000592ac       __VEC_memzero              6105a2ac f   LIBCMT:p4_memset.obj
 0001:00059370       __chkstk                   6105a370 f   LIBCMT:chkstk.obj
 0001:00059370       __alloca_probe             6105a370     LIBCMT:chkstk.obj
 0001:0005939b       __crt_debugger_hook        6105a39b f   LIBCMT:dbghook.obj
 0001:000593a3       ___crtMessageBoxW          6105a3a3 f   LIBCMT:crtmboxw.obj
 0001:0005950f       _wcscat_s                  6105a50f f   LIBCMT:wcscat_s.obj
 0001:00059584       _wcsncpy_s                 6105a584 f   LIBCMT:wcsncpy_s.obj
 0001:00059651       _wcslen                    6105a651 f   LIBCMT:wcslen.obj
 0001:0005966c       _wcscpy_s                  6105a66c f   LIBCMT:wcscpy_s.obj
 0001:000596cf       __set_error_mode           6105a6cf f   LIBCMT:errmode.obj
 0001:0005970e       __calloc_impl              6105a70e f   LIBCMT:calloc_impl.obj
 0001:00059790       __recalloc                 6105a790 f   LIBCMT:recalloc.obj
 0001:000597fe       __freea                    6105a7fe f i LIBCMT:a_loc.obj
 0001:00059a05       ___crtLCMapStringA         6105aa05 f   LIBCMT:a_map.obj
 0001:00059b32       ___crtGetStringTypeA       6105ab32 f   LIBCMT:a_str.obj
 0001:00059b72       ___free_lc_time            6105ab72 f   LIBCMT:inittime.obj
 0001:00059ee9       ___free_lconv_num          6105aee9 f   LIBCMT:initnum.obj
 0001:00059f52       ___free_lconv_mon          6105af52 f   LIBCMT:initmon.obj
 0001:0005a050       ___crtLCMapStringW         6105b050 f   LIBCMT:w_map.obj
 0001:0005a07f       _iswctype                  6105b07f f   LIBCMT:iswctype.obj
 0001:0005a0e0       _strcspn                   6105b0e0 f   LIBCMT:strcspn.obj
 0001:0005a126       _strncmp                   6105b126 f   LIBCMT:strncmp.obj
 0001:0005a1f0       _strpbrk                   6105b1f0 f   LIBCMT:strpbrk.obj
 0001:0005a230       __wchartodigit             6105b230 f   LIBCMT:wchtodig.obj
 0001:0005a3d0       __allmul                   6105b3d0 f   LIBCMT:llmul.obj
 0001:0005a457       __ismbblead                6105b457 f   LIBCMT:ismbbyte.obj
 0001:0005a46f       __fptrap                   6105b46f f   LIBCMT:crt0fp.obj
 0001:0005a478       __lseeki64_nolock          6105b478 f   LIBCMT:lseeki64.obj
 0001:0005a4fd       __lseeki64                 6105b4fd f   LIBCMT:lseeki64.obj
 0001:0005a5e7       __getbuf                   6105b5e7 f   LIBCMT:_getbuf.obj
 0001:0005a630       __isatty                   6105b630 f   LIBCMT:isatty.obj
 0001:0005a686       __isleadbyte_l             6105b686 f i LIBCMT:_wctype.obj
 0001:0005a6be       _isleadbyte                6105b6be f i LIBCMT:_wctype.obj
 0001:0005a93f       ___crtCompareStringA       6105b93f f   LIBCMT:a_cmp.obj
 0001:0005a981       __strnicoll_l              6105b981 f   LIBCMT:strnicol.obj
 0001:0005ab1d       ___crtsetenv               6105bb1d f   LIBCMT:setenv.obj
 0001:0005ad5f       __putwch_nolock            6105bd5f f   LIBCMT:putwch.obj
 0001:0005ada1       __mbtowc_l                 6105bda1 f   LIBCMT:mbtowc.obj
 0001:0005aeb7       _mbtowc                    6105beb7 f   LIBCMT:mbtowc.obj
 0001:0005aee0       __global_unwind2           6105bee0 f   LIBCMT:exsup.obj
 0001:0005af45       __local_unwind2            6105bf45 f   LIBCMT:exsup.obj
 0001:0005afc9       __abnormal_termination     6105bfc9 f   LIBCMT:exsup.obj
 0001:0005afec       __NLG_Notify1              6105bfec f   LIBCMT:exsup.obj
 0001:0005aff5       __NLG_Notify               6105bff5 f   LIBCMT:exsup.obj
 0001:0005b00c       __NLG_Dispatch2            6105c00c     LIBCMT:exsup.obj
 0001:0005b00c       __NLG_Dispatch             6105c00c     LIBCMT:exsup.obj
 0001:0005b014       __NLG_Call                 6105c014 f   LIBCMT:exsup.obj
 0001:0005b016       __NLG_Return2              6105c016     LIBCMT:exsup.obj
 0001:0005b74b       __sopen_helper             6105c74b f   LIBCMT:open.obj
 0001:0005b80f       __sopen_s                  6105c80f f   LIBCMT:open.obj
 0001:0005b82f       __mbsnbicmp_l              6105c82f f   LIBCMT:mbsnbicm.obj
 0001:0005ba33       __mbsnbicmp                6105ca33 f   LIBCMT:mbsnbicm.obj
 0001:0005ba4d       __mbsnbcmp_l               6105ca4d f   LIBCMT:mbsnbcmp.obj
 0001:0005bb99       __mbsnbcmp                 6105cb99 f   LIBCMT:mbsnbcmp.obj
 0001:0005bbc0       _strrchr                   6105cbc0 f   LIBCMT:strrchr.obj
 0001:0005bbed       __tolower_l                6105cbed f   LIBCMT:tolower.obj
 0001:0005bd02       _tolower                   6105cd02 f   LIBCMT:tolower.obj
 0001:0005bd2e       __atodbl_l                 6105cd2e f   LIBCMT:atodbl.obj
 0001:0005bdd6       __atoflt_l                 6105cdd6 f   LIBCMT:atodbl.obj
 0001:0005be7e       __fptostr                  6105ce7e f   LIBCMT:_fptostr.obj
 0001:0005bf31       ___dtold                   6105cf31 f   LIBCMT:_cfout_.obj
 0001:0005bfe4       __fltout2                  6105cfe4 f   LIBCMT:_cfout_.obj
 0001:0005c080       __alldvrm                  6105d080 f   LIBCMT:lldvrm.obj
 0001:0005c160       __aullshr                  6105d160 f   LIBCMT:ullshr.obj
 0001:0005c17f       __controlfp_s              6105d17f f   LIBCMT:_contrlfp_.obj
 0001:0005c1de       _wcsnlen                   6105d1de f   LIBCMT:wcslen_s.obj
 0001:0005c1fe       __strnicmp_l               6105d1fe f   LIBCMT:strnicmp.obj
 0001:0005c2e0       __strnicmp                 6105d2e0 f   LIBCMT:strnicmp.obj
 0001:0005c333       __strdup                   6105d333 f   LIBCMT:strdup.obj
 0001:0005c385       __mbschr_l                 6105d385 f   LIBCMT:mbschr.obj
 0001:0005c435       __mbschr                   6105d435 f   LIBCMT:mbschr.obj
 0001:0005c44c       ___initconout              6105d44c f   LIBCMT:initcon.obj
 0001:0005c46b       ___termconout              6105d46b f   LIBCMT:initcon.obj
 0001:0005c482       __chsize_nolock            6105d482 f   LIBCMT:chsize.obj
 0001:0005c638       __ld12tod                  6105d638 f   LIBCMT:_intrncvt_.obj
 0001:0005cb89       __ld12tof                  6105db89 f   LIBCMT:_intrncvt_.obj
 0001:0005d0da       ___strgtold12_l            6105e0da f   LIBCMT:_strgtold_.obj
 0001:0005d7b6       _$I10_OUTPUT               6105e7b6 f   LIBCMT:_x10fout_.obj
 0001:0005e1dc       __control87                6105f1dc f i LIBCMT:_ieee87_.obj
 0001:0005e4f0       ___ascii_strnicmp          6105f4f0 f   LIBCMT:_strnicm.obj
 0001:0005e551       ___mtold12                 6105f551 f   LIBCMT:_mantold_.obj
 0001:0005e735       ___set_fpsr_sse2           6105f735 f   LIBCMT:_fpctrl_.obj
 0001:0005e7a8       _RtlUnwind@16              6105f7a8 f   kernel32:KERNEL32.dll
 0001:0005e7b0       __ftol2_sse                6105f7b0 f   LIBCMT:ftol2.obj
 0001:0005e7b9       __ftol2_pentium4           6105f7b9 f   LIBCMT:ftol2.obj
 0001:0005e7cc       __ftol2_sse_excpt          6105f7cc f   LIBCMT:ftol2.obj
 0001:0005e7e6       __ftol2                    6105f7e6 f   LIBCMT:ftol2.obj
 0001:0005e860       __aullrem                  6105f860 f   LIBCMT:ullrem.obj
 0001:0005e8d5       ?_JumpToContinuation@@YGXPAXPAUEHRegistrationNode@@@Z 6105f8d5 f   LIBCMT:_trnsctrl_.obj
 0001:0005e907       ?_CallMemberFunction0@@YGXPAX0@Z 6105f907 f   LIBCMT:_trnsctrl_.obj
 0001:0005e907       ?_CallMemberFunction1@@YGXPAX00@Z 6105f907 f   LIBCMT:_trnsctrl_.obj
 0001:0005e907       ?_CallMemberFunction2@@YGXPAX00H@Z 6105f907 f   LIBCMT:_trnsctrl_.obj
 0001:0005e90e       ?_UnwindNestedFrames@@YGXPAUEHRegistrationNode@@PAUEHExceptionRecord@@@Z 6105f90e f   LIBCMT:_trnsctrl_.obj
 0001:0005e962       ___CxxFrameHandler3        6105f962 f   LIBCMT:_trnsctrl_.obj
 0001:0005e9cb       ?_CallSETranslator@@YAHPAUEHExceptionRecord@@PAUEHRegistrationNode@@PAX2PBU_s_FuncInfo@@H1@Z 6105f9cb f   LIBCMT:_trnsctrl_.obj
 0001:0005eb41       ?_GetRangeOfTrysToCheck@@YAPBU_s_TryBlockMapEntry@@PBU_s_FuncInfo@@HHPAI1@Z 6105fb41 f   LIBCMT:_trnsctrl_.obj
 0001:0005ebb4       __CreateFrameInfo          6105fbb4 f   LIBCMT:_trnsctrl_.obj
 0001:0005ebe0       __IsExceptionObjectToBeDestroyed 6105fbe0 f   LIBCMT:_trnsctrl_.obj
 0001:0005ec07       __FindAndUnlinkFrame       6105fc07 f   LIBCMT:_trnsctrl_.obj
 0001:0005ec59       ?_CallCatchBlock2@@YAPAXPAUEHRegistrationNode@@PBU_s_FuncInfo@@PAXHK@Z 6105fc59 f   LIBCMT:_trnsctrl_.obj
 0001:0005ecc0       __allshl                   6105fcc0 f   LIBCMT:llshl.obj
 0001:0005ecdf       ??1bad_exception@std@@UAE@XZ 6105fcdf f i LIBCMT:frame.obj
 0001:0005ecea       ??_Ebad_exception@std@@UAEPAXI@Z 6105fcea f i LIBCMT:frame.obj
 0001:0005ecea       ??_Gbad_exception@std@@UAEPAXI@Z 6105fcea f i LIBCMT:frame.obj
 0001:0005ed11       ___TypeMatch               6105fd11 f   LIBCMT:frame.obj
 0001:0005ed70       ___FrameUnwindFilter       6105fd70 f   LIBCMT:frame.obj
 0001:0005edbf       ___FrameUnwindToState      6105fdbf f   LIBCMT:frame.obj
 0001:0005eee0       ___DestructExceptionObject 6105fee0 f   LIBCMT:frame.obj
 0001:0005ef35       ___AdjustPointer           6105ff35 f   LIBCMT:frame.obj
 0001:0005f1b9       ___BuildCatchObjectHelper  610601b9 f   LIBCMT:frame.obj
 0001:0005f338       ___BuildCatchObject        61060338 f   LIBCMT:frame.obj
 0001:0005f8b4       ??0bad_exception@std@@QAE@ABV01@@Z 610608b4 f i LIBCMT:frame.obj
 0001:0005f8d1       ___InternalCxxFrameHandler 610608d1 f   LIBCMT:frame.obj
 0001:0005f9c0       __CallSettingFrame@12      610609c0 f   LIBCMT:lowhelpr.obj
 0001:0005f9e7       __NLG_Return               610609e7     LIBCMT:lowhelpr.obj
 0001:0005fa0c       __EH_prolog3_catch         61060a0c f   LIBCMT:ehprolg3.obj
 0001:0005fa42       ?_ValidateRead@@YAHPBXI@Z  61060a42 f   LIBCMT:validate.obj
 0001:0005fa42       ?_ValidateExecute@@YAHP6GHXZ@Z 61060a42 f   LIBCMT:validate.obj
 0001:0005fa42       ?_ValidateWrite@@YAHPAXI@Z 61060a42 f   LIBCMT:validate.obj
 0002:00000000       __imp__CryptMsgClose@4     61068000     crypt32:CRYPT32.dll
 0002:00000004       __imp__CertCloseStore@8    61068004     crypt32:CRYPT32.dll
 0002:00000008       __imp__CryptDecodeObject@28 61068008     crypt32:CRYPT32.dll
 0002:0000000c       __imp__CryptMsgGetParam@20 6106800c     crypt32:CRYPT32.dll
 0002:00000010       __imp__CryptQueryObject@44 61068010     crypt32:CRYPT32.dll
 0002:00000014       __imp__CertFreeCertificateContext@4 61068014     crypt32:CRYPT32.dll
 0002:00000018       __imp__CertFindCertificateInStore@24 61068018     crypt32:CRYPT32.dll
 0002:0000001c       __imp__CertGetNameStringW@24 6106801c     crypt32:CRYPT32.dll
 0002:00000020       \177CRYPT32_NULL_THUNK_DATA 61068020     crypt32:CRYPT32.dll
 0002:00000024       __imp__CompareStringW@24   61068024     kernel32:KERNEL32.dll
 0002:00000028       __imp__SetEnvironmentVariableA@8 61068028     kernel32:KERNEL32.dll
 0002:0000002c       __imp__WriteConsoleW@20    6106802c     kernel32:KERNEL32.dll
 0002:00000030       __imp__CreateFileA@28      61068030     kernel32:KERNEL32.dll
 0002:00000034       __imp__GetProcessHeap@0    61068034     kernel32:KERNEL32.dll
 0002:00000038       __imp__GetStringTypeW@16   61068038     kernel32:KERNEL32.dll
 0002:0000003c       __imp__LCMapStringW@24     6106803c     kernel32:KERNEL32.dll
 0002:00000040       __imp__SetStdHandle@8      61068040     kernel32:KERNEL32.dll
 0002:00000044       __imp__RtlUnwind@16        61068044     kernel32:KERNEL32.dll
 0002:00000048       __imp__GetConsoleMode@8    61068048     kernel32:KERNEL32.dll
 0002:0000004c       __imp__GetConsoleCP@0      6106804c     kernel32:KERNEL32.dll
 0002:00000050       __imp__LoadLibraryW@4      61068050     kernel32:KERNEL32.dll
 0002:00000054       __imp__GetCurrentProcessId@0 61068054     kernel32:KERNEL32.dll
 0002:00000058       __imp__GetTickCount@0      61068058     kernel32:KERNEL32.dll
 0002:0000005c       __imp__GetEnvironmentStringsW@0 6106805c     kernel32:KERNEL32.dll
 0002:00000060       __imp__FreeEnvironmentStringsW@4 61068060     kernel32:KERNEL32.dll
 0002:00000064       __imp__GetModuleFileNameA@12 61068064     kernel32:KERNEL32.dll
 0002:00000068       __imp__GetStartupInfoW@4   61068068     kernel32:KERNEL32.dll
 0002:0000006c       __imp__FormatMessageW@28   6106806c     kernel32:KERNEL32.dll
 0002:00000070       __imp__LocalFree@4         61068070     kernel32:KERNEL32.dll
 0002:00000074       __imp__GetLastError@0      61068074     kernel32:KERNEL32.dll
 0002:00000078       __imp__CloseHandle@4       61068078     kernel32:KERNEL32.dll
 0002:0000007c       __imp__CreateFileW@28      6106807c     kernel32:KERNEL32.dll
 0002:00000080       __imp__GetFileInformationByHandle@8 61068080     kernel32:KERNEL32.dll
 0002:00000084       __imp__FindFirstFileW@8    61068084     kernel32:KERNEL32.dll
 0002:00000088       __imp__WaitForSingleObject@8 61068088     kernel32:KERNEL32.dll
 0002:0000008c       __imp__FindNextFileW@8     6106808c     kernel32:KERNEL32.dll
 0002:00000090       __imp__FindClose@4         61068090     kernel32:KERNEL32.dll
 0002:00000094       __imp__CreateEventA@16     61068094     kernel32:KERNEL32.dll
 0002:00000098       __imp__SetEvent@4          61068098     kernel32:KERNEL32.dll
 0002:0000009c       __imp__GetFileAttributesW@4 6106809c     kernel32:KERNEL32.dll
 0002:000000a0       __imp__InitializeCriticalSection@4 610680a0     kernel32:KERNEL32.dll
 0002:000000a4       __imp__DeleteCriticalSection@4 610680a4     kernel32:KERNEL32.dll
 0002:000000a8       __imp__EnterCriticalSection@4 610680a8     kernel32:KERNEL32.dll
 0002:000000ac       __imp__LeaveCriticalSection@4 610680ac     kernel32:KERNEL32.dll
 0002:000000b0       __imp__WriteFile@20        610680b0     kernel32:KERNEL32.dll
 0002:000000b4       __imp__SetConsoleTitleW@4  610680b4     kernel32:KERNEL32.dll
 0002:000000b8       __imp__GetSystemInfo@4     610680b8     kernel32:KERNEL32.dll
 0002:000000bc       __imp__CreateSemaphoreA@16 610680bc     kernel32:KERNEL32.dll
 0002:000000c0       __imp__VirtualAlloc@16     610680c0     kernel32:KERNEL32.dll
 0002:000000c4       __imp__SetThreadPriority@8 610680c4     kernel32:KERNEL32.dll
 0002:000000c8       __imp__GetFileSize@8       610680c8     kernel32:KERNEL32.dll
 0002:000000cc       __imp__WaitForMultipleObjects@16 610680cc     kernel32:KERNEL32.dll
 0002:000000d0       __imp__ReadFile@20         610680d0     kernel32:KERNEL32.dll
 0002:000000d4       __imp__GetOverlappedResult@16 610680d4     kernel32:KERNEL32.dll
 0002:000000d8       __imp__ReleaseSemaphore@12 610680d8     kernel32:KERNEL32.dll
 0002:000000dc       __imp__VirtualFree@12      610680dc     kernel32:KERNEL32.dll
 0002:000000e0       __imp__SetCurrentDirectoryW@4 610680e0     kernel32:KERNEL32.dll
 0002:000000e4       __imp__DeviceIoControl@32  610680e4     kernel32:KERNEL32.dll
 0002:000000e8       __imp__SetFilePointerEx@20 610680e8     kernel32:KERNEL32.dll
 0002:000000ec       __imp__WideCharToMultiByte@32 610680ec     kernel32:KERNEL32.dll
 0002:000000f0       __imp__MultiByteToWideChar@24 610680f0     kernel32:KERNEL32.dll
 0002:000000f4       __imp__GetStdHandle@4      610680f4     kernel32:KERNEL32.dll
 0002:000000f8       __imp__PeekConsoleInputA@16 610680f8     kernel32:KERNEL32.dll
 0002:000000fc       __imp__ReadConsoleInputA@16 610680fc     kernel32:KERNEL32.dll
 0002:00000100       __imp__GetModuleFileNameW@12 61068100     kernel32:KERNEL32.dll
 0002:00000104       __imp__QueryPerformanceCounter@4 61068104     kernel32:KERNEL32.dll
 0002:00000108       __imp__QueryPerformanceFrequency@4 61068108     kernel32:KERNEL32.dll
 0002:0000010c       __imp__GetConsoleTitleW@8  6106810c     kernel32:KERNEL32.dll
 0002:00000110       __imp__GetTempFileNameW@16 61068110     kernel32:KERNEL32.dll
 0002:00000114       __imp__DeleteFileW@4       61068114     kernel32:KERNEL32.dll
 0002:00000118       __imp__GetTempPathW@8      61068118     kernel32:KERNEL32.dll
 0002:0000011c       __imp__GetFileSizeEx@8     6106811c     kernel32:KERNEL32.dll
 0002:00000120       __imp__GetProcAddress@8    61068120     kernel32:KERNEL32.dll
 0002:00000124       __imp__GetModuleHandleA@4  61068124     kernel32:KERNEL32.dll
 0002:00000128       __imp__GetDiskFreeSpaceW@20 61068128     kernel32:KERNEL32.dll
 0002:0000012c       __imp__GetVolumeInformationW@32 6106812c     kernel32:KERNEL32.dll
 0002:00000130       __imp__FlushFileBuffers@4  61068130     kernel32:KERNEL32.dll
 0002:00000134       __imp__GetVolumeNameForVolumeMountPointW@12 61068134     kernel32:KERNEL32.dll
 0002:00000138       __imp__SetFilePointer@16   61068138     kernel32:KERNEL32.dll
 0002:0000013c       __imp__SetEndOfFile@4      6106813c     kernel32:KERNEL32.dll
 0002:00000140       __imp__ExpandEnvironmentStringsW@12 61068140     kernel32:KERNEL32.dll
 0002:00000144       __imp__GetThreadLocale@0   61068144     kernel32:KERNEL32.dll
 0002:00000148       __imp__SetThreadLocale@4   61068148     kernel32:KERNEL32.dll
 0002:0000014c       __imp__FileTimeToLocalFileTime@8 6106814c     kernel32:KERNEL32.dll
 0002:00000150       __imp__FileTimeToSystemTime@8 61068150     kernel32:KERNEL32.dll
 0002:00000154       __imp__GetDateFormatW@24   61068154     kernel32:KERNEL32.dll
 0002:00000158       __imp__GetTimeFormatW@24   61068158     kernel32:KERNEL32.dll
 0002:0000015c       __imp__VerLanguageNameW@12 6106815c     kernel32:KERNEL32.dll
 0002:00000160       __imp__SetFileAttributesW@8 61068160     kernel32:KERNEL32.dll
 0002:00000164       __imp__FindVolumeClose@4   61068164     kernel32:KERNEL32.dll
 0002:00000168       __imp__FindFirstVolumeW@8  61068168     kernel32:KERNEL32.dll
 0002:0000016c       __imp__FindNextVolumeW@12  6106816c     kernel32:KERNEL32.dll
 0002:00000170       __imp__GetLogicalDriveStringsW@8 61068170     kernel32:KERNEL32.dll
 0002:00000174       __imp__GetVolumePathNamesForVolumeNameW@16 61068174     kernel32:KERNEL32.dll
 0002:00000178       __imp__SetLastError@4      61068178     kernel32:KERNEL32.dll
 0002:0000017c       __imp__QueryDosDeviceW@12  6106817c     kernel32:KERNEL32.dll
 0002:00000180       __imp__GetFileType@4       61068180     kernel32:KERNEL32.dll
 0002:00000184       __imp__GetCurrentThreadId@0 61068184     kernel32:KERNEL32.dll
 0002:00000188       __imp__HeapFree@12         61068188     kernel32:KERNEL32.dll
 0002:0000018c       __imp__HeapAlloc@12        6106818c     kernel32:KERNEL32.dll
 0002:00000190       __imp__HeapReAlloc@16      61068190     kernel32:KERNEL32.dll
 0002:00000194       __imp__EncodePointer@4     61068194     kernel32:KERNEL32.dll
 0002:00000198       __imp__DecodePointer@4     61068198     kernel32:KERNEL32.dll
 0002:0000019c       __imp__GetSystemTimeAsFileTime@4 6106819c     kernel32:KERNEL32.dll
 0002:000001a0       __imp__ExitThread@4        610681a0     kernel32:KERNEL32.dll
 0002:000001a4       __imp__CreateThread@24     610681a4     kernel32:KERNEL32.dll
 0002:000001a8       __imp__HeapCreate@12       610681a8     kernel32:KERNEL32.dll
 0002:000001ac       __imp__HeapDestroy@4       610681ac     kernel32:KERNEL32.dll
 0002:000001b0       __imp__GetCommandLineA@0   610681b0     kernel32:KERNEL32.dll
 0002:000001b4       __imp__GetModuleHandleW@4  610681b4     kernel32:KERNEL32.dll
 0002:000001b8       __imp__ExitProcess@4       610681b8     kernel32:KERNEL32.dll
 0002:000001bc       __imp__RaiseException@16   610681bc     kernel32:KERNEL32.dll
 0002:000001c0       __imp__TerminateProcess@8  610681c0     kernel32:KERNEL32.dll
 0002:000001c4       __imp__GetCurrentProcess@0 610681c4     kernel32:KERNEL32.dll
 0002:000001c8       __imp__UnhandledExceptionFilter@4 610681c8     kernel32:KERNEL32.dll
 0002:000001cc       __imp__SetUnhandledExceptionFilter@4 610681cc     kernel32:KERNEL32.dll
 0002:000001d0       __imp__IsDebuggerPresent@0 610681d0     kernel32:KERNEL32.dll
 0002:000001d4       __imp__IsProcessorFeaturePresent@4 610681d4     kernel32:KERNEL32.dll
 0002:000001d8       __imp__Sleep@4             610681d8     kernel32:KERNEL32.dll
 0002:000001dc       __imp__HeapSize@12         610681dc     kernel32:KERNEL32.dll
 0002:000001e0       __imp__TlsAlloc@0          610681e0     kernel32:KERNEL32.dll
 0002:000001e4       __imp__TlsGetValue@4       610681e4     kernel32:KERNEL32.dll
 0002:000001e8       __imp__TlsSetValue@8       610681e8     kernel32:KERNEL32.dll
 0002:000001ec       __imp__TlsFree@4           610681ec     kernel32:KERNEL32.dll
 0002:000001f0       __imp__InterlockedIncrement@4 610681f0     kernel32:KERNEL32.dll
 0002:000001f4       __imp__InterlockedDecrement@4 610681f4     kernel32:KERNEL32.dll
 0002:000001f8       __imp__GetCPInfo@8         610681f8     kernel32:KERNEL32.dll
 0002:000001fc       __imp__GetACP@0            610681fc     kernel32:KERNEL32.dll
 0002:00000200       __imp__GetOEMCP@0          61068200     kernel32:KERNEL32.dll
 0002:00000204       __imp__IsValidCodePage@4   61068204     kernel32:KERNEL32.dll
 0002:00000208       __imp__SetHandleCount@4    61068208     kernel32:KERNEL32.dll
 0002:0000020c       __imp__InitializeCriticalSectionAndSpinCount@8 6106820c     kernel32:KERNEL32.dll
 0002:00000210       \177KERNEL32_NULL_THUNK_DATA 61068210     kernel32:KERNEL32.dll
 0002:00000214       __imp__GetFileVersionInfoSizeW@8 61068214     version:VERSION.dll
 0002:00000218       __imp__VerQueryValueW@16   61068218     version:VERSION.dll
 0002:0000021c       __imp__GetFileVersionInfoW@16 6106821c     version:VERSION.dll
 0002:00000220       \177VERSION_NULL_THUNK_DATA 61068220     version:VERSION.dll
 0002:00000224       __imp__WinVerifyTrust@12   61068224     wintrust:WINTRUST.dll
 0002:00000228       \177WINTRUST_NULL_THUNK_DATA 61068228     wintrust:WINTRUST.dll
 0002:0000022c       __imp__ImageUnload@4       6106822c     imagehlp:imagehlp.dll
 0002:00000230       __imp__ImageLoad@8         61068230     imagehlp:imagehlp.dll
 0002:00000234       \177imagehlp_NULL_THUNK_DATA 61068234     imagehlp:imagehlp.dll
 0002:00000238       __imp__StgOpenStorageEx@32 61068238     ole32:ole32.dll
 0002:0000023c       __imp__PropVariantClear@4  6106823c     ole32:ole32.dll
 0002:00000240       \177ole32_NULL_THUNK_DATA  61068240     ole32:ole32.dll
 0002:00000244       ___xc_a                    61068244     LIBCMT:crt0init.obj
 0002:00000264       ___xc_z                    61068264     LIBCMT:crt0init.obj
 0002:00000268       ___xi_a                    61068268     LIBCMT:crt0init.obj
 0002:0000027c       ___xi_z                    6106827c     LIBCMT:crt0init.obj
 0002:00000280       ___xp_a                    61068280     LIBCMT:crt0init.obj
 0002:0000028c       ___xp_z                    6106828c     LIBCMT:crt0init.obj
 0002:00000290       ___xt_a                    61068290     LIBCMT:crt0init.obj
 0002:00000294       ___xt_z                    61068294     LIBCMT:crt0init.obj
 0002:000002bc       _IID_IPropertySetStorage   610682bc     uuid:propidl_i.obj
 0002:000002cc       _FMTID_SummaryInformation  610682cc     uuid:sifmt_i.obj
 0002:000002dc       ??_7_com_error@@6B@        610682dc     comsuppw:comraise.obj
 0002:000002e4       ??_7logic_error@std@@6B@   610682e4     libcpmt:xthrow.obj
 0002:000002f0       ??_7length_error@std@@6B@  610682f0     libcpmt:xthrow.obj
 0002:000002fc       ??_7out_of_range@std@@6B@  610682fc     libcpmt:xthrow.obj
 0002:00000308       ??_7exception@std@@6B@     61068308     LIBCMT:stdexcpt.obj
 0002:00000310       ??_C@_0BC@EOODALEL@Unknown?5exception?$AA@ 61068310     LIBCMT:stdexcpt.obj
 0002:00000328       ??_7type_info@@6B@         61068328     LIBCMT:typinfo.obj
 0002:00000330       ??_7bad_alloc@std@@6B@     61068330     LIBCMT:new.obj
 0002:00000338       __pDefaultRawDllMain       61068338     LIBCMT:dllcrt0.obj
 0002:00000338       __pRawDllMain              61068338     LIBCMT:dllcrt0.obj
 0002:0000033c       ??_C@_0P@MIGLKIOC@CorExitProcess?$AA@ 6106833c     LIBCMT:crt0dat.obj
 0002:0000034c       ??_C@_1BI@BGOHAHKC@?$AAm?$AAs?$AAc?$AAo?$AAr?$AAe?$AAe?$AA?4?$AAd?$AAl?$AAl?$AA?$AA@ 6106834c     LIBCMT:crt0dat.obj
 0002:00000384       __FPinit                   61068384     LIBCMT:_fpinit_.obj
 0002:00000390       ??_C@_1BO@BKOMIGKJ@?$AAr?$AAu?$AAn?$AAt?$AAi?$AAm?$AAe?$AA?5?$AAe?$AAr?$AAr?$AAo?$AAr?$AA?5?$AA?$AA@ 61068390     LIBCMT:crt0msg.obj
 0002:000003b0       ??_C@_15JNBOKNOG@?$AA?$AN?$AA?6?$AA?$AA@ 610683b0     LIBCMT:crt0msg.obj
 0002:000003b8       ??_C@_1BM@JBBEPPHI@?$AAT?$AAL?$AAO?$AAS?$AAS?$AA?5?$AAe?$AAr?$AAr?$AAo?$AAr?$AA?$AN?$AA?6?$AA?$AA@ 610683b8     LIBCMT:crt0msg.obj
 0002:000003d4       ??_C@_1BK@KMOMNAAI@?$AAS?$AAI?$AAN?$AAG?$AA?5?$AAe?$AAr?$AAr?$AAo?$AAr?$AA?$AN?$AA?6?$AA?$AA@ 610683d4     LIBCMT:crt0msg.obj
 0002:000003f0       ??_C@_1BO@BFCDCGC@?$AAD?$AAO?$AAM?$AAA?$AAI?$AAN?$AA?5?$AAe?$AAr?$AAr?$AAo?$AAr?$AA?$AN?$AA?6?$AA?$AA@ 610683f0     LIBCMT:crt0msg.obj
 0002:00000410       ??_C@_1BOO@KGEDBGAJ@?$AAR?$AA6?$AA0?$AA3?$AA3?$AA?$AN?$AA?6?$AA?9?$AA?5?$AAA?$AAt?$AAt?$AAe?$AAm?$AAp?$AAt?$AA?5?$AAt?$AAo?$AA?5?$AAu?$AAs?$AAe?$AA?5?$AAM?$AAS?$AAI?$AAL?$AA?5?$AAc?$AAo?$AAd@ 61068410     LIBCMT:crt0msg.obj
 0002:00000600       ??_C@_1GG@GOPILAJP@?$AAR?$AA6?$AA0?$AA3?$AA2?$AA?$AN?$AA?6?$AA?9?$AA?5?$AAn?$AAo?$AAt?$AA?5?$AAe?$AAn?$AAo?$AAu?$AAg?$AAh?$AA?5?$AAs?$AAp?$AAa?$AAc?$AAe?$AA?5?$AAf?$AAo?$AAr?$AA?5?$AAl?$AAo@ 61068600     LIBCMT:crt0msg.obj
 0002:00000668       ??_C@_1MG@ENCOOIDF@?$AAR?$AA6?$AA0?$AA3?$AA1?$AA?$AN?$AA?6?$AA?9?$AA?5?$AAA?$AAt?$AAt?$AAe?$AAm?$AAp?$AAt?$AA?5?$AAt?$AAo?$AA?5?$AAi?$AAn?$AAi?$AAt?$AAi?$AAa?$AAl?$AAi?$AAz?$AAe?$AA?5?$AAt@ 61068668     LIBCMT:crt0msg.obj
 0002:00000730       ??_C@_1DO@BMFCDCD@?$AAR?$AA6?$AA0?$AA3?$AA0?$AA?$AN?$AA?6?$AA?9?$AA?5?$AAC?$AAR?$AAT?$AA?5?$AAn?$AAo?$AAt?$AA?5?$AAi?$AAn?$AAi?$AAt?$AAi?$AAa?$AAl?$AAi?$AAz?$AAe?$AAd?$AA?$AN?$AA?6?$AA?$AA@ 61068730     LIBCMT:crt0msg.obj
 0002:00000770       ??_C@_1EK@HHFLMAOL@?$AAR?$AA6?$AA0?$AA2?$AA8?$AA?$AN?$AA?6?$AA?9?$AA?5?$AAu?$AAn?$AAa?$AAb?$AAl?$AAe?$AA?5?$AAt?$AAo?$AA?5?$AAi?$AAn?$AAi?$AAt?$AAi?$AAa?$AAl?$AAi?$AAz?$AAe?$AA?5?$AAh?$AAe@ 61068770     LIBCMT:crt0msg.obj
 0002:000007c0       ??_C@_1GK@MFGOKLAG@?$AAR?$AA6?$AA0?$AA2?$AA7?$AA?$AN?$AA?6?$AA?9?$AA?5?$AAn?$AAo?$AAt?$AA?5?$AAe?$AAn?$AAo?$AAu?$AAg?$AAh?$AA?5?$AAs?$AAp?$AAa?$AAc?$AAe?$AA?5?$AAf?$AAo?$AAr?$AA?5?$AAl?$AAo@ 610687c0     LIBCMT:crt0msg.obj
 0002:00000830       ??_C@_1GK@MCAAGJMO@?$AAR?$AA6?$AA0?$AA2?$AA6?$AA?$AN?$AA?6?$AA?9?$AA?5?$AAn?$AAo?$AAt?$AA?5?$AAe?$AAn?$AAo?$AAu?$AAg?$AAh?$AA?5?$AAs?$AAp?$AAa?$AAc?$AAe?$AA?5?$AAf?$AAo?$AAr?$AA?5?$AAs?$AAt@ 61068830     LIBCMT:crt0msg.obj
 0002:000008a0       ??_C@_1EM@MAADIHMB@?$AAR?$AA6?$AA0?$AA2?$AA5?$AA?$AN?$AA?6?$AA?9?$AA?5?$AAp?$AAu?$AAr?$AAe?$AA?5?$AAv?$AAi?$AAr?$AAt?$AAu?$AAa?$AAl?$AA?5?$AAf?$AAu?$AAn?$AAc?$AAt?$AAi?$AAo?$AAn?$AA?5?$AAc@ 610688a0     LIBCMT:crt0msg.obj
 0002:000008f0       ??_C@_1GK@FHCKBEFA@?$AAR?$AA6?$AA0?$AA2?$AA4?$AA?$AN?$AA?6?$AA?9?$AA?5?$AAn?$AAo?$AAt?$AA?5?$AAe?$AAn?$AAo?$AAu?$AAg?$AAh?$AA?5?$AAs?$AAp?$AAa?$AAc?$AAe?$AA?5?$AAf?$AAo?$AAr?$AA?5?$AA_?$AAo@ 610688f0     LIBCMT:crt0msg.obj
 0002:00000960       ??_C@_1FC@ECHBIFBC@?$AAR?$AA6?$AA0?$AA1?$AA9?$AA?$AN?$AA?6?$AA?9?$AA?5?$AAu?$AAn?$AAa?$AAb?$AAl?$AAe?$AA?5?$AAt?$AAo?$AA?5?$AAo?$AAp?$AAe?$AAn?$AA?5?$AAc?$AAo?$AAn?$AAs?$AAo?$AAl?$AAe?$AA?5@ 61068960     LIBCMT:crt0msg.obj
 0002:000009b8       ??_C@_1EC@JIBHAOPH@?$AAR?$AA6?$AA0?$AA1?$AA8?$AA?$AN?$AA?6?$AA?9?$AA?5?$AAu?$AAn?$AAe?$AAx?$AAp?$AAe?$AAc?$AAt?$AAe?$AAd?$AA?5?$AAh?$AAe?$AAa?$AAp?$AA?5?$AAe?$AAr?$AAr?$AAo?$AAr?$AA?$AN?$AA?6@ 610689b8     LIBCMT:crt0msg.obj
 0002:00000a00       ??_C@_1FK@BEOGODMC@?$AAR?$AA6?$AA0?$AA1?$AA7?$AA?$AN?$AA?6?$AA?9?$AA?5?$AAu?$AAn?$AAe?$AAx?$AAp?$AAe?$AAc?$AAt?$AAe?$AAd?$AA?5?$AAm?$AAu?$AAl?$AAt?$AAi?$AAt?$AAh?$AAr?$AAe?$AAa?$AAd?$AA?5@ 61068a00     LIBCMT:crt0msg.obj
 0002:00000a60       ??_C@_1FI@LOGNIKDM@?$AAR?$AA6?$AA0?$AA1?$AA6?$AA?$AN?$AA?6?$AA?9?$AA?5?$AAn?$AAo?$AAt?$AA?5?$AAe?$AAn?$AAo?$AAu?$AAg?$AAh?$AA?5?$AAs?$AAp?$AAa?$AAc?$AAe?$AA?5?$AAf?$AAo?$AAr?$AA?5?$AAt?$AAh@ 61068a60     LIBCMT:crt0msg.obj
 0002:00000ab8       ??_C@_1EG@BEHAGFJD@?$AAR?$AA6?$AA0?$AA1?$AA0?$AA?$AN?$AA?6?$AA?9?$AA?5?$AAa?$AAb?$AAo?$AAr?$AAt?$AA?$CI?$AA?$CJ?$AA?5?$AAh?$AAa?$AAs?$AA?5?$AAb?$AAe?$AAe?$AAn?$AA?5?$AAc?$AAa?$AAl?$AAl?$AAe?$AAd@ 61068ab8     LIBCMT:crt0msg.obj
 0002:00000b00       ??_C@_1FI@HONFMGBI@?$AAR?$AA6?$AA0?$AA0?$AA9?$AA?$AN?$AA?6?$AA?9?$AA?5?$AAn?$AAo?$AAt?$AA?5?$AAe?$AAn?$AAo?$AAu?$AAg?$AAh?$AA?5?$AAs?$AAp?$AAa?$AAc?$AAe?$AA?5?$AAf?$AAo?$AAr?$AA?5?$AAe?$AAn@ 61068b00     LIBCMT:crt0msg.obj
 0002:00000b58       ??_C@_1FE@LLNEDJMD@?$AAR?$AA6?$AA0?$AA0?$AA8?$AA?$AN?$AA?6?$AA?9?$AA?5?$AAn?$AAo?$AAt?$AA?5?$AAe?$AAn?$AAo?$AAu?$AAg?$AAh?$AA?5?$AAs?$AAp?$AAa?$AAc?$AAe?$AA?5?$AAf?$AAo?$AAr?$AA?5?$AAa?$AAr@ 61068b58     LIBCMT:crt0msg.obj
 0002:00000bb0       ??_C@_1FK@PGACCAFB@?$AAR?$AA6?$AA0?$AA0?$AA2?$AA?$AN?$AA?6?$AA?9?$AA?5?$AAf?$AAl?$AAo?$AAa?$AAt?$AAi?$AAn?$AAg?$AA?5?$AAp?$AAo?$AAi?$AAn?$AAt?$AA?5?$AAs?$AAu?$AAp?$AAp?$AAo?$AAr?$AAt?$AA?5@ 61068bb0     LIBCMT:crt0msg.obj
 0002:00000cc0       ??_C@_1EK@MBDPDCGA@?$AAM?$AAi?$AAc?$AAr?$AAo?$AAs?$AAo?$AAf?$AAt?$AA?5?$AAV?$AAi?$AAs?$AAu?$AAa?$AAl?$AA?5?$AAC?$AA?$CL?$AA?$CL?$AA?5?$AAR?$AAu?$AAn?$AAt?$AAi?$AAm?$AAe?$AA?5?$AAL?$AAi?$AAb@ 61068cc0     LIBCMT:crt0msg.obj
 0002:00000d0c       ??_C@_15IABLJNFO@?$AA?6?$AA?6?$AA?$AA@ 61068d0c     LIBCMT:crt0msg.obj
 0002:00000d14       ??_C@_1CO@EAEJAADC@?$AA?$DM?$AAp?$AAr?$AAo?$AAg?$AAr?$AAa?$AAm?$AA?5?$AAn?$AAa?$AAm?$AAe?$AA?5?$AAu?$AAn?$AAk?$AAn?$AAo?$AAw?$AAn?$AA?$DO?$AA?$AA@ 61068d14     LIBCMT:crt0msg.obj
 0002:00000d44       ??_C@_1DE@JNGNBFGO@?$AAR?$AAu?$AAn?$AAt?$AAi?$AAm?$AAe?$AA?5?$AAE?$AAr?$AAr?$AAo?$AAr?$AA?$CB?$AA?6?$AA?6?$AAP?$AAr?$AAo?$AAg?$AAr?$AAa?$AAm?$AA?3?$AA?5?$AA?$AA@ 61068d44     LIBCMT:crt0msg.obj
 0002:00000d78       ??_C@_1BK@DBDEIDLH@?$AAK?$AAE?$AAR?$AAN?$AAE?$AAL?$AA3?$AA2?$AA?4?$AAD?$AAL?$AAL?$AA?$AA@ 61068d78     LIBCMT:tidtable.obj
 0002:00000d94       ??_C@_07PEJMOBNF@FlsFree?$AA@ 61068d94     LIBCMT:tidtable.obj
 0002:00000d9c       ??_C@_0M@JCPCPOEF@FlsSetValue?$AA@ 61068d9c     LIBCMT:tidtable.obj
 0002:00000da8       ??_C@_0M@GDNOONDI@FlsGetValue?$AA@ 61068da8     LIBCMT:tidtable.obj
 0002:00000db4       ??_C@_08KNHFBNJ@FlsAlloc?$AA@ 61068db4     LIBCMT:tidtable.obj
 0002:00000dc0       __XcptActTab               61068dc0     LIBCMT:winxfltr.obj
 0002:00000e50       __First_FPE_Indx           61068e50     LIBCMT:winxfltr.obj
 0002:00000e54       __Num_FPE                  61068e54     LIBCMT:winxfltr.obj
 0002:00000e58       __XcptActTabSize           61068e58     LIBCMT:winxfltr.obj
 0002:00000e5c       __XcptActTabCount          61068e5c     LIBCMT:winxfltr.obj
 0002:00000e60       ??_C@_1BC@GDGBMEMK@?$AAH?$AAH?$AA?3?$AAm?$AAm?$AA?3?$AAs?$AAs?$AA?$AA@ 61068e60     LIBCMT:nlsdata2.obj
 0002:00000e74       ??_C@_1CI@KNAKOEBC@?$AAd?$AAd?$AAd?$AAd?$AA?0?$AA?5?$AAM?$AAM?$AAM?$AAM?$AA?5?$AAd?$AAd?$AA?0?$AA?5?$AAy?$AAy?$AAy?$AAy?$AA?$AA@ 61068e74     LIBCMT:nlsdata2.obj
 0002:00000e9c       ??_C@_1BC@IEBCMHCM@?$AAM?$AAM?$AA?1?$AAd?$AAd?$AA?1?$AAy?$AAy?$AA?$AA@ 61068e9c     LIBCMT:nlsdata2.obj
 0002:00000eb0       ??_C@_15CLMNNGEL@?$AAP?$AAM?$AA?$AA@ 61068eb0     LIBCMT:nlsdata2.obj
 0002:00000eb8       ??_C@_15ODEHAHHF@?$AAA?$AAM?$AA?$AA@ 61068eb8     LIBCMT:nlsdata2.obj
 0002:00000ec0       ??_C@_1BC@FEMKIFH@?$AAD?$AAe?$AAc?$AAe?$AAm?$AAb?$AAe?$AAr?$AA?$AA@ 61068ec0     LIBCMT:nlsdata2.obj
 0002:00000ed4       ??_C@_1BC@BGLIFPF@?$AAN?$AAo?$AAv?$AAe?$AAm?$AAb?$AAe?$AAr?$AA?$AA@ 61068ed4     LIBCMT:nlsdata2.obj
 0002:00000ee8       ??_C@_1BA@EPANDLNG@?$AAO?$AAc?$AAt?$AAo?$AAb?$AAe?$AAr?$AA?$AA@ 61068ee8     LIBCMT:nlsdata2.obj
 0002:00000ef8       ??_C@_1BE@DKAAMBJL@?$AAS?$AAe?$AAp?$AAt?$AAe?$AAm?$AAb?$AAe?$AAr?$AA?$AA@ 61068ef8     LIBCMT:nlsdata2.obj
 0002:00000f0c       ??_C@_1O@PAHLKOAC@?$AAA?$AAu?$AAg?$AAu?$AAs?$AAt?$AA?$AA@ 61068f0c     LIBCMT:nlsdata2.obj
 0002:00000f1c       ??_C@_19BIFMLPCD@?$AAJ?$AAu?$AAl?$AAy?$AA?$AA@ 61068f1c     LIBCMT:nlsdata2.obj
 0002:00000f28       ??_C@_19EPFLPGAP@?$AAJ?$AAu?$AAn?$AAe?$AA?$AA@ 61068f28     LIBCMT:nlsdata2.obj
 0002:00000f34       ??_C@_1M@GJNLMHFD@?$AAA?$AAp?$AAr?$AAi?$AAl?$AA?$AA@ 61068f34     LIBCMT:nlsdata2.obj
 0002:00000f40       ??_C@_1M@IKEENEDF@?$AAM?$AAa?$AAr?$AAc?$AAh?$AA?$AA@ 61068f40     LIBCMT:nlsdata2.obj
 0002:00000f4c       ??_C@_1BC@JGDDFFAM@?$AAF?$AAe?$AAb?$AAr?$AAu?$AAa?$AAr?$AAy?$AA?$AA@ 61068f4c     LIBCMT:nlsdata2.obj
 0002:00000f60       ??_C@_1BA@EFMEIEBA@?$AAJ?$AAa?$AAn?$AAu?$AAa?$AAr?$AAy?$AA?$AA@ 61068f60     LIBCMT:nlsdata2.obj
 0002:00000f70       ??_C@_17EGKACKIF@?$AAD?$AAe?$AAc?$AA?$AA@ 61068f70     LIBCMT:nlsdata2.obj
 0002:00000f78       ??_C@_17BBDMLCIG@?$AAN?$AAo?$AAv?$AA?$AA@ 61068f78     LIBCMT:nlsdata2.obj
 0002:00000f80       ??_C@_17FNLKOI@?$AAO?$AAc?$AAt?$AA?$AA@ 61068f80     LIBCMT:nlsdata2.obj
 0002:00000f88       ??_C@_17HCHCOKMG@?$AAS?$AAe?$AAp?$AA?$AA@ 61068f88     LIBCMT:nlsdata2.obj
 0002:00000f90       ??_C@_17ICPELBCN@?$AAA?$AAu?$AAg?$AA?$AA@ 61068f90     LIBCMT:nlsdata2.obj
 0002:00000f98       ??_C@_17IJPCKHK@?$AAJ?$AAu?$AAl?$AA?$AA@ 61068f98     LIBCMT:nlsdata2.obj
 0002:00000fa0       ??_C@_17KCJGOCPB@?$AAJ?$AAu?$AAn?$AA?$AA@ 61068fa0     LIBCMT:nlsdata2.obj
 0002:00000fa8       ??_C@_17PNNKMEED@?$AAM?$AAa?$AAy?$AA?$AA@ 61068fa8     LIBCMT:nlsdata2.obj
 0002:00000fb0       ??_C@_17LFPOIHDD@?$AAA?$AAp?$AAr?$AA?$AA@ 61068fb0     LIBCMT:nlsdata2.obj
 0002:00000fb8       ??_C@_17CKNLEDEC@?$AAM?$AAa?$AAr?$AA?$AA@ 61068fb8     LIBCMT:nlsdata2.obj
 0002:00000fc0       ??_C@_17LMDJEKJN@?$AAF?$AAe?$AAb?$AA?$AA@ 61068fc0     LIBCMT:nlsdata2.obj
 0002:00000fc8       ??_C@_17DKNBKCHM@?$AAJ?$AAa?$AAn?$AA?$AA@ 61068fc8     LIBCMT:nlsdata2.obj
 0002:00000fd0       ??_C@_1BC@ENMNNPAJ@?$AAS?$AAa?$AAt?$AAu?$AAr?$AAd?$AAa?$AAy?$AA?$AA@ 61068fd0     LIBCMT:nlsdata2.obj
 0002:00000fe4       ??_C@_1O@PDICJHAG@?$AAF?$AAr?$AAi?$AAd?$AAa?$AAy?$AA?$AA@ 61068fe4     LIBCMT:nlsdata2.obj
 0002:00000ff4       ??_C@_1BC@HHMNLIHE@?$AAT?$AAh?$AAu?$AAr?$AAs?$AAd?$AAa?$AAy?$AA?$AA@ 61068ff4     LIBCMT:nlsdata2.obj
 0002:00001008       ??_C@_1BE@EBOGMDOH@?$AAW?$AAe?$AAd?$AAn?$AAe?$AAs?$AAd?$AAa?$AAy?$AA?$AA@ 61069008     LIBCMT:nlsdata2.obj
 0002:0000101c       ??_C@_1BA@ENFBFFEK@?$AAT?$AAu?$AAe?$AAs?$AAd?$AAa?$AAy?$AA?$AA@ 6106901c     LIBCMT:nlsdata2.obj
 0002:0000102c       ??_C@_1O@MMNBFLIA@?$AAM?$AAo?$AAn?$AAd?$AAa?$AAy?$AA?$AA@ 6106902c     LIBCMT:nlsdata2.obj
 0002:0000103c       ??_C@_1O@IHNHDHPB@?$AAS?$AAu?$AAn?$AAd?$AAa?$AAy?$AA?$AA@ 6106903c     LIBCMT:nlsdata2.obj
 0002:0000104c       ??_C@_17GGIBDPIH@?$AAS?$AAa?$AAt?$AA?$AA@ 6106904c     LIBCMT:nlsdata2.obj
 0002:00001054       ??_C@_17HFOLPPLP@?$AAF?$AAr?$AAi?$AA?$AA@ 61069054     LIBCMT:nlsdata2.obj
 0002:0000105c       ??_C@_17PDPHAADD@?$AAT?$AAh?$AAu?$AA?$AA@ 6106905c     LIBCMT:nlsdata2.obj
 0002:00001064       ??_C@_17CJEDCEPE@?$AAW?$AAe?$AAd?$AA?$AA@ 61069064     LIBCMT:nlsdata2.obj
 0002:0000106c       ??_C@_17BMKGEGOJ@?$AAT?$AAu?$AAe?$AA?$AA@ 6106906c     LIBCMT:nlsdata2.obj
 0002:00001074       ??_C@_17KBOMKBF@?$AAM?$AAo?$AAn?$AA?$AA@ 61069074     LIBCMT:nlsdata2.obj
 0002:0000107c       ??_C@_17MBGCMIPB@?$AAS?$AAu?$AAn?$AA?$AA@ 6106907c     LIBCMT:nlsdata2.obj
 0002:00001084       ??_C@_08JCCMCCIL@HH?3mm?3ss?$AA@ 61069084     LIBCMT:nlsdata2.obj
 0002:00001090       ??_C@_0BE@CKGJFCPC@dddd?0?5MMMM?5dd?0?5yyyy?$AA@ 61069090     LIBCMT:nlsdata2.obj
 0002:000010a4       ??_C@_08BPBNCDIB@MM?1dd?1yy?$AA@ 610690a4     LIBCMT:nlsdata2.obj
 0002:000010b0       ??_C@_02CJNFDJBF@PM?$AA@   610690b0     LIBCMT:nlsdata2.obj
 0002:000010b4       ??_C@_02DEDBPAFC@AM?$AA@   610690b4     LIBCMT:nlsdata2.obj
 0002:000010b8       ??_C@_08EDHMEBNP@December?$AA@ 610690b8     LIBCMT:nlsdata2.obj
 0002:000010c4       ??_C@_08HCHEGEOA@November?$AA@ 610690c4     LIBCMT:nlsdata2.obj
 0002:000010d0       ??_C@_07JJNFCEND@October?$AA@ 610690d0     LIBCMT:nlsdata2.obj
 0002:000010d8       ??_C@_09BHHEALKD@September?$AA@ 610690d8     LIBCMT:nlsdata2.obj
 0002:000010e4       ??_C@_06LBBHFDDG@August?$AA@ 610690e4     LIBCMT:nlsdata2.obj
 0002:000010ec       ??_C@_04MIEPOIFP@July?$AA@ 610690ec     LIBCMT:nlsdata2.obj
 0002:000010f4       ??_C@_04CNLMGBGM@June?$AA@ 610690f4     LIBCMT:nlsdata2.obj
 0002:000010fc       ??_C@_05DMJDNLEJ@April?$AA@ 610690fc     LIBCMT:nlsdata2.obj
 0002:00001104       ??_C@_05HPCKOFNC@March?$AA@ 61069104     LIBCMT:nlsdata2.obj
 0002:0000110c       ??_C@_08GNJGEPFN@February?$AA@ 6106910c     LIBCMT:nlsdata2.obj
 0002:00001118       ??_C@_07CGJPFGJA@January?$AA@ 61069118     LIBCMT:nlsdata2.obj
 0002:00001120       ??_C@_03MKABNOCG@Dec?$AA@  61069120     LIBCMT:nlsdata2.obj
 0002:00001124       ??_C@_03JPJOFNIA@Nov?$AA@  61069124     LIBCMT:nlsdata2.obj
 0002:00001128       ??_C@_03BMAOKBAD@Oct?$AA@  61069128     LIBCMT:nlsdata2.obj
 0002:0000112c       ??_C@_03GGCAPAJC@Sep?$AA@  6106912c     LIBCMT:nlsdata2.obj
 0002:00001130       ??_C@_03IFJFEIGA@Aug?$AA@  61069130     LIBCMT:nlsdata2.obj
 0002:00001134       ??_C@_03LBGABGKK@Jul?$AA@  61069134     LIBCMT:nlsdata2.obj
 0002:00001138       ??_C@_03IDFGHECI@Jun?$AA@  61069138     LIBCMT:nlsdata2.obj
 0002:0000113c       ??_C@_03CNMDKL@May?$AA@    6106913c     LIBCMT:nlsdata2.obj
 0002:00001140       ??_C@_03LEOLGMJP@Apr?$AA@  61069140     LIBCMT:nlsdata2.obj
 0002:00001144       ??_C@_03ODNJBKGA@Mar?$AA@  61069144     LIBCMT:nlsdata2.obj
 0002:00001148       ??_C@_03HJBDCHOM@Feb?$AA@  61069148     LIBCMT:nlsdata2.obj
 0002:0000114c       ??_C@_03JIHJHPIE@Jan?$AA@  6106914c     LIBCMT:nlsdata2.obj
 0002:00001150       ??_C@_08INBOOONO@Saturday?$AA@ 61069150     LIBCMT:nlsdata2.obj
 0002:0000115c       ??_C@_06JECMNKMI@Friday?$AA@ 6106915c     LIBCMT:nlsdata2.obj
 0002:00001164       ??_C@_08HACCIKIA@Thursday?$AA@ 61069164     LIBCMT:nlsdata2.obj
 0002:00001170       ??_C@_09DLIGFAKA@Wednesday?$AA@ 61069170     LIBCMT:nlsdata2.obj
 0002:0000117c       ??_C@_07BAAGCFCM@Tuesday?$AA@ 6106917c     LIBCMT:nlsdata2.obj
 0002:00001184       ??_C@_06JLEDEDGH@Monday?$AA@ 61069184     LIBCMT:nlsdata2.obj
 0002:0000118c       ??_C@_06OOPIFAJ@Sunday?$AA@ 6106918c     LIBCMT:nlsdata2.obj
 0002:00001194       ??_C@_03FEFJNEK@Sat?$AA@   61069194     LIBCMT:nlsdata2.obj
 0002:00001198       ??_C@_03IDIOELNC@Fri?$AA@  61069198     LIBCMT:nlsdata2.obj
 0002:0000119c       ??_C@_03IOFIKPDN@Thu?$AA@  6106919c     LIBCMT:nlsdata2.obj
 0002:000011a0       ??_C@_03MHOMLAJA@Wed?$AA@  610691a0     LIBCMT:nlsdata2.obj
 0002:000011a4       ??_C@_03NAGEINEP@Tue?$AA@  610691a4     LIBCMT:nlsdata2.obj
 0002:000011a8       ??_C@_03PDAGKDH@Mon?$AA@   610691a8     LIBCMT:nlsdata2.obj
 0002:000011ac       ??_C@_03KOEHGMDN@Sun?$AA@  610691ac     LIBCMT:nlsdata2.obj
 0002:00001230       ??_C@_01NEMOKFLO@?$DN?$AA@ 61069230     LIBCMT:setlocal.obj
 0002:00001234       ??_C@_1O@CEDCILHN@?$AA?$CI?$AAn?$AAu?$AAl?$AAl?$AA?$CJ?$AA?$AA@ 61069234     LIBCMT:output.obj
 0002:00001244       ??_C@_06OJHGLDPL@?$CInull?$CJ?$AA@ 61069244     LIBCMT:output.obj
 0002:00001250       ___lookuptable             61069250     LIBCMT:output.obj
 0002:000012b0       ___lookuptable_s           610692b0     LIBCMT:outputs.obj
 0002:0000130c       ??_C@_0BG@KLEAJEFJ@Illegal?5byte?5sequence?$AA@ 6106930c     LIBCMT:syserr.obj
 0002:00001324       ??_C@_0BE@ICMCHPHH@Directory?5not?5empty?$AA@ 61069324     LIBCMT:syserr.obj
 0002:00001338       ??_C@_0BJ@IHEHINLI@Function?5not?5implemented?$AA@ 61069338     LIBCMT:syserr.obj
 0002:00001354       ??_C@_0BD@CLHBCGPB@No?5locks?5available?$AA@ 61069354     LIBCMT:syserr.obj
 0002:00001368       ??_C@_0BC@BEDIHIDK@Filename?5too?5long?$AA@ 61069368     LIBCMT:syserr.obj
 0002:0000137c       ??_C@_0BK@JAEBMJJM@Resource?5deadlock?5avoided?$AA@ 6106937c     LIBCMT:syserr.obj
 0002:00001398       ??_C@_0BB@FCBJFCAJ@Result?5too?5large?$AA@ 61069398     LIBCMT:syserr.obj
 0002:000013ac       ??_C@_0N@MMJPGLJK@Domain?5error?$AA@ 610693ac     LIBCMT:syserr.obj
 0002:000013bc       ??_C@_0M@LHEPIIOM@Broken?5pipe?$AA@ 610693bc     LIBCMT:syserr.obj
 0002:000013c8       ??_C@_0P@PKCJJLLM@Too?5many?5links?$AA@ 610693c8     LIBCMT:syserr.obj
 0002:000013d8       ??_C@_0BG@DDBFNKBH@Read?9only?5file?5system?$AA@ 610693d8     LIBCMT:syserr.obj
 0002:000013f0       ??_C@_0N@FEHLOILP@Invalid?5seek?$AA@ 610693f0     LIBCMT:syserr.obj
 0002:00001400       ??_C@_0BI@FEALHKLD@No?5space?5left?5on?5device?$AA@ 61069400     LIBCMT:syserr.obj
 0002:00001418       ??_C@_0P@LFMMIPAE@File?5too?5large?$AA@ 61069418     LIBCMT:syserr.obj
 0002:00001428       ??_C@_0CE@ONOKNLPF@Inappropriate?5I?1O?5control?5operat@ 61069428     LIBCMT:syserr.obj
 0002:0000144c       ??_C@_0BE@INBJMKGG@Too?5many?5open?5files?$AA@ 6106944c     LIBCMT:syserr.obj
 0002:00001460       ??_C@_0BO@IIFBODJE@Too?5many?5open?5files?5in?5system?$AA@ 61069460     LIBCMT:syserr.obj
 0002:00001480       ??_C@_0BB@HMGGCEBG@Invalid?5argument?$AA@ 61069480     LIBCMT:syserr.obj
 0002:00001494       ??_C@_0P@NDHGCGKE@Is?5a?5directory?$AA@ 61069494     LIBCMT:syserr.obj
 0002:000014a4       ??_C@_0BA@CJBACOOL@Not?5a?5directory?$AA@ 610694a4     LIBCMT:syserr.obj
 0002:000014b4       ??_C@_0P@NLEIANHE@No?5such?5device?$AA@ 610694b4     LIBCMT:syserr.obj
 0002:000014c4       ??_C@_0O@OAMDNOCP@Improper?5link?$AA@ 610694c4     LIBCMT:syserr.obj
 0002:000014d4       ??_C@_0M@NAAJNNGH@File?5exists?$AA@ 610694d4     LIBCMT:syserr.obj
 0002:000014e0       ??_C@_0BA@BIBLIOEK@Resource?5device?$AA@ 610694e0     LIBCMT:syserr.obj
 0002:000014f0       ??_C@_0O@NIPGCINC@Unknown?5error?$AA@ 610694f0     LIBCMT:syserr.obj
 0002:00001500       ??_C@_0M@LOEHLCJD@Bad?5address?$AA@ 61069500     LIBCMT:syserr.obj
 0002:0000150c       ??_C@_0BC@HFNFNKAI@Permission?5denied?$AA@ 6106950c     LIBCMT:syserr.obj
 0002:00001520       ??_C@_0BB@IMDKMPFB@Not?5enough?5space?$AA@ 61069520     LIBCMT:syserr.obj
 0002:00001534       ??_C@_0CB@EPFKGNAK@Resource?5temporarily?5unavailable@ 61069534     LIBCMT:syserr.obj
 0002:00001558       ??_C@_0BD@LOHELEP@No?5child?5processes?$AA@ 61069558     LIBCMT:syserr.obj
 0002:0000156c       ??_C@_0BE@NFGDDCEF@Bad?5file?5descriptor?$AA@ 6106956c     LIBCMT:syserr.obj
 0002:00001580       ??_C@_0BC@HKPNECK@Exec?5format?5error?$AA@ 61069580     LIBCMT:syserr.obj
 0002:00001594       ??_C@_0BC@MFFGCDFL@Arg?5list?5too?5long?$AA@ 61069594     LIBCMT:syserr.obj
 0002:000015a8       ??_C@_0BK@DPKMCKJ@No?5such?5device?5or?5address?$AA@ 610695a8     LIBCMT:syserr.obj
 0002:000015c4       ??_C@_0BD@KKNFOBBD@Input?1output?5error?$AA@ 610695c4     LIBCMT:syserr.obj
 0002:000015d8       ??_C@_0BK@FJBOAFDK@Interrupted?5function?5call?$AA@ 610695d8     LIBCMT:syserr.obj
 0002:000015f4       ??_C@_0BA@FKIAIBGA@No?5such?5process?$AA@ 610695f4     LIBCMT:syserr.obj
 0002:00001604       ??_C@_0BK@FMDHKPNF@No?5such?5file?5or?5directory?$AA@ 61069604     LIBCMT:syserr.obj
 0002:00001620       ??_C@_0BI@BJFCGOHL@Operation?5not?5permitted?$AA@ 61069620     LIBCMT:syserr.obj
 0002:00001638       ??_C@_08INEPGKHH@No?5error?$AA@ 61069638     LIBCMT:syserr.obj
 0002:00001644       ___dnames                  61069644     LIBCMT:timeset.obj
 0002:0000165c       ___mnames                  6106965c     LIBCMT:timeset.obj
 0002:000016dc       ??_C@_05KLBDPFGC@e?$CL000?$AA@ 610696dc     LIBCMT:cvt.obj
 0002:000016e4       ??_C@_0BK@CFCOFLF@?5Complete?5Object?5Locator?8?$AA@ 610696e4     LIBCMT:undname.obj
 0002:00001700       ??_C@_0BN@MECKDCOJ@?5Class?5Hierarchy?5Descriptor?8?$AA@ 61069700     LIBCMT:undname.obj
 0002:00001720       ??_C@_0BD@LGICGFMM@?5Base?5Class?5Array?8?$AA@ 61069720     LIBCMT:undname.obj
 0002:00001734       ??_C@_0BM@LDKODKLH@?5Base?5Class?5Descriptor?5at?5?$CI?$AA@ 61069734     LIBCMT:undname.obj
 0002:00001750       ??_C@_0BC@DAFEJGAK@?5Type?5Descriptor?8?$AA@ 61069750     LIBCMT:undname.obj
 0002:00001764       ??_C@_0BM@PMGGMLDN@?$GAlocal?5static?5thread?5guard?8?$AA@ 61069764     LIBCMT:undname.obj
 0002:00001780       ??_C@_0CL@FGIJHLCE@?$GAmanaged?5vector?5copy?5constructor@ 61069780     LIBCMT:undname.obj
 0002:000017ac       ??_C@_0CJ@GJELGAMM@?$GAvector?5vbase?5copy?5constructor?5i@ 610697ac     LIBCMT:undname.obj
 0002:000017d8       ??_C@_0CD@CGAJBKEJ@?$GAvector?5copy?5constructor?5iterato@ 610697d8     LIBCMT:undname.obj
 0002:000017fc       ??_C@_0CB@PDBIFEP@?$GAdynamic?5atexit?5destructor?5for?5?8@ 610697fc     LIBCMT:undname.obj
 0002:00001820       ??_C@_0BL@CLIPGLGB@?$GAdynamic?5initializer?5for?5?8?$AA@ 61069820     LIBCMT:undname.obj
 0002:0000183c       ??_C@_0CM@FCBBDIGB@?$GAeh?5vector?5vbase?5copy?5constructo@ 6106983c     LIBCMT:undname.obj
 0002:00001868       ??_C@_0CG@HLDDJMAG@?$GAeh?5vector?5copy?5constructor?5iter@ 61069868     LIBCMT:undname.obj
 0002:00001890       ??_C@_0CF@IMGKMJNO@?$GAmanaged?5vector?5destructor?5itera@ 61069890     LIBCMT:undname.obj
 0002:000018b8       ??_C@_0CG@CFDHKGGD@?$GAmanaged?5vector?5constructor?5iter@ 610698b8     LIBCMT:undname.obj
 0002:000018e0       ??_C@_0BN@CKNJLHMB@?$GAplacement?5delete?$FL?$FN?5closure?8?$AA@ 610698e0     LIBCMT:undname.obj
 0002:00001900       ??_C@_0BL@CNOONJFP@?$GAplacement?5delete?5closure?8?$AA@ 61069900     LIBCMT:undname.obj
 0002:0000191c       ??_C@_0P@HJKNJFNN@?$GAomni?5callsig?8?$AA@ 6106991c     LIBCMT:undname.obj
 0002:0000192c       ??_C@_09LBNFPBCA@?5delete?$FL?$FN?$AA@ 6106992c     LIBCMT:undname.obj
 0002:00001938       ??_C@_06FHBGPFGH@?5new?$FL?$FN?$AA@ 61069938     LIBCMT:undname.obj
 0002:00001940       ??_C@_0CE@IIHCMGGL@?$GAlocal?5vftable?5constructor?5closu@ 61069940     LIBCMT:undname.obj
 0002:00001964       ??_C@_0BA@KKLDJDLB@?$GAlocal?5vftable?8?$AA@ 61069964     LIBCMT:undname.obj
 0002:00001974       ??_C@_05KHLCHHI@?$GARTTI?$AA@ 61069974     LIBCMT:undname.obj
 0002:0000197c       ??_C@_03KLGMFNMG@?$GAEH?$AA@ 6106997c     LIBCMT:undname.obj
 0002:00001980       ??_C@_0BA@KBCDOMBN@?$GAudt?5returning?8?$AA@ 61069980     LIBCMT:undname.obj
 0002:00001990       ??_C@_0BL@LLKPOHJI@?$GAcopy?5constructor?5closure?8?$AA@ 61069990     LIBCMT:undname.obj
 0002:000019ac       ??_C@_0CH@OOJPLCPH@?$GAeh?5vector?5vbase?5constructor?5ite@ 610699ac     LIBCMT:undname.obj
 0002:000019d4       ??_C@_0CA@GCEOPDGL@?$GAeh?5vector?5destructor?5iterator?8?$AA@ 610699d4     LIBCMT:undname.obj
 0002:000019f4       ??_C@_0CB@JONCMFFK@?$GAeh?5vector?5constructor?5iterator?8@ 610699f4     LIBCMT:undname.obj
 0002:00001a18       ??_C@_0BL@NILFHHPC@?$GAvirtual?5displacement?5map?8?$AA@ 61069a18     LIBCMT:undname.obj
 0002:00001a34       ??_C@_0CE@IKBNEHA@?$GAvector?5vbase?5constructor?5iterat@ 61069a34     LIBCMT:undname.obj
 0002:00001a58       ??_C@_0BN@LFPFMEDL@?$GAvector?5destructor?5iterator?8?$AA@ 61069a58     LIBCMT:undname.obj
 0002:00001a78       ??_C@_0BO@PFGOCPJJ@?$GAvector?5constructor?5iterator?8?$AA@ 61069a78     LIBCMT:undname.obj
 0002:00001a98       ??_C@_0BN@IMDCHIKM@?$GAscalar?5deleting?5destructor?8?$AA@ 61069a98     LIBCMT:undname.obj
 0002:00001ab8       ??_C@_0BO@OBMKPJIG@?$GAdefault?5constructor?5closure?8?$AA@ 61069ab8     LIBCMT:undname.obj
 0002:00001ad8       ??_C@_0BN@DEGPLNFK@?$GAvector?5deleting?5destructor?8?$AA@ 61069ad8     LIBCMT:undname.obj
 0002:00001af8       ??_C@_0BD@JDLKDPAB@?$GAvbase?5destructor?8?$AA@ 61069af8     LIBCMT:undname.obj
 0002:00001b0c       ??_C@_08OBABFOLI@?$GAstring?8?$AA@ 61069b0c     LIBCMT:undname.obj
 0002:00001b18       ??_C@_0BF@KDPPACIK@?$GAlocal?5static?5guard?8?$AA@ 61069b18     LIBCMT:undname.obj
 0002:00001b30       ??_C@_08LLFFHHDJ@?$GAtypeof?8?$AA@ 61069b30     LIBCMT:undname.obj
 0002:00001b3c       ??_C@_07FEEIOKP@?$GAvcall?8?$AA@ 61069b3c     LIBCMT:undname.obj
 0002:00001b44       ??_C@_09BLBHBJP@?$GAvbtable?8?$AA@ 61069b44     LIBCMT:undname.obj
 0002:00001b50       ??_C@_09IFPLHPGF@?$GAvftable?8?$AA@ 61069b50     LIBCMT:undname.obj
 0002:00001b5c       ??_C@_02MHEGNOJ@?$FO?$DN?$AA@ 61069b5c     LIBCMT:undname.obj
 0002:00001b60       ??_C@_02DHLNPPGH@?$HM?$DN?$AA@ 61069b60     LIBCMT:undname.obj
 0002:00001b64       ??_C@_02FGJGFEAB@?$CG?$DN?$AA@ 61069b64     LIBCMT:undname.obj
 0002:00001b68       ??_C@_03CDNPDDLA@?$DM?$DM?$DN?$AA@ 61069b68     LIBCMT:undname.obj
 0002:00001b6c       ??_C@_03IKFCCPFF@?$DO?$DO?$DN?$AA@ 61069b6c     LIBCMT:undname.obj
 0002:00001b70       ??_C@_02FENAOKFI@?$CF?$DN?$AA@ 61069b70     LIBCMT:undname.obj
 0002:00001b74       ??_C@_02FJEHGPIO@?1?$DN?$AA@ 61069b74     LIBCMT:undname.obj
 0002:00001b78       ??_C@_02FKMDLLOA@?9?$DN?$AA@ 61069b78     LIBCMT:undname.obj
 0002:00001b7c       ??_C@_02FOEOMHFC@?$CL?$DN?$AA@ 61069b7c     LIBCMT:undname.obj
 0002:00001b80       ??_C@_02FPIMKNGF@?$CK?$DN?$AA@ 61069b80     LIBCMT:undname.obj
 0002:00001b84       ??_C@_02NONPIBCD@?$HM?$HM?$AA@ 61069b84     LIBCMT:undname.obj
 0002:00001b88       ??_C@_02PPKAJPJL@?$CG?$CG?$AA@ 61069b88     LIBCMT:undname.obj
 0002:00001b8c       ??_C@_01DNKMNLPK@?$HM?$AA@ 61069b8c     LIBCMT:undname.obj
 0002:00001b90       ??_C@_01JKBOJNNK@?$FO?$AA@ 61069b90     LIBCMT:undname.obj
 0002:00001b94       ??_C@_01PJKLJHI@?$HO?$AA@  61069b94     LIBCMT:undname.obj
 0002:00001b98       ??_C@_02HCKGKOFO@?$CI?$CJ?$AA@ 61069b98     LIBCMT:undname.obj
 0002:00001b9c       ??_C@_01IHBHIGKO@?0?$AA@   61069b9c     LIBCMT:undname.obj
 0002:00001ba0       ??_C@_02EEKDKGMJ@?$DO?$DN?$AA@ 61069ba0     LIBCMT:undname.obj
 0002:00001ba4       ??_C@_01PPODPGHN@?$DO?$AA@ 61069ba4     LIBCMT:undname.obj
 0002:00001ba8       ??_C@_02EHCHHCKH@?$DM?$DN?$AA@ 61069ba8     LIBCMT:undname.obj
 0002:00001bac       ??_C@_01MNNFJEPP@?$DM?$AA@ 61069bac     LIBCMT:undname.obj
 0002:00001bb0       ??_C@_01FGNFDNOH@?$CF?$AA@ 61069bb0     LIBCMT:undname.obj
 0002:00001bb4       ??_C@_01KMDKNFGN@?1?$AA@   61069bb4     LIBCMT:undname.obj
 0002:00001bb8       ??_C@_03MNHNFDLC@?9?$DO?$CK?$AA@ 61069bb8     LIBCMT:undname.obj
 0002:00001bbc       ??_C@_01HNPIGOCE@?$CG?$AA@ 61069bbc     LIBCMT:undname.obj
 0002:00001bc0       ??_C@_01MIFGBAGJ@?$CL?$AA@ 61069bc0     LIBCMT:undname.obj
 0002:00001bc4       ??_C@_02BAABKJLB@?9?9?$AA@ 61069bc4     LIBCMT:undname.obj
 0002:00001bc8       ??_C@_02ECNGHCIF@?$CL?$CL?$AA@ 61069bc8     LIBCMT:undname.obj
 0002:00001bcc       ??_C@_01NBENCBCI@?$CK?$AA@ 61069bcc     LIBCMT:undname.obj
 0002:00001bd0       ??_C@_02HBOOOICD@?9?$DO?$AA@ 61069bd0     LIBCMT:undname.obj
 0002:00001bd4       ??_C@_08LHJFAFGD@operator?$AA@ 61069bd4     LIBCMT:undname.obj
 0002:00001be0       ??_C@_02GPECMEKF@?$FL?$FN?$AA@ 61069be0     LIBCMT:undname.obj
 0002:00001be4       ??_C@_02FDNJECIE@?$CB?$DN?$AA@ 61069be4     LIBCMT:undname.obj
 0002:00001be8       ??_C@_02EGOFBIJA@?$DN?$DN?$AA@ 61069be8     LIBCMT:undname.obj
 0002:00001bec       ??_C@_01DCLJPIOD@?$CB?$AA@ 61069bec     LIBCMT:undname.obj
 0002:00001bf0       ??_C@_02FODMEDOG@?$DM?$DM?$AA@ 61069bf0     LIBCMT:undname.obj
 0002:00001bf4       ??_C@_02GPIOPFAK@?$DO?$DO?$AA@ 61069bf4     LIBCMT:undname.obj
 0002:00001bf8       ??_C@_07FPCDHGMM@?5delete?$AA@ 61069bf8     LIBCMT:undname.obj
 0002:00001c00       ??_C@_04NIHEBCM@?5new?$AA@ 61069c00     LIBCMT:undname.obj
 0002:00001c08       ??_C@_0M@GFIIJFMG@__unaligned?$AA@ 61069c08     LIBCMT:undname.obj
 0002:00001c14       ??_C@_0L@PILCLIHE@__restrict?$AA@ 61069c14     LIBCMT:undname.obj
 0002:00001c20       ??_C@_07JOMMBBKO@__ptr64?$AA@ 61069c20     LIBCMT:undname.obj
 0002:00001c28       ??_C@_06GHPCKEAG@__eabi?$AA@ 61069c28     LIBCMT:undname.obj
 0002:00001c30       ??_C@_09HIJEGCPM@__clrcall?$AA@ 61069c30     LIBCMT:undname.obj
 0002:00001c3c       ??_C@_0L@JMKHOMEK@__fastcall?$AA@ 61069c3c     LIBCMT:undname.obj
 0002:00001c48       ??_C@_0L@NPHFGOKO@__thiscall?$AA@ 61069c48     LIBCMT:undname.obj
 0002:00001c54       ??_C@_09IFJBGAPI@__stdcall?$AA@ 61069c54     LIBCMT:undname.obj
 0002:00001c60       ??_C@_08GHMPAG@__pascal?$AA@ 61069c60     LIBCMT:undname.obj
 0002:00001c6c       ??_C@_07KOLFKCDI@__cdecl?$AA@ 61069c6c     LIBCMT:undname.obj
 0002:00001c74       ??_C@_08EHJDFFNH@__based?$CI?$AA@ 61069c74     LIBCMT:undname.obj
 0002:00001e04       ??_C@_0BI@DFKBFLJE@GetProcessWindowStation?$AA@ 61069e04     LIBCMT:crtmboxw.obj
 0002:00001e1c       ??_C@_0BK@DEKFELLI@GetUserObjectInformationW?$AA@ 61069e1c     LIBCMT:crtmboxw.obj
 0002:00001e38       ??_C@_0BD@HHGDFDBJ@GetLastActivePopup?$AA@ 61069e38     LIBCMT:crtmboxw.obj
 0002:00001e4c       ??_C@_0BA@HNOPNCHB@GetActiveWindow?$AA@ 61069e4c     LIBCMT:crtmboxw.obj
 0002:00001e5c       ??_C@_0M@DLDCCGNP@MessageBoxW?$AA@ 61069e5c     LIBCMT:crtmboxw.obj
 0002:00001e68       ??_C@_1BG@GOEBHBDC@?$AAU?$AAS?$AAE?$AAR?$AA3?$AA2?$AA?4?$AAD?$AAL?$AAL?$AA?$AA@ 61069e68     LIBCMT:crtmboxw.obj
 0002:00001e80       ___newctype                61069e80     LIBCMT:ctype.obj
 0002:00002180       __wctype                   6106a180     LIBCMT:ctype.obj
 0002:00002388       ___newclmap                6106a388     LIBCMT:ctype.obj
 0002:00002508       ___newcumap                6106a508     LIBCMT:ctype.obj
 0002:00002688       ??_C@_1BA@BALFACEM@?$AAC?$AAO?$AAN?$AAO?$AAU?$AAT?$AA$?$AA?$AA@ 6106a688     LIBCMT:initcon.obj
 0002:00002698       ??_C@_06IMKFLFPG@1?$CDQNAN?$AA@ 6106a698     LIBCMT:_x10fout_.obj
 0002:000026a0       ??_C@_05DNEBIAHO@1?$CDINF?$AA@ 6106a6a0     LIBCMT:_x10fout_.obj
 0002:000026a8       ??_C@_05PHHOCPM@1?$CDIND?$AA@ 6106a6a8     LIBCMT:_x10fout_.obj
 0002:000026b0       ??_C@_06PGGFOGJG@1?$CDSNAN?$AA@ 6106a6b0     LIBCMT:_x10fout_.obj
 0002:000026b8       ??_C@_1CG@LABMMLDI@?$AAn?$AAf?$AAi?$AA?3?$AAn?$AAf?$AAc?$AA?3?$AAd?$AAe?$AAf?$AAr?$AAa?$AAg?$AA?3?$AAn?$AAf?$AAv?$AA?$AA@ 6106a6b8     main.obj
 0002:000026e0       ??_C@_1M@PHNCLBLI@?$AA?5?$AA?$CI?$AA?$CF?$AAu?$AA?$CJ?$AA?$AA@ 6106a6e0     main.obj
 0002:000026ec       _c_plugin_guid             6106a6ec     main.obj
 0002:000026fc       _c_metadata_dialog_guid    6106a6fc     main.obj
 0002:0000270c       _c_plugin_menu_guid        6106a70c     main.obj
 0002:0000271c       _c_plugin_config_guid      6106a71c     main.obj
 0002:0000272c       _c_error_dialog_guid       6106a72c     main.obj
 0002:0000273c       _c_file_exists_dialog_guid 6106a73c     main.obj
 0002:0000274c       _c_file_saved_dialog_guid  6106a74c     main.obj
 0002:0000275c       _c_content_options_dialog_guid 6106a75c     main.obj
 0002:0000276c       _c_content_result_dialog_guid 6106a76c     main.obj
 0002:0000277c       _c_compress_files_dialog_guid 6106a77c     main.obj
 0002:0000278c       _c_file_panel_mode_dialog_guid 6106a78c     main.obj
 0002:0000279c       _c_file_version_dialog_guid 6106a79c     main.obj
 0002:000027ac       _c_no_file_version_dialog_guid 6106a7ac     main.obj
 0002:000027bc       _c_main_menu_guid          6106a7bc     main.obj
 0002:000027cc       _c_defrag_errors_dialog_guid 6106a7cc     main.obj
 0002:000027dc       _c_compress_errors_dialog_guid 6106a7dc     main.obj
 0002:000027ec       _c_show_totals_dialog_guid 6106a7ec     main.obj
 0002:000027fc       _c_progress_dialog_guid    6106a7fc     main.obj
 0002:0000280c       ??_C@_0CD@IDLDBGFJ@d?3?2devel?2farplug?2ntfsfile?2volume@ 6106a80c     main.obj
 0002:00002830       ??_C@_1II@HDDGFLKE@?$AAg?$AA_?$AAf?$AAa?$AAr?$AA?4?$AAA?$AAd?$AAv?$AAC?$AAo?$AAn?$AAt?$AAr?$AAo?$AAl?$AA?$CI?$AA?$CG?$AAc?$AA_?$AAp?$AAl?$AAu?$AAg?$AAi?$AAn?$AA_?$AAg?$AAu?$AAi?$AAd?$AA?0@ 6106a830     main.obj
 0002:000028b8       ??_C@_08KIOHJCLF@main?4cpp?$AA@ 6106a8b8     main.obj
 0002:000028c4       ??_C@_13HOIJIPNN@?$AA?5?$AA?$AA@ 6106a8c4     main.obj
 0002:000028c8       ??_C@_1EC@IHMLPEMH@?$AAC?$AAo?$AAn?$AAs?$AAo?$AAl?$AAe?$AA?5?$AAw?$AAi?$AAn?$AAd?$AAo?$AAw?$AA?5?$AAs?$AAi?$AAz?$AAe?$AA?5?$AAi?$AAs?$AA?5?$AAt?$AAo?$AAo?$AA?5?$AAs?$AAm?$AAa?$AAl?$AAl@ 6106a8c8     main.obj
 0002:0000290c       ??_C@_1M@NFKDLDLC@?$AA?$AB?$AA?$CF?$AA?4?$AA?$CK?$AAc?$AA?$AA@ 6106a90c     main.obj
 0002:00002918       ??_C@_1EA@JJOIOIOL@?$AA?$AB?$AA?$CF?$AA?4?$AA?$CK?$AAc?$AA?$AB?$AA?$CF?$AAc?$AA?$CF?$AA?4?$AA?$CK?$AAc?$AA?5?$AA?$AB?$AA?$CF?$AA?4?$AA?$CK?$AAs?$AA?$AB?$AA?5?$AA?$CF?$AA?4?$AA?$CK?$AAc?$AA?$CF?$AAc?$AA?$AB?$AA?$CF?$AA?4?$AA?$CK?$AAc?$AA?$AA@ 6106a918     main.obj
 0002:00002958       ??_C@_1DA@BHDKANBK@?$AA?$AB?$AA?$CF?$AA?4?$AA?$CK?$AAc?$AA?$AB?$AA?$CF?$AAc?$AA?$AB?$AA?$CF?$AA?9?$AA?$CK?$AA?4?$AA?$CK?$AAS?$AA?$AB?$AA?$CF?$AAc?$AA?$AB?$AA?$CF?$AA?4?$AA?$CK?$AAc?$AA?$AA@ 6106a958     main.obj
 0002:00002988       ??_C@_1GE@DADKGJJC@?$AA?$AB?$AA?$CF?$AA?4?$AA?$CK?$AAc?$AA?$AB?$AA?$CF?$AAc?$AA?$CF?$AA?4?$AA?$CK?$AAc?$AA?$CF?$AAc?$AA?$CF?$AA?4?$AA?$CK?$AAc?$AA?$CF?$AAc?$AA?$CF?$AA?4?$AA?$CK?$AAc?$AA?$CF?$AAc?$AA?$CF?$AA?4?$AA?$CK?$AAc?$AA?$CF?$AAc@ 6106a988     main.obj
 0002:000029f0       ??_C@_1GA@FPFNFEC@?$AA?$CF?$AA?$CK?$AAS?$AA?$AB?$AA?$CF?$AAc?$AA?$AB?$AA?$CF?$AA?$CK?$AAS?$AA?$AB?$AA?$CF?$AAc?$AA?$AB?$AA?$CF?$AA?$CK?$AA?4?$AA?$CK?$AAS?$AA?$AB?$AA?$CF?$AAc?$AA?$AB?$AA?$CF?$AA?$CK?$AA?4?$AA?$CK?$AAS?$AA?$AB?$AA?$CF?$AAc?$AA?$AB@ 6106a9f0     main.obj
 0002:00002a50       ??_C@_17KOEEIPGM@?$AA?$CG?$AA?$CF?$AAu?$AA?$AA@ 6106aa50     main.obj
 0002:00002a58       ??_C@_19IBAJNFPC@?$AA?5?$AA?$AB?$AA?$CK?$AA?$AB?$AA?$AA@ 6106aa58     main.obj
 0002:00002a64       ??_C@_19KBHCGLJC@?$AA?$AB?$AA?$CF?$AAu?$AA?$AB?$AA?$AA@ 6106aa64     main.obj
 0002:00002a70       ??_C@_15GPODEANG@?$AA?$CG?$AA0?$AA?$AA@ 6106aa70     main.obj
 0002:00002a78       ??_C@_1BC@FIMMKADP@?$AAm?$AAe?$AAt?$AAa?$AAd?$AAa?$AAt?$AAa?$AA?$AA@ 6106aa78     main.obj
 0002:00002a8c       ??_C@_13BBDEGPLJ@?$AA?$CK?$AA?$AA@ 6106aa8c     main.obj
 0002:00002a90       ??_C@_15PKPONJIK@?$AA?2?$AA?$CK?$AA?$AA@ 6106aa90     main.obj
 0002:00002a98       ??_C@_13JOFGPIOO@?$AA?4?$AA?$AA@ 6106aa98     main.obj
 0002:00002a9c       ??_C@_15DDHGOCBH@?$AA?4?$AA?4?$AA?$AA@ 6106aa9c     main.obj
 0002:00002aa4       ??_C@_11LOCGONAA@?$AA?$AA@ 6106aaa4     main.obj
 0002:00002aa8       ??_C@_13FPGAJAPJ@?$AA?2?$AA?$AA@ 6106aaa8     main.obj
 0002:00002aac       ??_C@_19MJCDBCKE@?$AA?2?$AA?2?$AA?$DP?$AA?2?$AA?$AA@ 6106aaac     main.obj
 0002:00002ab8       ??_C@_19JHEHLFPM@?$AA?2?$AA?$DP?$AA?$DP?$AA?2?$AA?$AA@ 6106aab8     main.obj
 0002:00002ac4       ??_C@_1CM@CLMPKAKN@?$AAN?$AAT?$AAF?$AAS?$AA?5?$AAF?$AAi?$AAl?$AAe?$AA?5?$AAI?$AAn?$AAf?$AAo?$AAr?$AAm?$AAa?$AAt?$AAi?$AAo?$AAn?$AA?$AA@ 6106aac4     main.obj
 0002:00002af0       ??_C@_1FA@MFJEOOED@?$AAN?$AAT?$AAF?$AAS?$AA?5?$AAF?$AAi?$AAl?$AAe?$AA?5?$AAI?$AAn?$AAf?$AAo?$AAr?$AAm?$AAa?$AAt?$AAi?$AAo?$AAn?$AA?5?$AAf?$AAo?$AAr?$AA?5?$AAF?$AAa?$AAr?$AA?5?$AAM?$AAa@ 6106aaf0     main.obj
 0002:00002b40       ??_C@_1BM@JIIAFIHJ@?$AAO?$AAl?$AAe?$AAg?$AA?5?$AAM?$AAa?$AAk?$AAo?$AAv?$AAs?$AAk?$AAi?$AA?$AA@ 6106ab40     main.obj
 0002:00002b5c       ??_C@_1BE@DFJGMLNM@?$AA?6?$AAF?$AAa?$AAi?$AAl?$AAu?$AAr?$AAe?$AA?$CB?$AA?$AA@ 6106ab5c     main.obj
 0002:00002b70       ??_C@_17MHDPMGNB@?$AAn?$AAf?$AAi?$AA?$AA@ 6106ab70     main.obj
 0002:00002b78       ??_C@_17KIICCGLF@?$AAn?$AAf?$AAc?$AA?$AA@ 6106ab78     main.obj
 0002:00002b80       ??_C@_1O@FMBBGMIN@?$AAd?$AAe?$AAf?$AAr?$AAa?$AAg?$AA?$AA@ 6106ab80     main.obj
 0002:00002b90       ??_C@_17MPEFIBBI@?$AAn?$AAf?$AAv?$AA?$AA@ 6106ab90     main.obj
 0002:00002b98       ??_C@_1BI@IBFPIACM@?$AAp?$AAl?$AAu?$AAg?$AAi?$AAn?$AA_?$AAm?$AAe?$AAn?$AAu?$AA?$AA@ 6106ab98     main.obj
 0002:00002bb0       ??_C@_13LBAGMAIH@?$AA?6?$AA?$AA@ 6106abb0     main.obj
 0002:00002bb8       ??_7Error@@6B@             6106abb8     main.obj
 0002:00002bc0       ??_7MsgError@@6B@          6106abc0     main.obj
 0002:00002bc8       ??_7SystemError@@6B@       6106abc8     main.obj
 0002:00002bcc       ??_C@_0P@GHFPNOJB@bad?5allocation?$AA@ 6106abcc     main.obj
 0002:00002bdc       ??_C@_15EFLNJKHH@?$AA?$CF?$AAu?$AA?$AA@ 6106abdc     content.obj
 0002:00002bfc       _ASN1_version              6106abfc     libeay32:asn1_lib.obj
 0002:00002c28       _BN_version                6106ac28     libeay32:bn_lib.obj
 0002:00002d70       _lh_version                6106ad70     libeay32:lhash.obj
 0002:0000c110       _STACK_version             61074110     libeay32:stack.obj
 0002:0000c144       _SHA256_version            61074144     libeay32:sha256.obj
 0002:0000c214       _SHA1_version              61074214     libeay32:sha1dgst.obj
 0002:0000c23c       _MD5_version               6107423c     libeay32:md5_dgst.obj
 0002:0000c264       _MD4_version               61074264     libeay32:md4_dgst.obj
 0002:0000c28c       ?c_horiz1@@3_WB            6107428c     dlgapi.obj
 0002:0000c690       ?c_vert1@@3_WB             61074690     dlgapi.obj
 0002:0000c694       ?c_horiz2@@3_WB            61074694     dlgapi.obj
 0002:0000c698       ?c_vert2@@3_WB             61074698     dlgapi.obj
 0002:0000c69c       ?c_top2_left2@@3_WB        6107469c     dlgapi.obj
 0002:0000c6a0       ?c_top2_right2@@3_WB       610746a0     dlgapi.obj
 0002:0000c6a4       ?c_bottom2_left2@@3_WB     610746a4     dlgapi.obj
 0002:0000c6a8       ?c_bottom2_right2@@3_WB    610746a8     dlgapi.obj
 0002:0000c6ac       ?c_left2_horiz1@@3_WB      610746ac     dlgapi.obj
 0002:0000c6b0       ?c_right2_horiz1@@3_WB     610746b0     dlgapi.obj
 0002:0000c6b4       ?c_top1_vert1@@3_WB        610746b4     dlgapi.obj
 0002:0000c6b8       ?c_bottom1_vert1@@3_WB     610746b8     dlgapi.obj
 0002:0000c6bc       ?c_bottom2_vert1@@3_WB     610746bc     dlgapi.obj
 0002:0000c6c0       ?c_cross1@@3_WB            610746c0     dlgapi.obj
 0002:0000c6c4       ?c_pb_black@@3_WB          610746c4     dlgapi.obj
 0002:0000c6c8       ?c_pb_white@@3_WB          610746c8     dlgapi.obj
 0002:0000c950       ??_C@_1BC@BNDGIHOB@?$AAL?$AAZ?$AAO?$AA_?$AAE?$AA_?$AAO?$AAK?$AA?$AA@ 61074950     content.obj
 0002:0000c964       ??_C@_1BI@KGOFPKJD@?$AAL?$AAZ?$AAO?$AA_?$AAE?$AA_?$AAE?$AAR?$AAR?$AAO?$AAR?$AA?$AA@ 61074964     content.obj
 0002:0000c97c       ??_C@_1CI@NNBLMCBJ@?$AAL?$AAZ?$AAO?$AA_?$AAE?$AA_?$AAO?$AAU?$AAT?$AA_?$AAO?$AAF?$AA_?$AAM?$AAE?$AAM?$AAO?$AAR?$AAY?$AA?$AA@ 6107497c     content.obj
 0002:0000c9a4       ??_C@_1CO@FJNAFKEE@?$AAL?$AAZ?$AAO?$AA_?$AAE?$AA_?$AAN?$AAO?$AAT?$AA_?$AAC?$AAO?$AAM?$AAP?$AAR?$AAE?$AAS?$AAS?$AAI?$AAB?$AAL?$AAE?$AA?$AA@ 610749a4     content.obj
 0002:0000c9d4       ??_C@_1CI@BPHMKAC@?$AAL?$AAZ?$AAO?$AA_?$AAE?$AA_?$AAI?$AAN?$AAP?$AAU?$AAT?$AA_?$AAO?$AAV?$AAE?$AAR?$AAR?$AAU?$AAN?$AA?$AA@ 610749d4     content.obj
 0002:0000c9fc       ??_C@_1CK@FMLFALDJ@?$AAL?$AAZ?$AAO?$AA_?$AAE?$AA_?$AAO?$AAU?$AAT?$AAP?$AAU?$AAT?$AA_?$AAO?$AAV?$AAE?$AAR?$AAR?$AAU?$AAN?$AA?$AA@ 610749fc     content.obj
 0002:0000ca28       ??_C@_1DC@HGPNENFH@?$AAL?$AAZ?$AAO?$AA_?$AAE?$AA_?$AAL?$AAO?$AAO?$AAK?$AAB?$AAE?$AAH?$AAI?$AAN?$AAD?$AA_?$AAO?$AAV?$AAE?$AAR?$AAR?$AAU?$AAN?$AA?$AA@ 61074a28     content.obj
 0002:0000ca5c       ??_C@_1CI@JHKKMMAJ@?$AAL?$AAZ?$AAO?$AA_?$AAE?$AA_?$AAE?$AAO?$AAF?$AA_?$AAN?$AAO?$AAT?$AA_?$AAF?$AAO?$AAU?$AAN?$AAD?$AA?$AA@ 61074a5c     content.obj
 0002:0000ca84       ??_C@_1DC@IHNDMPCB@?$AAL?$AAZ?$AAO?$AA_?$AAE?$AA_?$AAI?$AAN?$AAP?$AAU?$AAT?$AA_?$AAN?$AAO?$AAT?$AA_?$AAC?$AAO?$AAN?$AAS?$AAU?$AAM?$AAE?$AAD?$AA?$AA@ 61074a84     content.obj
 0002:0000cab8       ??_C@_1DE@IKPNFIHA@?$AAL?$AAZ?$AAO?$AA_?$AAE?$AA_?$AAN?$AAO?$AAT?$AA_?$AAY?$AAE?$AAT?$AA_?$AAI?$AAM?$AAP?$AAL?$AAE?$AAM?$AAE?$AAN?$AAT?$AAE?$AAD?$AA?$AA@ 61074ab8     content.obj
 0002:0000caec       ??_C@_1BI@BPABFHDJ@?$AAL?$AAZ?$AAO?$AA?5?$AAc?$AAo?$AAd?$AAe?$AA?5?$AA?$CF?$AAi?$AA?$AA@ 61074aec     content.obj
 0002:0000cb04       ??_C@_1BM@JDIKPIND@?$AAe?$AAd?$AA2?$AAk?$AA?3?$AA?1?$AA?1?$AA?$HM?$AAf?$AAi?$AAl?$AAe?$AA?$HM?$AA?$AA@ 61074b04     content.obj
 0002:0000cb20       ??_C@_1BA@BHEJJMAK@?$AA?4?$AAh?$AAa?$AAs?$AAh?$AAe?$AAs?$AA?$AA@ 61074b20     content.obj
 0002:0000cb30       ??_C@_0M@IFDGENBC@content?4cpp?$AA@ 61074b30     content.obj
 0002:0000cb3c       ??_C@_01EEMJAFIK@?6?$AA@   61074b3c     content.obj
 0002:0000cb40       ??_C@_07JCNDFM@CRC32?3?5?$AA@ 61074b40     content.obj
 0002:0000cb48       ??_C@_05CLAFPFBA@MD5?3?5?$AA@ 61074b48     content.obj
 0002:0000cb50       ??_C@_06CNJPBHD@SHA1?3?5?$AA@ 61074b50     content.obj
 0002:0000cb58       ??_C@_08DGGEDLO@SHA256?3?5?$AA@ 61074b58     content.obj
 0002:0000cb64       ??_C@_06MLOFECBL@ED2K?3?5?$AA@ 61074b64     content.obj
 0002:0000cb6c       ??_C@_07PFDABHGL@CRC16?3?5?$AA@ 61074b6c     content.obj
 0002:0000cb74       ??_C@_17PDANGBN@?$AA?$CF?$AAL?$AAu?$AA?$AA@ 61074b74     content.obj
 0002:0000cb7c       ??_C@_13EJFHHPOP@?$AA?$CF?$AA?$AA@ 61074b7c     content.obj
 0002:0000cb80       ??_C@_1BC@JMFGLOEF@?$AA?$CF?$AA?4?$AA?$CK?$AAc?$AA?$CF?$AA?4?$AA?$CK?$AAc?$AA?$AA@ 61074b80     content.obj
 0002:0000cb94       ??_C@_1DA@FFBENEKN@?$AAU?$AAn?$AAe?$AAx?$AAp?$AAe?$AAc?$AAt?$AAe?$AAd?$AA?5?$AAt?$AAh?$AAr?$AAe?$AAa?$AAd?$AA?5?$AAd?$AAe?$AAa?$AAt?$AAh?$AA?$AA@ 61074b94     content.obj
 0002:0000cbc4       ??_C@_19MGMFGCNC@?$AA?5?$AA?$CF?$AAL?$AAu?$AA?$AA@ 61074bc4     content.obj
 0002:0000cbd0       ??_C@_17GICLIGOL@?$AA?5?$AA?$CF?$AAu?$AA?$AA@ 61074bd0     content.obj
 0002:0000cbd8       ??_C@_13GGAHEHIG@?$AA?$AB?$AA?$AA@ 61074bd8     content.obj
 0002:0000cbe0       ??_7LzoError@@6B@          61074be0     content.obj
 0002:0000cbe8       ??_7ProcessFileProgress@@6B@ 61074be8     content.obj
 0002:0000cbf4       ??_7CompressFilesProgress@@6B@ 61074bf4     content.obj
 0002:0000cc00       ??_7EstimationProgress@@6B@ 61074c00     content.obj
 0002:0000cc08       ??_C@_0P@FHLJJKIE@file_panel?4cpp?$AA@ 61074c08     file_panel.obj
 0002:0000cc18       ??_C@_15MEIMECPO@?$AA?3?$AA$?$AA?$AA@ 61074c18     file_panel.obj
 0002:0000cc20       ??_C@_13EBCNDICG@?$AA?3?$AA?$AA@ 61074c20     file_panel.obj
 0002:0000cc24       ??_C@_1BA@LKKFCKCJ@?$AAN?$AA?0?$AAC?$AA0?$AA?0?$AAC?$AA1?$AA?$AA@ 61074c24     file_panel.obj
 0002:0000cc34       ??_C@_1CA@DHMNCPDM@?$AAf?$AAi?$AAl?$AAe?$AA_?$AAp?$AAa?$AAn?$AAe?$AAl?$AA_?$AAm?$AAo?$AAd?$AAe?$AA?$AA@ 61074c34     file_panel.obj
 0002:0000cc54       ??_C@_17BJKAHJBO@?$AAD?$AAS?$AAZ?$AA?$AA@ 61074c54     file_panel.obj
 0002:0000cc5c       ??_C@_17KDHEEBLC@?$AAR?$AAS?$AAZ?$AA?$AA@ 61074c5c     file_panel.obj
 0002:0000cc64       ??_C@_17DCKKCCIE@?$AAF?$AAR?$AAG?$AA?$AA@ 61074c64     file_panel.obj
 0002:0000cc6c       ??_C@_17LPBFBOLC@?$AAS?$AAT?$AAM?$AA?$AA@ 61074c6c     file_panel.obj
 0002:0000cc74       ??_C@_17JNKIEDBE@?$AAL?$AAN?$AAK?$AA?$AA@ 61074c74     file_panel.obj
 0002:0000cc7c       ??_C@_17LFCLIGCO@?$AAM?$AAF?$AAT?$AA?$AA@ 61074c7c     file_panel.obj
 0002:0000cc84       ??_C@_17CHDOEPEI@?$AAV?$AAS?$AAZ?$AA?$AA@ 61074c84     file_panel.obj
 0002:0000cc8c       ??_C@_13FHBKNHDA@?$AAC?$AA?$AA@ 61074c8c     file_panel.obj
 0002:0000cc90       ??_C@_0BB@MOGOBHAF@list?$DMT?$DO?5too?5long?$AA@ 61074c90     file_panel.obj
 0002:0000cca8       ??_7FileListProgress@@6B@  61074ca8     file_panel.obj
 0002:0000ccb0       ??_C@_1CM@CFJGLGPA@?$AAL?$AAO?$AAG?$AAG?$AAE?$AAD?$AA_?$AAU?$AAT?$AAI?$AAL?$AAI?$AAT?$AAY?$AA_?$AAS?$AAT?$AAR?$AAE?$AAA?$AAM?$AA?$AA@ 61074cb0     ntfs_file.obj
 0002:0000ccdc       ??_C@_1BK@HLEKPGPE@?$AAP?$AAR?$AAO?$AAP?$AAE?$AAR?$AAT?$AAY?$AA_?$AAS?$AAE?$AAT?$AA?$AA@ 61074cdc     ntfs_file.obj
 0002:0000ccf8       ??_C@_15DCAAPKNL@?$AAE?$AAA?$AA?$AA@ 61074cf8     ntfs_file.obj
 0002:0000cd00       ??_C@_1BO@DNMEGEGG@?$AAE?$AAA?$AA_?$AAI?$AAN?$AAF?$AAO?$AAR?$AAM?$AAA?$AAT?$AAI?$AAO?$AAN?$AA?$AA@ 61074d00     ntfs_file.obj
 0002:0000cd20       ??_C@_1BM@NHIDIFHF@?$AAR?$AAE?$AAP?$AAA?$AAR?$AAS?$AAE?$AA_?$AAP?$AAO?$AAI?$AAN?$AAT?$AA?$AA@ 61074d20     ntfs_file.obj
 0002:0000cd3c       ??_C@_1O@CODHBPGA@?$AAB?$AAI?$AAT?$AAM?$AAA?$AAP?$AA?$AA@ 61074d3c     ntfs_file.obj
 0002:0000cd4c       ??_C@_1CC@IGGLBLBB@?$AAI?$AAN?$AAD?$AAE?$AAX?$AA_?$AAA?$AAL?$AAL?$AAO?$AAC?$AAA?$AAT?$AAI?$AAO?$AAN?$AA?$AA@ 61074d4c     ntfs_file.obj
 0002:0000cd70       ??_C@_1BG@FHHBPOEN@?$AAI?$AAN?$AAD?$AAE?$AAX?$AA_?$AAR?$AAO?$AAO?$AAT?$AA?$AA@ 61074d70     ntfs_file.obj
 0002:0000cd88       ??_C@_19NKKEIHJJ@?$AAD?$AAA?$AAT?$AAA?$AA?$AA@ 61074d88     ntfs_file.obj
 0002:0000cd94       ??_C@_1CG@CILGPBM@?$AAV?$AAO?$AAL?$AAU?$AAM?$AAE?$AA_?$AAI?$AAN?$AAF?$AAO?$AAR?$AAM?$AAA?$AAT?$AAI?$AAO?$AAN?$AA?$AA@ 61074d94     ntfs_file.obj
 0002:0000cdbc       ??_C@_1BI@ODPDKFHN@?$AAV?$AAO?$AAL?$AAU?$AAM?$AAE?$AA_?$AAN?$AAA?$AAM?$AAE?$AA?$AA@ 61074dbc     ntfs_file.obj
 0002:0000cdd4       ??_C@_1CI@KFCNFMPF@?$AAS?$AAE?$AAC?$AAU?$AAR?$AAI?$AAT?$AAY?$AA_?$AAD?$AAE?$AAS?$AAC?$AAR?$AAI?$AAP?$AAT?$AAO?$AAR?$AA?$AA@ 61074dd4     ntfs_file.obj
 0002:0000cdfc       ??_C@_1BE@FOOGEMHK@?$AAO?$AAB?$AAJ?$AAE?$AAC?$AAT?$AA_?$AAI?$AAD?$AA?$AA@ 61074dfc     ntfs_file.obj
 0002:0000ce10       ??_C@_1BE@HLJOAMDC@?$AAF?$AAI?$AAL?$AAE?$AA_?$AAN?$AAA?$AAM?$AAE?$AA?$AA@ 61074e10     ntfs_file.obj
 0002:0000ce24       ??_C@_1BO@GPEGKLKJ@?$AAA?$AAT?$AAT?$AAR?$AAI?$AAB?$AAU?$AAT?$AAE?$AA_?$AAL?$AAI?$AAS?$AAT?$AA?$AA@ 61074e24     ntfs_file.obj
 0002:0000ce44       ??_C@_1CK@BPGIPGK@?$AAS?$AAT?$AAA?$AAN?$AAD?$AAA?$AAR?$AAD?$AA_?$AAI?$AAN?$AAF?$AAO?$AAR?$AAM?$AAA?$AAT?$AAI?$AAO?$AAN?$AA?$AA@ 61074e44     ntfs_file.obj
 0002:0000ce70       ??_C@_1BK@PLINNJCG@?$AAU?$AAS?$AAE?$AAR?$AA_?$AAD?$AAE?$AAF?$AAI?$AAN?$AAE?$AAD?$AA?$AA@ 61074e70     ntfs_file.obj
 0002:0000ce90       ??_C@_1EI@JKNMPKDL@?$AAN?$AAT?$AAF?$AAS?$AA?5?$AAd?$AAa?$AAt?$AAa?$AA?5?$AAs?$AAt?$AAr?$AAu?$AAc?$AAt?$AAu?$AAr?$AAe?$AA?5?$AAp?$AAa?$AAr?$AAs?$AAi?$AAn?$AAg?$AA?5?$AAp?$AAr?$AAo?$AAb@ 61074e90     ntfs_file.obj
 0002:0000ced8       ??_C@_0O@CDKBEJLE@ntfs_file?4cpp?$AA@ 61074ed8     ntfs_file.obj
 0002:0000cee8       ??_C@_1DE@LLKABIKA@?$AAN?$AA?0?$AAD?$AAS?$AAZ?$AA?0?$AAR?$AAS?$AAZ?$AA?0?$AAF?$AAR?$AAG?$AA?0?$AAS?$AAT?$AAM?$AA?0?$AAL?$AAN?$AAK?$AA?0?$AAM?$AAF?$AAT?$AA?$AA@ 61074ee8     options.obj
 0002:0000cf1c       ??_C@_1BM@OGKKEMPH@?$AA0?$AA?0?$AA7?$AA?0?$AA7?$AA?0?$AA5?$AA?0?$AA3?$AA?0?$AA3?$AA?0?$AA3?$AA?$AA@ 61074f1c     options.obj
 0002:0000cf38       ??_C@_1BC@PEFNNPMH@?$AAN?$AAR?$AA?0?$AAA?$AA?0?$AAD?$AA?0?$AAT?$AA?$AA@ 61074f38     options.obj
 0002:0000cf4c       ??_C@_1BC@CJAFGCCG@?$AA0?$AA?0?$AA1?$AA0?$AA?0?$AA0?$AA?0?$AA0?$AA?$AA@ 61074f4c     options.obj
 0002:0000cf60       ??_C@_1O@JJHLNNN@?$AA?$CF?$AAT?$AAE?$AAM?$AAP?$AA?$CF?$AA?$AA@ 61074f60     options.obj
 0002:0000cf70       ??_C@_1DC@OHOOGJEF@?$AAS?$AAt?$AAa?$AAn?$AAd?$AAa?$AAr?$AAd?$AAI?$AAn?$AAf?$AAo?$AAr?$AAm?$AAa?$AAt?$AAi?$AAo?$AAn?$AAU?$AAn?$AAi?$AAt?$AAs?$AA?$AA@ 61074f70     options.obj
 0002:0000cfa4       ??_C@_1DE@MADDDJKC@?$AAC?$AAo?$AAn?$AAt?$AAe?$AAn?$AAt?$AAO?$AAp?$AAt?$AAi?$AAo?$AAn?$AAs?$AAC?$AAo?$AAm?$AAp?$AAr?$AAe?$AAs?$AAs?$AAi?$AAo?$AAn?$AA?$AA@ 61074fa4     options.obj
 0002:0000cfd8       ??_C@_1CI@FOOMDHHD@?$AAC?$AAo?$AAn?$AAt?$AAe?$AAn?$AAt?$AAO?$AAp?$AAt?$AAi?$AAo?$AAn?$AAs?$AAC?$AAR?$AAC?$AA3?$AA2?$AA?$AA@ 61074fd8     options.obj
 0002:0000d000       ??_C@_1CE@CJMNAHHJ@?$AAC?$AAo?$AAn?$AAt?$AAe?$AAn?$AAt?$AAO?$AAp?$AAt?$AAi?$AAo?$AAn?$AAs?$AAM?$AAD?$AA5?$AA?$AA@ 61075000     options.obj
 0002:0000d024       ??_C@_1CG@NGHFAKNG@?$AAC?$AAo?$AAn?$AAt?$AAe?$AAn?$AAt?$AAO?$AAp?$AAt?$AAi?$AAo?$AAn?$AAs?$AAS?$AAH?$AAA?$AA1?$AA?$AA@ 61075024     options.obj
 0002:0000d04c       ??_C@_1CK@DMCIKPEB@?$AAC?$AAo?$AAn?$AAt?$AAe?$AAn?$AAt?$AAO?$AAp?$AAt?$AAi?$AAo?$AAn?$AAs?$AAS?$AAH?$AAA?$AA2?$AA5?$AA6?$AA?$AA@ 6107504c     options.obj
 0002:0000d078       ??_C@_1CG@CCFONBKB@?$AAC?$AAo?$AAn?$AAt?$AAe?$AAn?$AAt?$AAO?$AAp?$AAt?$AAi?$AAo?$AAn?$AAs?$AAE?$AAD?$AA2?$AAK?$AA?$AA@ 61075078     options.obj
 0002:0000d0a0       ??_C@_1CI@JMEGABCP@?$AAC?$AAo?$AAn?$AAt?$AAe?$AAn?$AAt?$AAO?$AAp?$AAt?$AAi?$AAo?$AAn?$AAs?$AAC?$AAR?$AAC?$AA1?$AA6?$AA?$AA@ 610750a0     options.obj
 0002:0000d0c8       ??_C@_1CE@OMKAINFD@?$AAF?$AAi?$AAl?$AAe?$AAP?$AAa?$AAn?$AAe?$AAl?$AAC?$AAo?$AAl?$AAT?$AAy?$AAp?$AAe?$AAs?$AA?$AA@ 610750c8     options.obj
 0002:0000d0ec       ??_C@_1CG@PMCJDIIA@?$AAF?$AAi?$AAl?$AAe?$AAP?$AAa?$AAn?$AAe?$AAl?$AAC?$AAo?$AAl?$AAW?$AAi?$AAd?$AAt?$AAh?$AAs?$AA?$AA@ 610750ec     options.obj
 0002:0000d114       ??_C@_1DA@MGOAKJNP@?$AAF?$AAi?$AAl?$AAe?$AAP?$AAa?$AAn?$AAe?$AAl?$AAS?$AAt?$AAa?$AAt?$AAu?$AAs?$AAC?$AAo?$AAl?$AAT?$AAy?$AAp?$AAe?$AAs?$AA?$AA@ 61075114     options.obj
 0002:0000d144       ??_C@_1DC@FHBMCBFG@?$AAF?$AAi?$AAl?$AAe?$AAP?$AAa?$AAn?$AAe?$AAl?$AAS?$AAt?$AAa?$AAt?$AAu?$AAs?$AAC?$AAo?$AAl?$AAW?$AAi?$AAd?$AAt?$AAh?$AAs?$AA?$AA@ 61075144     options.obj
 0002:0000d178       ??_C@_1BM@GOJNNPPE@?$AAF?$AAi?$AAl?$AAe?$AAP?$AAa?$AAn?$AAe?$AAl?$AAW?$AAi?$AAd?$AAe?$AA?$AA@ 61075178     options.obj
 0002:0000d194       ??_C@_1CE@NLGLJHM@?$AAF?$AAi?$AAl?$AAe?$AAP?$AAa?$AAn?$AAe?$AAl?$AAS?$AAo?$AAr?$AAt?$AAM?$AAo?$AAd?$AAe?$AA?$AA@ 61075194     options.obj
 0002:0000d1b8       ??_C@_1CK@KOFNLGFD@?$AAF?$AAi?$AAl?$AAe?$AAP?$AAa?$AAn?$AAe?$AAl?$AAR?$AAe?$AAv?$AAe?$AAr?$AAs?$AAe?$AAS?$AAo?$AAr?$AAt?$AA?$AA@ 610751b8     options.obj
 0002:0000d1e4       ??_C@_1CK@EKMGFCIE@?$AAF?$AAi?$AAl?$AAe?$AAP?$AAa?$AAn?$AAe?$AAl?$AAN?$AAu?$AAm?$AAe?$AAr?$AAi?$AAc?$AAS?$AAo?$AAr?$AAt?$AA?$AA@ 610751e4     options.obj
 0002:0000d210       ??_C@_1CO@NBMIDPAC@?$AAF?$AAi?$AAl?$AAe?$AAP?$AAa?$AAn?$AAe?$AAl?$AAS?$AAo?$AAr?$AAt?$AAD?$AAi?$AAr?$AAs?$AAF?$AAi?$AAr?$AAs?$AAt?$AA?$AA@ 61075210     options.obj
 0002:0000d240       ??_C@_1BO@CGEJFHLH@?$AAC?$AAu?$AAs?$AAt?$AAo?$AAm?$AAS?$AAo?$AAr?$AAt?$AAM?$AAo?$AAd?$AAe?$AA?$AA@ 61075240     options.obj
 0002:0000d260       ??_C@_1CK@FFJFFPBL@?$AAF?$AAi?$AAl?$AAe?$AAP?$AAa?$AAn?$AAe?$AAl?$AAS?$AAh?$AAo?$AAw?$AAS?$AAt?$AAr?$AAe?$AAa?$AAm?$AAs?$AA?$AA@ 61075260     options.obj
 0002:0000d28c       ??_C@_1DA@LFDJHPAL@?$AAF?$AAi?$AAl?$AAe?$AAP?$AAa?$AAn?$AAe?$AAl?$AAS?$AAh?$AAo?$AAw?$AAM?$AAa?$AAi?$AAn?$AAS?$AAt?$AAr?$AAe?$AAa?$AAm?$AA?$AA@ 6107528c     options.obj
 0002:0000d2bc       ??_C@_1DC@IHLKHKAI@?$AAF?$AAi?$AAl?$AAe?$AAP?$AAa?$AAn?$AAe?$AAl?$AAU?$AAs?$AAe?$AAH?$AAi?$AAg?$AAh?$AAl?$AAi?$AAg?$AAh?$AAt?$AAi?$AAn?$AAg?$AA?$AA@ 610752bc     options.obj
 0002:0000d2f0       ??_C@_1CO@KIBNCJEE@?$AAF?$AAi?$AAl?$AAe?$AAP?$AAa?$AAn?$AAe?$AAl?$AAU?$AAs?$AAe?$AAU?$AAs?$AAn?$AAJ?$AAo?$AAu?$AAr?$AAn?$AAa?$AAl?$AA?$AA@ 610752f0     options.obj
 0002:0000d320       ??_C@_1DO@ELLKKFMA@?$AAF?$AAi?$AAl?$AAe?$AAP?$AAa?$AAn?$AAe?$AAl?$AAU?$AAs?$AAe?$AAE?$AAx?$AAi?$AAs?$AAt?$AAi?$AAn?$AAg?$AAU?$AAs?$AAn?$AAJ?$AAo?$AAu?$AAr?$AAn?$AAa?$AAl?$AA?$AA@ 61075320     options.obj
 0002:0000d360       ??_C@_1DE@MIKJEHGJ@?$AAF?$AAi?$AAl?$AAe?$AAP?$AAa?$AAn?$AAe?$AAl?$AAD?$AAe?$AAl?$AAe?$AAt?$AAe?$AAU?$AAs?$AAn?$AAJ?$AAo?$AAu?$AAr?$AAn?$AAa?$AAl?$AA?$AA@ 61075360     options.obj
 0002:0000d394       ??_C@_1DK@JOFFIPBG@?$AAF?$AAi?$AAl?$AAe?$AAP?$AAa?$AAn?$AAe?$AAl?$AAD?$AAe?$AAl?$AAe?$AAt?$AAe?$AAO?$AAw?$AAn?$AAU?$AAs?$AAn?$AAJ?$AAo?$AAu?$AAr?$AAn?$AAa?$AAl?$AA?$AA@ 61075394     options.obj
 0002:0000d3d0       ??_C@_1CE@FEANJHOC@?$AAF?$AAi?$AAl?$AAe?$AAP?$AAa?$AAn?$AAe?$AAl?$AAU?$AAs?$AAe?$AAC?$AAa?$AAc?$AAh?$AAe?$AA?$AA@ 610753d0     options.obj
 0002:0000d3f4       ??_C@_1DA@HIOJFPFN@?$AAF?$AAi?$AAl?$AAe?$AAP?$AAa?$AAn?$AAe?$AAl?$AAD?$AAe?$AAf?$AAa?$AAu?$AAl?$AAt?$AAM?$AAf?$AAt?$AAM?$AAo?$AAd?$AAe?$AA?$AA@ 610753f4     options.obj
 0002:0000d424       ??_C@_1DC@HKEBMOOK@?$AAF?$AAi?$AAl?$AAe?$AAP?$AAa?$AAn?$AAe?$AAl?$AAB?$AAa?$AAc?$AAk?$AAw?$AAa?$AAr?$AAd?$AAM?$AAf?$AAt?$AAS?$AAc?$AAa?$AAn?$AA?$AA@ 61075424     options.obj
 0002:0000d458       ??_C@_1CE@HIPOCPHE@?$AAF?$AAi?$AAl?$AAe?$AAP?$AAa?$AAn?$AAe?$AAl?$AAC?$AAa?$AAc?$AAh?$AAe?$AAD?$AAi?$AAr?$AA?$AA@ 61075458     options.obj
 0002:0000d47c       ??_C@_1DC@KJFFBINB@?$AAF?$AAi?$AAl?$AAe?$AAP?$AAa?$AAn?$AAe?$AAl?$AAF?$AAl?$AAa?$AAt?$AAM?$AAo?$AAd?$AAe?$AAA?$AAu?$AAt?$AAo?$AAO?$AAf?$AAf?$AA?$AA@ 6107547c     options.obj
 0002:0000d4b0       ??_C@_1DC@LMEJNNIL@?$AAC?$AAo?$AAm?$AAp?$AAr?$AAe?$AAs?$AAs?$AAF?$AAi?$AAl?$AAe?$AAs?$AAM?$AAi?$AAn?$AAF?$AAi?$AAl?$AAe?$AAS?$AAi?$AAz?$AAe?$AA?$AA@ 610754b0     options.obj
 0002:0000d4e8       ??_C@_1EC@NEKACCMG@?$AAC?$AAo?$AAm?$AAp?$AAr?$AAe?$AAs?$AAs?$AAF?$AAi?$AAl?$AAe?$AAs?$AAM?$AAa?$AAx?$AAC?$AAo?$AAm?$AAp?$AAr?$AAe?$AAs?$AAs?$AAi?$AAo?$AAn?$AAR?$AAa?$AAt?$AAi?$AAo@ 610754e8     options.obj
 0002:0000d52c       ??_C@_09IDPCHBMM@utils?4cpp?$AA@ 6107552c     utils.obj
 0002:0000d538       ??_C@_1CE@NFHCALDA@?$AA?$CF?$AA0?$AA2?$AAL?$AAu?$AA?3?$AA?$CF?$AA0?$AA2?$AAL?$AAu?$AA?3?$AA?$CF?$AA0?$AA2?$AAL?$AAu?$AA?$AA@ 61075538     utils.obj
 0002:0000d55c       ??_C@_1BI@HFBLABMH@?$AA?$CF?$AAL?$AAu?$AA?5?$AAh?$AA?5?$AA?$CF?$AAL?$AAu?$AA?5?$AAm?$AA?$AA@ 6107555c     utils.obj
 0002:0000d574       ??_C@_1M@JNLADHHI@?$AA?$CF?$AAL?$AAu?$AA?5?$AAh?$AA?$AA@ 61075574     utils.obj
 0002:0000d580       ??_C@_1BI@LPIEPMHN@?$AA?$CF?$AAL?$AAu?$AA?5?$AAm?$AA?5?$AA?$CF?$AAL?$AAu?$AA?5?$AAs?$AA?$AA@ 61075580     utils.obj
 0002:0000d598       ??_C@_1M@KKGOMHEK@?$AA?$CF?$AAL?$AAu?$AA?5?$AAm?$AA?$AA@ 61075598     utils.obj
 0002:0000d5a4       ??_C@_1BI@HOFDPDDB@?$AA?$CF?$AAL?$AAu?$AA?4?$AA?$CF?$AA0?$AA3?$AAL?$AAu?$AA?5?$AAs?$AA?$AA@ 610755a4     utils.obj
 0002:0000d5bc       ??_C@_1M@BKKIOHOG@?$AA?$CF?$AAL?$AAu?$AA?5?$AAs?$AA?$AA@ 610755bc     utils.obj
 0002:0000d5c8       ??_C@_1O@HGBMFFIA@?$AA?$CF?$AAL?$AAu?$AA?5?$AAm?$AAs?$AA?$AA@ 610755c8     utils.obj
 0002:0000d5d8       ??_C@_17MHFAGPLA@?$AA?$CF?$AAB?$AAx?$AA?$AA@ 610755d8     utils.obj
 0002:0000d5e0       ??_C@_1BC@NAEGMMKI@?$AA?2?$AA?2?$AA?$DP?$AA?2?$AAU?$AAN?$AAC?$AA?2?$AA?$AA@ 610755e0     utils.obj
 0002:0000d5f4       ??_C@_19BKJMDJK@?$AA?2?$AA?2?$AA?4?$AA?2?$AA?$AA@ 610755f4     utils.obj
 0002:0000d600       ??_C@_15LEKKCGMK@?$AA?2?$AA?2?$AA?$AA@ 61075600     utils.obj
 0002:0000d608       ??_C@_1BA@BFGBFLGI@?$AA?2?$AA?2?$AA?$DP?$AA?2?$AAU?$AAN?$AAC?$AA?$AA@ 61075608     utils.obj
 0002:0000d618       ??_C@_1BG@IACMLO@?$AA?$CF?$AA?4?$AA?$CK?$AAc?$AA?$CF?$AAS?$AA?$CF?$AA?4?$AA?$CK?$AAc?$AA?$AA@ 61075618     utils.obj
 0002:0000d630       ??_C@_17LGKOMLJ@?$AA?4?$AA?4?$AA?4?$AA?$AA@ 61075630     utils.obj
 0002:0000d638       ??_C@_17ECMKOHFH@?$AAl?$AAo?$AAg?$AA?$AA@ 61075638     utils.obj
 0002:0000d640       ??_C@_1BE@BOGEMOAJ@?$AA?8?$AA?$CF?$AAS?$AA?8?$AA?3?$AA?5?$AA?$CF?$AAS?$AA?6?$AA?$AA@ 61075640     utils.obj
 0002:0000d658       ??_C@_1GM@ELBBCICA@?$AAs?$AAi?$AAz?$AAe?$AA?5?$AA?$DO?$AA?$DN?$AA?5?$AAs?$AAi?$AAz?$AAe?$AAo?$AAf?$AA?$CI?$AAF?$AAa?$AAr?$AAP?$AAa?$AAn?$AAe?$AAl?$AAD?$AAi?$AAr?$AAe?$AAc?$AAt?$AAo?$AAr?$AAy@ 61075658     utils.obj
 0002:0000d6c4       ??_C@_1DA@JAFLCAED@?$AA?$CF?$AAS?$AA?3?$AA?$CF?$AAu?$AA?5?$AAv?$AA?4?$AA?$CF?$AAu?$AA?4?$AA?$CF?$AAu?$AA?4?$AA?$CF?$AAu?$AA?4?$AA?$CF?$AAu?$AA?5?$AAu?$AAn?$AAi?$AA?$AA@ 610756c4     utils.obj
 0002:0000d6f4       ??_C@_1CE@HHPPCDDL@?$AAv?$AA?4?$AA?$CF?$AAu?$AA?4?$AA?$CF?$AAu?$AA?4?$AA?$CF?$AAu?$AA?4?$AA?$CF?$AAu?$AA?5?$AAu?$AAn?$AAi?$AA?$AA@ 610756f4     utils.obj
 0002:0000d718       ??_C@_0BD@GBODGBFL@HeapSetInformation?$AA@ 61075718     utils.obj
 0002:0000d72c       ??_C@_08PNLNEKOB@kernel32?$AA@ 6107572c     utils.obj
 0002:0000d73c       ??_7ProgressMonitor@@6B@   6107573c     utils.obj
 0002:0000d744       ??_C@_0BI@CFPLBAOH@invalid?5string?5position?$AA@ 61075744     utils.obj
 0002:0000d75c       ??_C@_0BA@JFNIOLAK@string?5too?5long?$AA@ 6107575c     utils.obj
 0002:0000d76c       ??_C@_0L@GCBAAPPI@volume?4cpp?$AA@ 6107576c     volume.obj
 0002:0000d778       ??_C@_1EC@OHCGENEL@?$AAN?$AAe?$AAt?$AAw?$AAo?$AAr?$AAk?$AA?5?$AAs?$AAh?$AAa?$AAr?$AAe?$AAs?$AA?5?$AAa?$AAr?$AAe?$AA?5?$AAn?$AAo?$AAt?$AA?5?$AAs?$AAu?$AAp?$AAp?$AAo?$AAr?$AAt?$AAe?$AAd@ 61075778     volume.obj
 0002:0000d7bc       ??_C@_19ENNDBEJL@?$AAN?$AAT?$AAF?$AAS?$AA?$AA@ 610757bc     volume.obj
 0002:0000d7c8       ??_C@_1EA@HKBJMILJ@?$AAO?$AAn?$AAl?$AAy?$AA?5?$AAN?$AAT?$AAF?$AAS?$AA?5?$AAv?$AAo?$AAl?$AAu?$AAm?$AAe?$AAs?$AA?5?$AAa?$AAr?$AAe?$AA?5?$AAs?$AAu?$AAp?$AAp?$AAo?$AAr?$AAt?$AAe?$AAd?$AA?$AA@ 610757c8     volume.obj
 0002:0000d808       ??_C@_1CO@DPABIGN@?$AAU?$AAn?$AAe?$AAx?$AAp?$AAe?$AAc?$AAt?$AAe?$AAd?$AA?5?$AAv?$AAo?$AAl?$AAu?$AAm?$AAe?$AA?5?$AAn?$AAa?$AAm?$AAe?$AA?$AA@ 61075808     volume.obj
 0002:0000d838       ??_C@_0P@HOKHBJKI@defragment?4cpp?$AA@ 61075838     defragment.obj
 0002:0000d84c       ??_7IDefragProgress@@6B@   6107584c     defragment.obj
 0002:0000d854       ??_7DefragProgress@@6BProgressMonitor@@@ 61075854     defragment.obj
 0002:0000d860       ??_7DefragProgress@@6BIDefragProgress@@@ 61075860     defragment.obj
 0002:0000d864       ??_C@_0N@MPGBAEMJ@mftindex?4cpp?$AA@ 61075864     mftindex.obj
 0002:0000d874       ??_C@_1CG@HNACKLNA@?$AAC?$AAo?$AAm?$AAp?$AAr?$AAe?$AAs?$AAs?$AAo?$AAr?$AA?5?$AAf?$AAa?$AAi?$AAl?$AAu?$AAr?$AAe?$AA?$AA@ 61075874     mftindex.obj
 0002:0000d89c       ??_C@_1CK@FNDBPKLO@?$AAC?$AAo?$AAr?$AAr?$AAu?$AAp?$AAt?$AAe?$AAd?$AA?5?$AAc?$AAa?$AAc?$AAh?$AAe?$AA?5?$AAf?$AAi?$AAl?$AAe?$AA?$AA@ 6107589c     mftindex.obj
 0002:0000d8c8       ??_C@_1DC@KKIKDNDA@?$AAW?$AAr?$AAo?$AAn?$AAg?$AA?5?$AAc?$AAa?$AAc?$AAh?$AAe?$AA?5?$AAf?$AAi?$AAl?$AAe?$AA?5?$AAv?$AAe?$AAr?$AAs?$AAi?$AAo?$AAn?$AA?$AA@ 610758c8     mftindex.obj
 0002:0000d8fc       ??_C@_1BE@EBMHMKHF@?$AA?4?$AAn?$AAt?$AAf?$AAs?$AAf?$AAi?$AAl?$AAe?$AA?$AA@ 610758fc     mftindex.obj
 0002:0000d910       ??_C@_1BC@INPOCPGC@?$AA$?$AAB?$AAa?$AAd?$AAC?$AAl?$AAu?$AAs?$AA?$AA@ 61075910     mftindex.obj
 0002:0000d924       ??_C@_0BM@PAPJHAGI@invalid?5map?1set?$DMT?$DO?5iterator?$AA@ 61075924     mftindex.obj
 0002:0000d940       ??_C@_0BE@JONHPENG@map?1set?$DMT?$DO?5too?5long?$AA@ 61075940     mftindex.obj
 0002:0000d958       ??_7VolumeListProgress@?1??create_mft_index@FilePanel@@AAEXXZ@6B@ 61075958     mftindex.obj
 0002:0000d964       ??_7Progress@?1??update_mft_index_from_usn@FilePanel@@AAEXXZ@6B@ 61075964     mftindex.obj
 0002:0000d970       ??_7Progress@?3??store_mft_index@FilePanel@@AAEXXZ@6B@ 61075970     mftindex.obj
 0002:0000d97c       ??_7Progress@?1??load_mft_index@FilePanel@@AAEXXZ@6B@ 6107597c     mftindex.obj
 0002:0000d984       ??_C@_0M@GMAEPHGB@filever?4cpp?$AA@ 61075984     filever.obj
 0002:0000d990       ??_C@_1BI@IEJCOLMP@?$AA?$CF?$AAu?$AA?4?$AA?$CF?$AAu?$AA?4?$AA?$CF?$AAu?$AA?4?$AA?$CF?$AAu?$AA?$AA@ 61075990     filever.obj
 0002:0000d9a8       ??_C@_15JOGBDECP@?$AA?0?$AA?5?$AA?$AA@ 610759a8     filever.obj
 0002:0000d9b0       ??_C@_1BI@IEJLANHI@?$AAV?$AAS?$AA_?$AAF?$AAF?$AA_?$AAD?$AAE?$AAB?$AAU?$AAG?$AA?$AA@ 610759b0     filever.obj
 0002:0000d9c8       ??_C@_1CG@FKMFCFHO@?$AAV?$AAS?$AA_?$AAF?$AAF?$AA_?$AAI?$AAN?$AAF?$AAO?$AAI?$AAN?$AAF?$AAE?$AAR?$AAR?$AAE?$AAD?$AA?$AA@ 610759c8     filever.obj
 0002:0000d9f0       ??_C@_1BM@KONPANGA@?$AAV?$AAS?$AA_?$AAF?$AAF?$AA_?$AAP?$AAA?$AAT?$AAC?$AAH?$AAE?$AAD?$AA?$AA@ 610759f0     filever.obj
 0002:0000da0c       ??_C@_1CC@JNBCIAIG@?$AAV?$AAS?$AA_?$AAF?$AAF?$AA_?$AAP?$AAR?$AAE?$AAR?$AAE?$AAL?$AAE?$AAA?$AAS?$AAE?$AA?$AA@ 61075a0c     filever.obj
 0002:0000da30       ??_C@_1CG@KLBNPHEG@?$AAV?$AAS?$AA_?$AAF?$AAF?$AA_?$AAP?$AAR?$AAI?$AAV?$AAA?$AAT?$AAE?$AAB?$AAU?$AAI?$AAL?$AAD?$AA?$AA@ 61075a30     filever.obj
 0002:0000da58       ??_C@_1CG@ILKGKKEP@?$AAV?$AAS?$AA_?$AAF?$AAF?$AA_?$AAS?$AAP?$AAE?$AAC?$AAI?$AAA?$AAL?$AAB?$AAU?$AAI?$AAL?$AAD?$AA?$AA@ 61075a58     filever.obj
 0002:0000da80       ??_C@_1BA@BGDKNHPG@?$AAV?$AAO?$AAS?$AA_?$AAD?$AAO?$AAS?$AA?$AA@ 61075a80     filever.obj
 0002:0000da90       ??_C@_1O@BMGCABFK@?$AAV?$AAO?$AAS?$AA_?$AAN?$AAT?$AA?$AA@ 61075a90     filever.obj
 0002:0000daa0       ??_C@_1BO@BLPOLMJI@?$AAV?$AAO?$AAS?$AA_?$AA_?$AAW?$AAI?$AAN?$AAD?$AAO?$AAW?$AAS?$AA1?$AA6?$AA?$AA@ 61075aa0     filever.obj
 0002:0000dac0       ??_C@_1BO@NJFEIKME@?$AAV?$AAO?$AAS?$AA_?$AA_?$AAW?$AAI?$AAN?$AAD?$AAO?$AAW?$AAS?$AA3?$AA2?$AA?$AA@ 61075ac0     filever.obj
 0002:0000dae0       ??_C@_1BE@LAJBBHNO@?$AAV?$AAO?$AAS?$AA_?$AAO?$AAS?$AA2?$AA1?$AA6?$AA?$AA@ 61075ae0     filever.obj
 0002:0000daf4       ??_C@_1BE@HCDLCBIC@?$AAV?$AAO?$AAS?$AA_?$AAO?$AAS?$AA2?$AA3?$AA2?$AA?$AA@ 61075af4     filever.obj
 0002:0000db08       ??_C@_1BE@CCMOMCBN@?$AAV?$AAO?$AAS?$AA_?$AA_?$AAP?$AAM?$AA1?$AA6?$AA?$AA@ 61075b08     filever.obj
 0002:0000db1c       ??_C@_1BE@OAGEPEEB@?$AAV?$AAO?$AAS?$AA_?$AA_?$AAP?$AAM?$AA3?$AA2?$AA?$AA@ 61075b1c     filever.obj
 0002:0000db30       ??_C@_1BI@JHNEKHNE@?$AAV?$AAF?$AAT?$AA_?$AAU?$AAN?$AAK?$AAN?$AAO?$AAW?$AAN?$AA?$AA@ 61075b30     filever.obj
 0002:0000db48       ??_C@_1BA@GECBNAPN@?$AAV?$AAF?$AAT?$AA_?$AAA?$AAP?$AAP?$AA?$AA@ 61075b48     filever.obj
 0002:0000db58       ??_C@_1BA@ECBKPEFO@?$AAV?$AAF?$AAT?$AA_?$AAD?$AAL?$AAL?$AA?$AA@ 61075b58     filever.obj
 0002:0000db68       ??_C@_1BA@EEGCCAEO@?$AAV?$AAF?$AAT?$AA_?$AAD?$AAR?$AAV?$AA?$AA@ 61075b68     filever.obj
 0002:0000db78       ??_C@_1BC@BNDFOKOF@?$AAV?$AAF?$AAT?$AA_?$AAF?$AAO?$AAN?$AAT?$AA?$AA@ 61075b78     filever.obj
 0002:0000db8c       ??_C@_1BA@CBHHKKGK@?$AAV?$AAF?$AAT?$AA_?$AAV?$AAX?$AAD?$AA?$AA@ 61075b8c     filever.obj
 0002:0000db9c       ??_C@_1BO@IHDJOGPB@?$AAV?$AAF?$AAT?$AA_?$AAS?$AAT?$AAA?$AAT?$AAI?$AAC?$AA_?$AAL?$AAI?$AAB?$AA?$AA@ 61075b9c     filever.obj
 0002:0000dbbc       ??_C@_1BK@JJEEKDBI@?$AAV?$AAF?$AAT?$AA2?$AA_?$AAU?$AAN?$AAK?$AAN?$AAO?$AAW?$AAN?$AA?$AA@ 61075bbc     filever.obj
 0002:0000dbd8       ??_C@_1BM@FBENCBBK@?$AAV?$AAF?$AAT?$AA2?$AA_?$AAD?$AAR?$AAV?$AA_?$AAC?$AAO?$AAM?$AAM?$AA?$AA@ 61075bd8     filever.obj
 0002:0000dbf4       ??_C@_1CC@EDIHAEMD@?$AAV?$AAF?$AAT?$AA2?$AA_?$AAD?$AAR?$AAV?$AA_?$AAP?$AAR?$AAI?$AAN?$AAT?$AAE?$AAR?$AA?$AA@ 61075bf4     filever.obj
 0002:0000dc18       ??_C@_1CE@DNKCAOM@?$AAV?$AAF?$AAT?$AA2?$AA_?$AAD?$AAR?$AAV?$AA_?$AAK?$AAE?$AAY?$AAB?$AAO?$AAA?$AAR?$AAD?$AA?$AA@ 61075c18     filever.obj
 0002:0000dc3c       ??_C@_1CE@HGDCGCNP@?$AAV?$AAF?$AAT?$AA2?$AA_?$AAD?$AAR?$AAV?$AA_?$AAL?$AAA?$AAN?$AAG?$AAU?$AAA?$AAG?$AAE?$AA?$AA@ 61075c3c     filever.obj
 0002:0000dc60       ??_C@_1CC@GEJNCKBE@?$AAV?$AAF?$AAT?$AA2?$AA_?$AAD?$AAR?$AAV?$AA_?$AAD?$AAI?$AAS?$AAP?$AAL?$AAA?$AAY?$AA?$AA@ 61075c60     filever.obj
 0002:0000dc84       ??_C@_1BO@CPDNIJKM@?$AAV?$AAF?$AAT?$AA2?$AA_?$AAD?$AAR?$AAV?$AA_?$AAM?$AAO?$AAU?$AAS?$AAE?$AA?$AA@ 61075c84     filever.obj
 0002:0000dca4       ??_C@_1CC@NNECBLCB@?$AAV?$AAF?$AAT?$AA2?$AA_?$AAD?$AAR?$AAV?$AA_?$AAN?$AAE?$AAT?$AAW?$AAO?$AAR?$AAK?$AA?$AA@ 61075ca4     filever.obj
 0002:0000dcc8       ??_C@_1CA@LGHPDPBC@?$AAV?$AAF?$AAT?$AA2?$AA_?$AAD?$AAR?$AAV?$AA_?$AAS?$AAY?$AAS?$AAT?$AAE?$AAM?$AA?$AA@ 61075cc8     filever.obj
 0002:0000dce8       ??_C@_1CK@OOLCMAGL@?$AAV?$AAF?$AAT?$AA2?$AA_?$AAD?$AAR?$AAV?$AA_?$AAI?$AAN?$AAS?$AAT?$AAA?$AAL?$AAL?$AAA?$AAB?$AAL?$AAE?$AA?$AA@ 61075ce8     filever.obj
 0002:0000dd14       ??_C@_1BO@MNOAMBGO@?$AAV?$AAF?$AAT?$AA2?$AA_?$AAD?$AAR?$AAV?$AA_?$AAS?$AAO?$AAU?$AAN?$AAD?$AA?$AA@ 61075d14     filever.obj
 0002:0000dd34       ??_C@_1DG@DJOJHEJJ@?$AAV?$AAF?$AAT?$AA2?$AA_?$AAD?$AAR?$AAV?$AA_?$AAV?$AAE?$AAR?$AAS?$AAI?$AAO?$AAN?$AAE?$AAD?$AA_?$AAP?$AAR?$AAI?$AAN?$AAT?$AAE?$AAR?$AA?$AA@ 61075d34     filever.obj
 0002:0000dd6c       ??_C@_1CC@BLPNEGCI@?$AAV?$AAF?$AAT?$AA2?$AA_?$AAF?$AAO?$AAN?$AAT?$AA_?$AAR?$AAA?$AAS?$AAT?$AAE?$AAR?$AA?$AA@ 61075d6c     filever.obj
 0002:0000dd90       ??_C@_1CC@IHGCFAMC@?$AAV?$AAF?$AAT?$AA2?$AA_?$AAF?$AAO?$AAN?$AAT?$AA_?$AAV?$AAE?$AAC?$AAT?$AAO?$AAR?$AA?$AA@ 61075d90     filever.obj
 0002:0000ddb4       ??_C@_1CG@KBEIKKAL@?$AAV?$AAF?$AAT?$AA2?$AA_?$AAF?$AAO?$AAN?$AAT?$AA_?$AAT?$AAR?$AAU?$AAE?$AAT?$AAY?$AAP?$AAE?$AA?$AA@ 61075db4     filever.obj
 0002:0000dddc       ??_C@_1BC@OJAINIIB@?$AAC?$AAo?$AAm?$AAm?$AAe?$AAn?$AAt?$AAs?$AA?$AA@ 61075ddc     filever.obj
 0002:0000ddf0       ??_C@_1BI@KBKGFMKH@?$AAC?$AAo?$AAm?$AAp?$AAa?$AAn?$AAy?$AAN?$AAa?$AAm?$AAe?$AA?$AA@ 61075df0     filever.obj
 0002:0000de08       ??_C@_1CA@JGBAIPOO@?$AAF?$AAi?$AAl?$AAe?$AAD?$AAe?$AAs?$AAc?$AAr?$AAi?$AAp?$AAt?$AAi?$AAo?$AAn?$AA?$AA@ 61075e08     filever.obj
 0002:0000de28       ??_C@_1BI@HCCAONKE@?$AAF?$AAi?$AAl?$AAe?$AAV?$AAe?$AAr?$AAs?$AAi?$AAo?$AAn?$AA?$AA@ 61075e28     filever.obj
 0002:0000de40       ??_C@_1BK@OCJLMIBB@?$AAI?$AAn?$AAt?$AAe?$AAr?$AAn?$AAa?$AAl?$AAN?$AAa?$AAm?$AAe?$AA?$AA@ 61075e40     filever.obj
 0002:0000de5c       ??_C@_1BO@DAFANMIE@?$AAL?$AAe?$AAg?$AAa?$AAl?$AAC?$AAo?$AAp?$AAy?$AAr?$AAi?$AAg?$AAh?$AAt?$AA?$AA@ 61075e5c     filever.obj
 0002:0000de7c       ??_C@_1CA@PLJPDBM@?$AAL?$AAe?$AAg?$AAa?$AAl?$AAT?$AAr?$AAa?$AAd?$AAe?$AAm?$AAa?$AAr?$AAk?$AAs?$AA?$AA@ 61075e7c     filever.obj
 0002:0000de9c       ??_C@_1CC@CHBCEHAO@?$AAO?$AAr?$AAi?$AAg?$AAi?$AAn?$AAa?$AAl?$AAF?$AAi?$AAl?$AAe?$AAn?$AAa?$AAm?$AAe?$AA?$AA@ 61075e9c     filever.obj
 0002:0000dec0       ??_C@_1BI@CJGIOPAN@?$AAP?$AAr?$AAo?$AAd?$AAu?$AAc?$AAt?$AAN?$AAa?$AAm?$AAe?$AA?$AA@ 61075ec0     filever.obj
 0002:0000ded8       ??_C@_1BO@OKEPMKJE@?$AAP?$AAr?$AAo?$AAd?$AAu?$AAc?$AAt?$AAV?$AAe?$AAr?$AAs?$AAi?$AAo?$AAn?$AA?$AA@ 61075ed8     filever.obj
 0002:0000def8       ??_C@_1BK@CEMEOMHP@?$AAP?$AAr?$AAi?$AAv?$AAa?$AAt?$AAe?$AAB?$AAu?$AAi?$AAl?$AAd?$AA?$AA@ 61075ef8     filever.obj
 0002:0000df14       ??_C@_1BK@EHPLBHG@?$AAS?$AAp?$AAe?$AAc?$AAi?$AAa?$AAl?$AAB?$AAu?$AAi?$AAl?$AAd?$AA?$AA@ 61075f14     filever.obj
 0002:0000df30       ??_C@_1DC@HCLBMGIA@?$AA?2?$AAV?$AAa?$AAr?$AAF?$AAi?$AAl?$AAe?$AAI?$AAn?$AAf?$AAo?$AA?2?$AAT?$AAr?$AAa?$AAn?$AAs?$AAl?$AAa?$AAt?$AAi?$AAo?$AAn?$AA?$AA@ 61075f30     filever.obj
 0002:0000df64       ??_C@_1DE@CHNNACJM@?$AA?2?$AAS?$AAt?$AAr?$AAi?$AAn?$AAg?$AAF?$AAi?$AAl?$AAe?$AAI?$AAn?$AAf?$AAo?$AA?2?$AA?$CF?$AAH?$AAx?$AA?$CF?$AAH?$AAx?$AA?2?$AA?$CF?$AAs?$AA?$AA@ 61075f64     filever.obj
 0002:0000df98       ??_C@_19EIPBMNMA@?$AAI?$AA3?$AA8?$AA6?$AA?$AA@ 61075f98     filever.obj
 0002:0000dfa4       ??_C@_1M@EEBFAJEO@?$AAA?$AAM?$AAD?$AA6?$AA4?$AA?$AA@ 61075fa4     filever.obj
 0002:0000dfb0       ??_C@_19DGIHPCNG@?$AAI?$AAA?$AA6?$AA4?$AA?$AA@ 61075fb0     filever.obj
 0002:0000dfbc       ??_C@_1BA@OPMDIKBM@?$AA?$CF?$AAH?$AAu?$AA?4?$AA?$CF?$AAH?$AAu?$AA?$AA@ 61075fbc     filever.obj
 0002:0000dfcc       ??_C@_1BA@HABJOAEE@?$AAU?$AAN?$AAK?$AAN?$AAO?$AAW?$AAN?$AA?$AA@ 61075fcc     filever.obj
 0002:0000dfdc       ??_C@_1O@PPJAGDMH@?$AAN?$AAA?$AAT?$AAI?$AAV?$AAE?$AA?$AA@ 61075fdc     filever.obj
 0002:0000dfec       ??_C@_1BI@LFDOEKJD@?$AAW?$AAI?$AAN?$AAD?$AAO?$AAW?$AAS?$AA_?$AAG?$AAU?$AAI?$AA?$AA@ 61075fec     filever.obj
 0002:0000e004       ??_C@_1BI@DBHEEEGJ@?$AAW?$AAI?$AAN?$AAD?$AAO?$AAW?$AAS?$AA_?$AAC?$AAU?$AAI?$AA?$AA@ 61076004     filever.obj
 0002:0000e01c       ??_C@_1BA@EFPKPFIP@?$AAO?$AAS?$AA2?$AA_?$AAC?$AAU?$AAI?$AA?$AA@ 6107601c     filever.obj
 0002:0000e02c       ??_C@_1BE@ILNHFKE@?$AAP?$AAO?$AAS?$AAI?$AAX?$AA_?$AAC?$AAU?$AAI?$AA?$AA@ 6107602c     filever.obj
 0002:0000e040       ??_C@_1BO@PMNDEBCD@?$AAW?$AAI?$AAN?$AAD?$AAO?$AAW?$AAS?$AA_?$AAC?$AAE?$AA_?$AAG?$AAU?$AAI?$AA?$AA@ 61076040     filever.obj
 0002:0000e060       ??_C@_1CA@NBLNMHOE@?$AAE?$AAF?$AAI?$AA_?$AAA?$AAP?$AAP?$AAL?$AAI?$AAC?$AAA?$AAT?$AAI?$AAO?$AAN?$AA?$AA@ 61076060     filever.obj
 0002:0000e080       ??_C@_1DA@HGKBFGGF@?$AAE?$AAF?$AAI?$AA_?$AAB?$AAO?$AAO?$AAT?$AA_?$AAS?$AAE?$AAR?$AAV?$AAI?$AAC?$AAE?$AA_?$AAD?$AAR?$AAI?$AAV?$AAE?$AAR?$AA?$AA@ 61076080     filever.obj
 0002:0000e0b0       ??_C@_1CG@MJJNMKMB@?$AAE?$AAF?$AAI?$AA_?$AAR?$AAU?$AAN?$AAT?$AAI?$AAM?$AAE?$AA_?$AAD?$AAR?$AAI?$AAV?$AAE?$AAR?$AA?$AA@ 610760b0     filever.obj
 0002:0000e0d8       ??_C@_1BA@JLLOLPEH@?$AAE?$AAF?$AAI?$AA_?$AAR?$AAO?$AAM?$AA?$AA@ 610760d8     filever.obj
 0002:0000e0e8       ??_C@_19CNLJALFB@?$AAX?$AAB?$AAO?$AAX?$AA?$AA@ 610760e8     filever.obj
 0002:0000e0f4       ??_C@_1DC@MGAMABAC@?$AAW?$AAI?$AAN?$AAD?$AAO?$AAW?$AAS?$AA_?$AAB?$AAO?$AAO?$AAT?$AA_?$AAA?$AAP?$AAP?$AAL?$AAI?$AAC?$AAA?$AAT?$AAI?$AAO?$AAN?$AA?$AA@ 610760f4     filever.obj
 0002:0000e128       ??_C@_1CA@GPAFLLNE@?$AAR?$AAE?$AAL?$AAO?$AAC?$AAS?$AA_?$AAS?$AAT?$AAR?$AAI?$AAP?$AAP?$AAE?$AAD?$AA?$AA@ 61076128     filever.obj
 0002:0000e148       ??_C@_1CC@HEFCME@?$AAE?$AAX?$AAE?$AAC?$AAU?$AAT?$AAA?$AAB?$AAL?$AAE?$AA_?$AAI?$AAM?$AAA?$AAG?$AAE?$AA?$AA@ 61076148     filever.obj
 0002:0000e16c       ??_C@_1CG@MDADGLPA@?$AAL?$AAI?$AAN?$AAE?$AA_?$AAN?$AAU?$AAM?$AAS?$AA_?$AAS?$AAT?$AAR?$AAI?$AAP?$AAP?$AAE?$AAD?$AA?$AA@ 6107616c     filever.obj
 0002:0000e194       ??_C@_1CI@MNEPJADE@?$AAL?$AAO?$AAC?$AAA?$AAL?$AA_?$AAS?$AAY?$AAM?$AAS?$AA_?$AAS?$AAT?$AAR?$AAI?$AAP?$AAP?$AAE?$AAD?$AA?$AA@ 61076194     filever.obj
 0002:0000e1bc       ??_C@_1CE@KPDIINHH@?$AAA?$AAG?$AAG?$AAR?$AAE?$AAS?$AAI?$AAV?$AAE?$AA_?$AAW?$AAS?$AA_?$AAT?$AAR?$AAI?$AAM?$AA?$AA@ 610761bc     filever.obj
 0002:0000e1e0       ??_C@_1CI@DNLENBJA@?$AAL?$AAA?$AAR?$AAG?$AAE?$AA_?$AAA?$AAD?$AAD?$AAR?$AAE?$AAS?$AAS?$AA_?$AAA?$AAW?$AAA?$AAR?$AAE?$AA?$AA@ 610761e0     filever.obj
 0002:0000e208       ??_C@_1CE@HGHBHGKH@?$AAB?$AAY?$AAT?$AAE?$AAS?$AA_?$AAR?$AAE?$AAV?$AAE?$AAR?$AAS?$AAE?$AAD?$AA_?$AAL?$AAO?$AA?$AA@ 61076208     filever.obj
 0002:0000e22c       ??_C@_1BM@JMGEPIIF@?$AA3?$AA2?$AAB?$AAI?$AAT?$AA_?$AAM?$AAA?$AAC?$AAH?$AAI?$AAN?$AAE?$AA?$AA@ 6107622c     filever.obj
 0002:0000e248       ??_C@_1BO@LECIBHLA@?$AAD?$AAE?$AAB?$AAU?$AAG?$AA_?$AAS?$AAT?$AAR?$AAI?$AAP?$AAP?$AAE?$AAD?$AA?$AA@ 61076248     filever.obj
 0002:0000e268       ??_C@_1DA@NOOJDGHI@?$AAR?$AAE?$AAM?$AAO?$AAV?$AAA?$AAB?$AAL?$AAE?$AA_?$AAR?$AAU?$AAN?$AA_?$AAF?$AAR?$AAO?$AAM?$AA_?$AAS?$AAW?$AAA?$AAP?$AA?$AA@ 61076268     filever.obj
 0002:0000e298       ??_C@_1CE@NEAHHCII@?$AAN?$AAE?$AAT?$AA_?$AAR?$AAU?$AAN?$AA_?$AAF?$AAR?$AAO?$AAM?$AA_?$AAS?$AAW?$AAA?$AAP?$AA?$AA@ 61076298     filever.obj
 0002:0000e2bc       ??_C@_1O@GBFINDKL@?$AAS?$AAY?$AAS?$AAT?$AAE?$AAM?$AA?$AA@ 610762bc     filever.obj
 0002:0000e2cc       ??_C@_17JOFCMBBD@?$AAD?$AAL?$AAL?$AA?$AA@ 610762cc     filever.obj
 0002:0000e2d4       ??_C@_1BO@JHKPENOP@?$AAU?$AAP?$AA_?$AAS?$AAY?$AAS?$AAT?$AAE?$AAM?$AA_?$AAO?$AAN?$AAL?$AAY?$AA?$AA@ 610762d4     filever.obj
 0002:0000e2f4       ??_C@_1CE@MIILGLGN@?$AAB?$AAY?$AAT?$AAE?$AAS?$AA_?$AAR?$AAE?$AAV?$AAE?$AAR?$AAS?$AAE?$AAD?$AA_?$AAH?$AAI?$AA?$AA@ 610762f4     filever.obj
 0002:0000e318       ??_C@_1BK@HFBNDPHG@?$AAD?$AAY?$AAN?$AAA?$AAM?$AAI?$AAC?$AA_?$AAB?$AAA?$AAS?$AAE?$AA?$AA@ 61076318     filever.obj
 0002:0000e334       ??_C@_1CA@CEBEDILC@?$AAF?$AAO?$AAR?$AAC?$AAE?$AA_?$AAI?$AAN?$AAT?$AAE?$AAG?$AAR?$AAI?$AAT?$AAY?$AA?$AA@ 61076334     filever.obj
 0002:0000e354       ??_C@_1BE@NIMAGGGI@?$AAN?$AAX?$AA_?$AAC?$AAO?$AAM?$AAP?$AAA?$AAT?$AA?$AA@ 61076354     filever.obj
 0002:0000e368       ??_C@_1BK@FEMOIOGB@?$AAN?$AAO?$AA_?$AAI?$AAS?$AAO?$AAL?$AAA?$AAT?$AAI?$AAO?$AAN?$AA?$AA@ 61076368     filever.obj
 0002:0000e384       ??_C@_1O@HEBCMOCF@?$AAN?$AAO?$AA_?$AAS?$AAE?$AAH?$AA?$AA@ 61076384     filever.obj
 0002:0000e394       ??_C@_1BA@MJMDJIKM@?$AAN?$AAO?$AA_?$AAB?$AAI?$AAN?$AAD?$AA?$AA@ 61076394     filever.obj
 0002:0000e3a4       ??_C@_1BG@GCBEHEOH@?$AAW?$AAD?$AAM?$AA_?$AAD?$AAR?$AAI?$AAV?$AAE?$AAR?$AA?$AA@ 610763a4     filever.obj
 0002:0000e3bc       ??_C@_1CM@MDMCJECO@?$AAT?$AAE?$AAR?$AAM?$AAI?$AAN?$AAA?$AAL?$AA_?$AAS?$AAE?$AAR?$AAV?$AAE?$AAR?$AA_?$AAA?$AAW?$AAA?$AAR?$AAE?$AA?$AA@ 610763bc     filever.obj
 0002:0000e3e8       ??_C@_0BH@JNDANHN@1?43?46?41?44?41?4311?42?41?412?$AA@ 610763e8     filever.obj
 0002:0000e400       ??_C@_0BF@FAFEKMCA@1?42?4840?4113549?41?49?46?$AA@ 61076400     filever.obj
 0002:0000e418       ??_C@_0BF@HLHJPPOD@1?42?4840?4113549?41?49?45?$AA@ 61076418     filever.obj
 0002:0000e430       ??_C@_1DC@DPEIDKEF@?$AAT?$AAR?$AAU?$AAS?$AAT?$AA_?$AAE?$AA_?$AAP?$AAR?$AAO?$AAV?$AAI?$AAD?$AAE?$AAR?$AA_?$AAU?$AAN?$AAK?$AAN?$AAO?$AAW?$AAN?$AA?$AA@ 61076430     filever.obj
 0002:0000e464       ??_C@_1DK@JOFGICF@?$AAT?$AAR?$AAU?$AAS?$AAT?$AA_?$AAE?$AA_?$AAS?$AAU?$AAB?$AAJ?$AAE?$AAC?$AAT?$AA_?$AAF?$AAO?$AAR?$AAM?$AA_?$AAU?$AAN?$AAK?$AAN?$AAO?$AAW?$AAN?$AA?$AA@ 61076464     filever.obj
 0002:0000e4a0       ??_C@_1DE@DCCAAANL@?$AAT?$AAR?$AAU?$AAS?$AAT?$AA_?$AAE?$AA_?$AAE?$AAX?$AAP?$AAL?$AAI?$AAC?$AAI?$AAT?$AA_?$AAD?$AAI?$AAS?$AAT?$AAR?$AAU?$AAS?$AAT?$AA?$AA@ 610764a0     filever.obj
 0002:0000e4d4       ??_C@_1DI@PMJHDHOO@?$AAT?$AAR?$AAU?$AAS?$AAT?$AA_?$AAE?$AA_?$AAS?$AAU?$AAB?$AAJ?$AAE?$AAC?$AAT?$AA_?$AAN?$AAO?$AAT?$AA_?$AAT?$AAR?$AAU?$AAS?$AAT?$AAE?$AAD?$AA?$AA@ 610764d4     filever.obj
 0002:0000e50c       ??_C@_1DE@GPOCNCNM@?$AAC?$AAR?$AAY?$AAP?$AAT?$AA_?$AAE?$AA_?$AAS?$AAE?$AAC?$AAU?$AAR?$AAI?$AAT?$AAY?$AA_?$AAS?$AAE?$AAT?$AAT?$AAI?$AAN?$AAG?$AAS?$AA?$AA@ 6107650c     filever.obj
 0002:0000e540       ??_C@_19PCNJIDGC@?$AA0?$AAx?$AA?$CF?$AAx?$AA?$AA@ 61076540     filever.obj
 0002:0000e54c       ??_C@_1BC@CBFEIGFL@?$AA0?$AAx?$AA?$CF?$AAH?$AAx?$AA?$CF?$AAH?$AAx?$AA?$AA@ 6107654c     filever.obj
 0002:0000e560       ??_C@_0BC@EFLLFMHP@RtlCompressBuffer?$AA@ 61076560     compress_files.obj
 0002:0000e574       ??_C@_05EMFAAAMC@ntdll?$AA@ 61076574     compress_files.obj
 0002:0000e57c       ??_C@_0BD@IIEFNDNC@compress_files?4cpp?$AA@ 6107657c     compress_files.obj
 0002:0000e590       ??_C@_0BP@PEOALDAJ@RtlGetCompressionWorkSpaceSize?$AA@ 61076590     compress_files.obj
 0002:0000e5b0       ??_C@_1DO@LINKAGFL@?$AAR?$AAt?$AAl?$AAG?$AAe?$AAt?$AAC?$AAo?$AAm?$AAp?$AAr?$AAe?$AAs?$AAs?$AAi?$AAo?$AAn?$AAW?$AAo?$AAr?$AAk?$AAS?$AAp?$AAa?$AAc?$AAe?$AAS?$AAi?$AAz?$AAe?$AA?$AA@ 610765b0     compress_files.obj
 0002:0000e5f0       ??_C@_19NGFJFBME@?$AA?$CF?$AA?4?$AA?$CK?$AAc?$AA?$AA@ 610765f0     compress_files.obj
 0002:0000e5fc       ??_C@_1CE@CAABGKIC@?$AAR?$AAt?$AAl?$AAC?$AAo?$AAm?$AAp?$AAr?$AAe?$AAs?$AAs?$AAB?$AAu?$AAf?$AAf?$AAe?$AAr?$AA?$AA@ 610765fc     compress_files.obj
 0002:0000e620       ??_C@_1DG@LJHDHLKM@?$AAC?$AAo?$AAm?$AAp?$AAr?$AAe?$AAs?$AAs?$AAi?$AAo?$AAn?$AA?5?$AAt?$AAh?$AAr?$AAe?$AAa?$AAd?$AA?5?$AAf?$AAa?$AAi?$AAl?$AAu?$AAr?$AAe?$AA?$AA@ 61076620     compress_files.obj
 0002:0000e658       ??_C@_1BO@ENKGMFIB@?$AAc?$AAo?$AAm?$AAp?$AAr?$AAe?$AAs?$AAs?$AA_?$AAf?$AAi?$AAl?$AAe?$AAs?$AA?$AA@ 61076658     compress_files.obj
 0002:0000e678       ??_C@_0BD@OLBABOEK@vector?$DMT?$DO?5too?5long?$AA@ 61076678     compress_files.obj
 0002:0000e68c       ??_C@_0BM@NMJKDPPO@invalid?5vector?$DMT?$DO?5subscript?$AA@ 6107668c     compress_files.obj
 0002:0000e6ac       ??_7CriticalSection@@6B@   610766ac     compress_files.obj
 0002:0000e6b4       ??_7CompressFiles@@6BProgressMonitor@@@ 610766b4     compress_files.obj
 0002:0000e6c0       ??_7CompressFiles@@6BIDefragProgress@@@ 610766c0     compress_files.obj
 0002:0000e6c4       ??_C@_0BA@EDPLCHIM@volume_list?4cpp?$AA@ 610766c4     volume_list.obj
 0002:0000e6d4       ??_C@_1BC@FGFNDPJJ@?$AA?$CF?$AAu?$AA?0?$AA?$CF?$AAu?$AA?0?$AA?$CF?$AAu?$AA?$AA@ 610766d4     volume_list.obj
 0002:0000e6e8       ??_C@_05NEEKIFMD@fips2?$AA@ 610766e8     libeay32:cryptlib.obj
 0002:0000e6f0       ??_C@_04DJGCHAOD@fips?$AA@ 610766f0     libeay32:cryptlib.obj
 0002:0000e6f8       ??_C@_04OLDKMDKP@comp?$AA@ 610766f8     libeay32:cryptlib.obj
 0002:0000e700       ??_C@_05ODGDKDLF@store?$AA@ 61076700     libeay32:cryptlib.obj
 0002:0000e708       ??_C@_0M@FNJFEIGB@ec_pre_comp?$AA@ 61076708     libeay32:cryptlib.obj
 0002:0000e714       ??_C@_02LAJDHPIK@bn?$AA@   61076714     libeay32:cryptlib.obj
 0002:0000e718       ??_C@_04KDGGCKGB@ecdh?$AA@ 61076718     libeay32:cryptlib.obj
 0002:0000e720       ??_C@_02HCBHEC@ec?$AA@     61076720     libeay32:cryptlib.obj
 0002:0000e724       ??_C@_05FGIDCBJD@ecdsa?$AA@ 61076724     libeay32:cryptlib.obj
 0002:0000e72c       ??_C@_02OGLLFMLI@ui?$AA@   6107672c     libeay32:cryptlib.obj
 0002:0000e730       ??_C@_06LOBMEHPF@engine?$AA@ 61076730     libeay32:cryptlib.obj
 0002:0000e738       ??_C@_07HGGNMPAJ@dynlock?$AA@ 61076738     libeay32:cryptlib.obj
 0002:0000e740       ??_C@_03NOCNOBNG@dso?$AA@  61076740     libeay32:cryptlib.obj
 0002:0000e744       ??_C@_0O@PMFKBDME@debug_malloc2?$AA@ 61076744     libeay32:cryptlib.obj
 0002:0000e754       ??_C@_02OCEEKELO@dh?$AA@   61076754     libeay32:cryptlib.obj
 0002:0000e758       ??_C@_0N@BGAJKBNF@RSA_blinding?$AA@ 61076758     libeay32:cryptlib.obj
 0002:0000e768       ??_C@_07OMHHFDME@readdir?$AA@ 61076768     libeay32:cryptlib.obj
 0002:0000e770       ??_C@_0O@NKLJGHIL@getservbyname?$AA@ 61076770     libeay32:cryptlib.obj
 0002:0000e780       ??_C@_0O@BFBCKHPD@gethostbyname?$AA@ 61076780     libeay32:cryptlib.obj
 0002:0000e790       ??_C@_03OHAMFFNA@BIO?$AA@  61076790     libeay32:cryptlib.obj
 0002:0000e794       ??_C@_0N@CLEMOJNL@debug_malloc?$AA@ 61076794     libeay32:cryptlib.obj
 0002:0000e7a4       ??_C@_05NFNCBLNG@rand2?$AA@ 610767a4     libeay32:cryptlib.obj
 0002:0000e7ac       ??_C@_04HKINGDKC@rand?$AA@ 610767ac     libeay32:cryptlib.obj
 0002:0000e7b4       ??_C@_0L@NKBFNPDB@ssl_method?$AA@ 610767b4     libeay32:cryptlib.obj
 0002:0000e7c0       ??_C@_03DIMONNDD@ssl?$AA@  610767c0     libeay32:cryptlib.obj
 0002:0000e7c4       ??_C@_0O@LOCLBOHA@ssl_sess_cert?$AA@ 610767c4     libeay32:cryptlib.obj
 0002:0000e7d4       ??_C@_0M@OAEAFGMD@ssl_session?$AA@ 610767d4     libeay32:cryptlib.obj
 0002:0000e7e0       ??_C@_08INIFBEOB@ssl_cert?$AA@ 610767e0     libeay32:cryptlib.obj
 0002:0000e7ec       ??_C@_07DNHKIAPH@ssl_ctx?$AA@ 610767ec     libeay32:cryptlib.obj
 0002:0000e7f4       ??_C@_0L@JCDDFIOK@x509_store?$AA@ 610767f4     libeay32:cryptlib.obj
 0002:0000e800       ??_C@_08NBJJIGBN@evp_pkey?$AA@ 61076800     libeay32:cryptlib.obj
 0002:0000e80c       ??_C@_03DFNMMEBL@rsa?$AA@  6107680c     libeay32:cryptlib.obj
 0002:0000e810       ??_C@_03EAKOMMFI@dsa?$AA@  61076810     libeay32:cryptlib.obj
 0002:0000e814       ??_C@_08BHPLFFMD@x509_req?$AA@ 61076814     libeay32:cryptlib.obj
 0002:0000e820       ??_C@_08BJFLLMNA@x509_crl?$AA@ 61076820     libeay32:cryptlib.obj
 0002:0000e82c       ??_C@_09HNLHIFBP@x509_pkey?$AA@ 6107682c     libeay32:cryptlib.obj
 0002:0000e838       ??_C@_09DJEHILFA@x509_info?$AA@ 61076838     libeay32:cryptlib.obj
 0002:0000e844       ??_C@_04BNGFMDFF@x509?$AA@ 61076844     libeay32:cryptlib.obj
 0002:0000e84c       ??_C@_07OALPHBKG@ex_data?$AA@ 6107684c     libeay32:cryptlib.obj
 0002:0000e854       ??_C@_03JIDPIAJI@err?$AA@  61076854     libeay32:cryptlib.obj
 0002:0000e858       ??_C@_09OGFJIAEE@?$DM?$DMERROR?$DO?$DO?$AA@ 61076858     libeay32:cryptlib.obj
 0002:0000e864       ??_C@_0BA@MIDPHNKH@OPENSSL_ia32cap?$AA@ 61076864     libeay32:cryptlib.obj
 0002:0000e874       ??_C@_0BH@GBDCJGGB@?4?2crypto?2stack?2stack?4c?$AA@ 61076874     libeay32:stack.obj
 0002:0000e88c       ??_C@_0DE@JBNNAKOP@called?5a?5function?5that?5was?5disab@ 6107688c     libeay32:err.obj
 0002:0000e8c0       ??_C@_0P@LPIEGNHB@internal?5error?$AA@ 610768c0     libeay32:err.obj
 0002:0000e8d0       ??_C@_0BI@MMHLKOF@passed?5a?5null?5parameter?$AA@ 610768d0     libeay32:err.obj
 0002:0000e8e8       ??_C@_0CG@JFIACAPA@called?5a?5function?5you?5should?5not@ 610768e8     libeay32:err.obj
 0002:0000e910       ??_C@_0P@BOLAOBGL@malloc?5failure?$AA@ 61076910     libeay32:err.obj
 0002:0000e920       ??_C@_05FAMCFOJB@fatal?$AA@ 61076920     libeay32:err.obj
 0002:0000e928       ??_C@_0BB@LLCBNOLO@missing?5asn1?5eos?$AA@ 61076928     libeay32:err.obj
 0002:0000e93c       ??_C@_0BF@JKEELALH@asn1?5length?5mismatch?$AA@ 6107693c     libeay32:err.obj
 0002:0000e954       ??_C@_0BL@PKJJDDDF@expecting?5an?5asn1?5sequence?$AA@ 61076954     libeay32:err.obj
 0002:0000e970       ??_C@_0BJ@KHBMOGBI@bad?5get?5asn1?5object?5call?$AA@ 61076970     libeay32:err.obj
 0002:0000e98c       ??_C@_0BH@LJENPHMF@bad?5asn1?5object?5header?$AA@ 6107698c     libeay32:err.obj
 0002:0000e9a4       ??_C@_0BC@JPACPGKL@nested?5asn1?5error?$AA@ 610769a4     libeay32:err.obj
 0002:0000e9b8       ??_C@_06JPOPAJEJ@TS?5lib?$AA@ 610769b8     libeay32:err.obj
 0002:0000e9c0       ??_C@_08BIAIHGB@OCSP?5lib?$AA@ 610769c0     libeay32:err.obj
 0002:0000e9cc       ??_C@_0L@NEGIHAGL@ENGINE?5lib?$AA@ 610769cc     libeay32:err.obj
 0002:0000e9d8       ??_C@_07HLMFDJCH@DSO?5lib?$AA@ 610769d8     libeay32:err.obj
 0002:0000e9e0       ??_C@_08IAGEJILJ@RAND?5lib?$AA@ 610769e0     libeay32:err.obj
 0002:0000e9ec       ??_C@_0L@FBHADCPC@PKCS12?5lib?$AA@ 610769ec     libeay32:err.obj
 0002:0000e9f8       ??_C@_0L@OHLIEDB@X509V3?5lib?$AA@ 610769f8     libeay32:err.obj
 0002:0000ea04       ??_C@_09PFAKBDBP@PKCS7?5lib?$AA@ 61076a04     libeay32:err.obj
 0002:0000ea10       ??_C@_07HOAEPDCA@BIO?5lib?$AA@ 61076a10     libeay32:err.obj
 0002:0000ea18       ??_C@_07ILCPHDLL@SSL?5lib?$AA@ 61076a18     libeay32:err.obj
 0002:0000ea20       ??_C@_06FNJAJMKI@EC?5lib?$AA@ 61076a20     libeay32:err.obj
 0002:0000ea28       ??_C@_0L@GEIMIIEL@CRYPTO?5lib?$AA@ 61076a28     libeay32:err.obj
 0002:0000ea34       ??_C@_08GDJNHNLC@CONF?5lib?$AA@ 61076a34     libeay32:err.obj
 0002:0000ea40       ??_C@_08HAFIEMCJ@ASN1?5lib?$AA@ 61076a40     libeay32:err.obj
 0002:0000ea4c       ??_C@_08DGLLDICE@X509?5lib?$AA@ 61076a4c     libeay32:err.obj
 0002:0000ea58       ??_C@_07EBMPFIFH@DSA?5lib?$AA@ 61076a58     libeay32:err.obj
 0002:0000ea60       ??_C@_07MKPCAOAJ@PEM?5lib?$AA@ 61076a60     libeay32:err.obj
 0002:0000ea68       ??_C@_07LHMLCDLI@OBJ?5lib?$AA@ 61076a68     libeay32:err.obj
 0002:0000ea70       ??_C@_07PJHFFEFC@BUF?5lib?$AA@ 61076a70     libeay32:err.obj
 0002:0000ea78       ??_C@_07BHNHKGFA@EVP?5lib?$AA@ 61076a78     libeay32:err.obj
 0002:0000ea80       ??_C@_06JBCAGHNP@DH?5lib?$AA@ 61076a80     libeay32:err.obj
 0002:0000ea88       ??_C@_07PLBLGAPL@RSA?5lib?$AA@ 61076a88     libeay32:err.obj
 0002:0000ea90       ??_C@_06CEKJLBPI@BN?5lib?$AA@ 61076a90     libeay32:err.obj
 0002:0000ea98       ??_C@_0L@NFMIFFDK@system?5lib?$AA@ 61076a98     libeay32:err.obj
 0002:0000eaa4       ??_C@_05FHPOAJDB@fread?$AA@ 61076aa4     libeay32:err.obj
 0002:0000eaac       ??_C@_07OPAOJOOA@opendir?$AA@ 61076aac     libeay32:err.obj
 0002:0000eab4       ??_C@_0L@LNCNEFCG@WSAstartup?$AA@ 61076ab4     libeay32:err.obj
 0002:0000eac0       ??_C@_06MPKMECK@accept?$AA@ 61076ac0     libeay32:err.obj
 0002:0000eac8       ??_C@_06OODDLKLE@listen?$AA@ 61076ac8     libeay32:err.obj
 0002:0000ead0       ??_C@_04NPNJNMMP@bind?$AA@ 61076ad0     libeay32:err.obj
 0002:0000ead8       ??_C@_0M@PBPOCKDG@ioctlsocket?$AA@ 61076ad8     libeay32:err.obj
 0002:0000eae4       ??_C@_06HBELJPBO@socket?$AA@ 61076ae4     libeay32:err.obj
 0002:0000eaec       ??_C@_07KAIBNCHO@connect?$AA@ 61076aec     libeay32:err.obj
 0002:0000eaf4       ??_C@_05FFKPLNPJ@fopen?$AA@ 61076af4     libeay32:err.obj
 0002:0000eafc       ??_C@_0O@PBJMEGGG@HMAC?5routines?$AA@ 61076afc     libeay32:err.obj
 0002:0000eb0c       ??_C@_0N@MKJBFBO@CMS?5routines?$AA@ 61076b0c     libeay32:err.obj
 0002:0000eb1c       ??_C@_0O@MDPFBMCI@FIPS?5routines?$AA@ 61076b1c     libeay32:err.obj
 0002:0000eb2c       ??_C@_0O@LJIADBLP@OCSP?5routines?$AA@ 61076b2c     libeay32:err.obj
 0002:0000eb3c       ??_C@_0BA@MMHCJFKD@engine?5routines?$AA@ 61076b3c     libeay32:err.obj
 0002:0000eb4c       ??_C@_0BE@IMHDPIMO@time?5stamp?5routines?$AA@ 61076b4c     libeay32:err.obj
 0002:0000eb60       ??_C@_0BF@BDHLAIEM@DSO?5support?5routines?$AA@ 61076b60     libeay32:err.obj
 0002:0000eb78       ??_C@_0BI@GMPKPCPG@random?5number?5generator?$AA@ 61076b78     libeay32:err.obj
 0002:0000eb90       ??_C@_0BA@KPFPMFD@PKCS12?5routines?$AA@ 61076b90     libeay32:err.obj
 0002:0000eba0       ??_C@_0BB@LKDEPKLM@X509?5V3?5routines?$AA@ 61076ba0     libeay32:err.obj
 0002:0000ebb4       ??_C@_0P@FBDCKDAN@PKCS7?5routines?$AA@ 61076bb4     libeay32:err.obj
 0002:0000ebc4       ??_C@_0N@HGNFKBOI@BIO?5routines?$AA@ 61076bc4     libeay32:err.obj
 0002:0000ebd4       ??_C@_0N@GAIJLNCL@SSL?5routines?$AA@ 61076bd4     libeay32:err.obj
 0002:0000ebe4       ??_C@_0BI@NNCFPCDI@elliptic?5curve?5routines?$AA@ 61076be4     libeay32:err.obj
 0002:0000ebfc       ??_C@_0BK@GOIAPJCF@common?5libcrypto?5routines?$AA@ 61076bfc     libeay32:err.obj
 0002:0000ec18       ??_C@_0BM@FNIFPKKP@configuration?5file?5routines?$AA@ 61076c18     libeay32:err.obj
 0002:0000ec34       ??_C@_0BH@OKMDKJBH@asn1?5encoding?5routines?$AA@ 61076c34     libeay32:err.obj
 0002:0000ec4c       ??_C@_0BK@MLDIFNOG@x509?5certificate?5routines?$AA@ 61076c4c     libeay32:err.obj
 0002:0000ec68       ??_C@_0N@EPLKEPHE@dsa?5routines?$AA@ 61076c68     libeay32:err.obj
 0002:0000ec78       ??_C@_0N@PPOIEGDJ@PEM?5routines?$AA@ 61076c78     libeay32:err.obj
 0002:0000ec88       ??_C@_0BL@GAJLDLEG@object?5identifier?5routines?$AA@ 61076c88     libeay32:err.obj
 0002:0000eca4       ??_C@_0BH@GHBGFOKA@memory?5buffer?5routines?$AA@ 61076ca4     libeay32:err.obj
 0002:0000ecbc       ??_C@_0BK@KCBHLAIJ@digital?5envelope?5routines?$AA@ 61076cbc     libeay32:err.obj
 0002:0000ecd8       ??_C@_0BI@BELEOFAM@Diffie?9Hellman?5routines?$AA@ 61076cd8     libeay32:err.obj
 0002:0000ecf0       ??_C@_0N@FLFIDGHD@rsa?5routines?$AA@ 61076cf0     libeay32:err.obj
 0002:0000ed00       ??_C@_0BA@BALAMMCD@bignum?5routines?$AA@ 61076d00     libeay32:err.obj
 0002:0000ed10       ??_C@_0P@KJHLNCML@system?5library?$AA@ 61076d10     libeay32:err.obj
 0002:0000ed20       ??_C@_0BA@JLJAKIKL@unknown?5library?$AA@ 61076d20     libeay32:err.obj
 0002:0000ed30       ??_C@_0BD@CKILGKAI@?4?2crypto?2err?2err?4c?$AA@ 61076d30     libeay32:err.obj
 0002:0000ed44       ??_C@_0BE@CGMKPIME@int_err_get?5?$CIerr?4c?$CJ?$AA@ 61076d44     libeay32:err.obj
 0002:0000ed58       ??_C@_0BH@KBGLDIDO@int_thread_get?5?$CIerr?4c?$CJ?$AA@ 61076d58     libeay32:err.obj
 0002:0000ed6f       ??_C@_00CNPNBAHC@?$AA@     61076d6f     libeay32:err.obj
 0002:0000ed70       ??_C@_07ILKEFPGB@dmdName?$AA@ 61076d70     libeay32:obj_dat.obj
 0002:0000ed78       ??_C@_0BE@MNOFELKF@deltaRevocationList?$AA@ 61076d78     libeay32:obj_dat.obj
 0002:0000ed8c       ??_C@_0BE@KGOGIPEN@supportedAlgorithms?$AA@ 61076d8c     libeay32:obj_dat.obj
 0002:0000eda0       ??_C@_0BA@EKKIBBF@houseIdentifier?$AA@ 61076da0     libeay32:obj_dat.obj
 0002:0000edb0       ??_C@_0N@FIGDLDDJ@uniqueMember?$AA@ 61076db0     libeay32:obj_dat.obj
 0002:0000edc0       ??_C@_0BC@IIJOGNNH@distinguishedName?$AA@ 61076dc0     libeay32:obj_dat.obj
 0002:0000edd4       ??_C@_0BE@FKAMNJMM@protocolInformation?$AA@ 61076dd4     libeay32:obj_dat.obj
 0002:0000ede8       ??_C@_0BE@NNAGLFEM@enhancedSearchGuide?$AA@ 61076de8     libeay32:obj_dat.obj
 0002:0000edfc       ??_C@_0BF@GAAPBDAE@crossCertificatePair?$AA@ 61076dfc     libeay32:obj_dat.obj
 0002:0000ee14       ??_C@_0BK@IMFDMOND@certificateRevocationList?$AA@ 61076e14     libeay32:obj_dat.obj
 0002:0000ee30       ??_C@_0BI@EODAEBFG@authorityRevocationList?$AA@ 61076e30     libeay32:obj_dat.obj
 0002:0000ee48       ??_C@_0O@JJCNKCKK@cACertificate?$AA@ 61076e48     libeay32:obj_dat.obj
 0002:0000ee58       ??_C@_0BA@FEECIELF@userCertificate?$AA@ 61076e58     libeay32:obj_dat.obj
 0002:0000ee68       ??_C@_0N@JHMNNHKM@userPassword?$AA@ 61076e68     libeay32:obj_dat.obj
 0002:0000ee78       ??_C@_07JJAENDGN@seeAlso?$AA@ 61076e78     libeay32:obj_dat.obj
 0002:0000ee80       ??_C@_0N@NAEJMDPF@roleOccupant?$AA@ 61076e80     libeay32:obj_dat.obj
 0002:0000ee90       ??_C@_05HEIBENID@owner?$AA@ 61076e90     libeay32:obj_dat.obj
 0002:0000ee98       ??_C@_06HDFDANIG@member?$AA@ 61076e98     libeay32:obj_dat.obj
 0002:0000eea0       ??_C@_0BM@NHJFOGBI@supportedApplicationContext?$AA@ 61076ea0     libeay32:obj_dat.obj
 0002:0000eebc       ??_C@_0BE@KHACCONJ@presentationAddress?$AA@ 61076ebc     libeay32:obj_dat.obj
 0002:0000eed0       ??_C@_0BI@MKMMOKIA@preferredDeliveryMethod?$AA@ 61076ed0     libeay32:obj_dat.obj
 0002:0000eee8       ??_C@_0BF@CMAFNEOO@destinationIndicator?$AA@ 61076ee8     libeay32:obj_dat.obj
 0002:0000ef00       ??_C@_0BC@DLLOJDNE@registeredAddress?$AA@ 61076f00     libeay32:obj_dat.obj
 0002:0000ef14       ??_C@_0BI@OAHCBLEE@internationaliSDNNumber?$AA@ 61076f14     libeay32:obj_dat.obj
 0002:0000ef2c       ??_C@_0M@MOCAHDLJ@x121Address?$AA@ 61076f2c     libeay32:obj_dat.obj
 0002:0000ef38       ??_C@_0BJ@NDMMBDAB@facsimileTelephoneNumber?$AA@ 61076f38     libeay32:obj_dat.obj
 0002:0000ef54       ??_C@_0BK@BBNEJJDC@teletexTerminalIdentifier?$AA@ 61076f54     libeay32:obj_dat.obj
 0002:0000ef70       ??_C@_0M@MMDMBPMM@telexNumber?$AA@ 61076f70     libeay32:obj_dat.obj
 0002:0000ef7c       ??_C@_0BA@NCAGJGBF@telephoneNumber?$AA@ 61076f7c     libeay32:obj_dat.obj
 0002:0000ef8c       ??_C@_0BL@DENBGONK@physicalDeliveryOfficeName?$AA@ 61076f8c     libeay32:obj_dat.obj
 0002:0000efa8       ??_C@_0O@PCCHCGPG@postOfficeBox?$AA@ 61076fa8     libeay32:obj_dat.obj
 0002:0000efb8       ??_C@_0O@KABBPKPG@postalAddress?$AA@ 61076fb8     libeay32:obj_dat.obj
 0002:0000efc8       ??_C@_0BB@GFJJGHBI@businessCategory?$AA@ 61076fc8     libeay32:obj_dat.obj
 0002:0000efdc       ??_C@_0M@MCCFGANF@searchGuide?$AA@ 61076fdc     libeay32:obj_dat.obj
 0002:0000efe8       ??_C@_0BF@DGGAJJCO@Permanent?5Identifier?$AA@ 61076fe8     libeay32:obj_dat.obj
 0002:0000f000       ??_C@_0BK@BMFCOPIC@id?9on?9permanentIdentifier?$AA@ 61077000     libeay32:obj_dat.obj
 0002:0000f01c       ??_C@_0BE@KEJIKEFG@X509v3?5Freshest?5CRL?$AA@ 6107701c     libeay32:obj_dat.obj
 0002:0000f030       ??_C@_0M@PKNKMHEG@freshestCRL?$AA@ 61077030     libeay32:obj_dat.obj
 0002:0000f03c       ??_C@_0BI@FMFOLFMC@Microsoft?5Local?5Key?5set?$AA@ 6107703c     libeay32:obj_dat.obj
 0002:0000f054       ??_C@_0M@LCODBGNO@LocalKeySet?$AA@ 61077054     libeay32:obj_dat.obj
 0002:0000f060       ??_C@_04FOBGICMD@hmac?$AA@ 61077060     libeay32:obj_dat.obj
 0002:0000f068       ??_C@_04JCCMGALL@HMAC?$AA@ 61077068     libeay32:obj_dat.obj
 0002:0000f070       ??_C@_0CJ@NCCJHEBD@GOST?5R?53410?92001?5Parameter?5Set?5C@ 61077070     libeay32:obj_dat.obj
 0002:0000f09c       ??_C@_0BO@LBPHKLOM@id?9GostR3410?92001?9ParamSet?9cc?$AA@ 6107709c     libeay32:obj_dat.obj
 0002:0000f0bc       ??_C@_0DB@BGOOPLFE@GOST?5R?534?411?994?5with?5GOST?5R?534?41@ 610770bc     libeay32:obj_dat.obj
 0002:0000f0f0       ??_C@_0CH@JJNMILDM@id?9GostR3411?994?9with?9GostR3410?92@ 610770f0     libeay32:obj_dat.obj
 0002:0000f118       ??_C@_0CP@ILDIBBAJ@GOST?5R?534?411?994?5with?5GOST?5R?534?41@ 61077118     libeay32:obj_dat.obj
 0002:0000f148       ??_C@_0CF@FCIKJGLH@id?9GostR3411?994?9with?9GostR3410?99@ 61077148     libeay32:obj_dat.obj
 0002:0000f170       ??_C@_0BK@IGCJADLM@GOST?534?410?92001?5Cryptocom?$AA@ 61077170     libeay32:obj_dat.obj
 0002:0000f18c       ??_C@_0L@PKDOCLKG@gost2001cc?$AA@ 6107718c     libeay32:obj_dat.obj
 0002:0000f198       ??_C@_0BI@GJIILMEB@GOST?534?410?994?5Cryptocom?$AA@ 61077198     libeay32:obj_dat.obj
 0002:0000f1b0       ??_C@_08LCDFMIFG@gost94cc?$AA@ 610771b0     libeay32:obj_dat.obj
 0002:0000f1bc       ??_C@_0CB@KNOPDNHN@GOST?528147?989?5Cryptocom?5ParamSet@ 610771bc     libeay32:obj_dat.obj
 0002:0000f1e0       ??_C@_0BD@MEAAKKFJ@id?9Gost28147?989?9cc?$AA@ 610771e0     libeay32:obj_dat.obj
 0002:0000f1f4       ??_C@_0BF@PGMBMCGF@id?9GostR3410?994?9bBis?$AA@ 610771f4     libeay32:obj_dat.obj
 0002:0000f20c       ??_C@_0BC@MKOAJFN@id?9GostR3410?994?9b?$AA@ 6107720c     libeay32:obj_dat.obj
 0002:0000f220       ??_C@_0BF@LBGBLILF@id?9GostR3410?994?9aBis?$AA@ 61077220     libeay32:obj_dat.obj
 0002:0000f238       ??_C@_0BC@CHIDFKJO@id?9GostR3410?994?9a?$AA@ 61077238     libeay32:obj_dat.obj
 0002:0000f24c       ??_C@_0CK@GDLEHLKF@id?9GostR3410?92001?9CryptoPro?9XchB@ 6107724c     libeay32:obj_dat.obj
 0002:0000f278       ??_C@_0CK@PKFGBNKE@id?9GostR3410?92001?9CryptoPro?9XchA@ 61077278     libeay32:obj_dat.obj
 0002:0000f2a4       ??_C@_0CH@DLGDIIGO@id?9GostR3410?92001?9CryptoPro?9C?9Pa@ 610772a4     libeay32:obj_dat.obj
 0002:0000f2cc       ??_C@_0CH@PKONFHKO@id?9GostR3410?92001?9CryptoPro?9B?9Pa@ 610772cc     libeay32:obj_dat.obj
 0002:0000f2f4       ??_C@_0CH@GDAPDBKP@id?9GostR3410?92001?9CryptoPro?9A?9Pa@ 610772f4     libeay32:obj_dat.obj
 0002:0000f31c       ??_C@_0BP@GEEJLPDI@id?9GostR3410?92001?9TestParamSet?$AA@ 6107731c     libeay32:obj_dat.obj
 0002:0000f33c       ??_C@_0CI@DAANNIN@id?9GostR3410?994?9CryptoPro?9XchC?9P@ 6107733c     libeay32:obj_dat.obj
 0002:0000f364       ??_C@_0CI@MCIOACEN@id?9GostR3410?994?9CryptoPro?9XchB?9P@ 61077364     libeay32:obj_dat.obj
 0002:0000f38c       ??_C@_0CI@FLGMGEEM@id?9GostR3410?994?9CryptoPro?9XchA?9P@ 6107738c     libeay32:obj_dat.obj
 0002:0000f3b4       ??_C@_0CF@LMAJFDGB@id?9GostR3410?994?9CryptoPro?9D?9Para@ 610773b4     libeay32:obj_dat.obj
 0002:0000f3dc       ??_C@_0CF@JFDCEGOC@id?9GostR3410?994?9CryptoPro?9C?9Para@ 610773dc     libeay32:obj_dat.obj
 0002:0000f404       ??_C@_0CF@FELMJJCC@id?9GostR3410?994?9CryptoPro?9B?9Para@ 61077404     libeay32:obj_dat.obj
 0002:0000f42c       ??_C@_0CF@MNFOPPCD@id?9GostR3410?994?9CryptoPro?9A?9Para@ 6107742c     libeay32:obj_dat.obj
 0002:0000f454       ??_C@_0BN@NAOAJFAF@id?9GostR3410?994?9TestParamSet?$AA@ 61077454     libeay32:obj_dat.obj
 0002:0000f474       ??_C@_0CJ@IIADIAJH@id?9Gost28147?989?9CryptoPro?9RIC?91?9@ 61077474     libeay32:obj_dat.obj
 0002:0000f4a0       ??_C@_0CN@IIJDEMNM@id?9Gost28147?989?9CryptoPro?9Oscar?9@ 610774a0     libeay32:obj_dat.obj
 0002:0000f4d0       ??_C@_0CN@EJBNJDBM@id?9Gost28147?989?9CryptoPro?9Oscar?9@ 610774d0     libeay32:obj_dat.obj
 0002:0000f500       ??_C@_0CF@IEBLBMOP@id?9Gost28147?989?9CryptoPro?9D?9Para@ 61077500     libeay32:obj_dat.obj
 0002:0000f528       ??_C@_0CF@KNCAAJGM@id?9Gost28147?989?9CryptoPro?9C?9Para@ 61077528     libeay32:obj_dat.obj
 0002:0000f550       ??_C@_0CF@GMKONGKM@id?9Gost28147?989?9CryptoPro?9B?9Para@ 61077550     libeay32:obj_dat.obj
 0002:0000f578       ??_C@_0CF@PFEMLAKN@id?9Gost28147?989?9CryptoPro?9A?9Para@ 61077578     libeay32:obj_dat.obj
 0002:0000f5a0       ??_C@_0BN@GKJFBLMI@id?9Gost28147?989?9TestParamSet?$AA@ 610775a0     libeay32:obj_dat.obj
 0002:0000f5c0       ??_C@_0CC@DOHJLMBI@id?9GostR3411?994?9CryptoProParamSe@ 610775c0     libeay32:obj_dat.obj
 0002:0000f5e4       ??_C@_0BN@DPLCCDOE@id?9GostR3411?994?9TestParamSet?$AA@ 610775e4     libeay32:obj_dat.obj
 0002:0000f604       ??_C@_0CA@BLJAEGEG@id?9Gost28147?989?9None?9KeyMeshing?$AA@ 61077604     libeay32:obj_dat.obj
 0002:0000f624       ??_C@_0CF@MMKONEIK@id?9Gost28147?989?9CryptoPro?9KeyMes@ 61077624     libeay32:obj_dat.obj
 0002:0000f64c       ??_C@_0BD@LGKAOLPL@GOST?5R?534?410?994?5DH?$AA@ 6107764c     libeay32:obj_dat.obj
 0002:0000f660       ??_C@_0BC@CEMDDFNK@id?9GostR3410?994DH?$AA@ 61077660     libeay32:obj_dat.obj
 0002:0000f674       ??_C@_0BF@OKPANPLK@GOST?5R?534?410?92001?5DH?$AA@ 61077674     libeay32:obj_dat.obj
 0002:0000f68c       ??_C@_0BE@OBKEJCJB@id?9GostR3410?92001DH?$AA@ 6107768c     libeay32:obj_dat.obj
 0002:0000f6a0       ??_C@_0BE@FFELJBNB@GOST?5R?534?411?994?5PRF?$AA@ 610776a0     libeay32:obj_dat.obj
 0002:0000f6b4       ??_C@_0BB@LJIINAAP@prf?9gostr3411?994?$AA@ 610776b4     libeay32:obj_dat.obj
 0002:0000f6c8       ??_C@_0BC@BPAGAEJB@GOST?528147?989?5MAC?$AA@ 610776c8     libeay32:obj_dat.obj
 0002:0000f6dc       ??_C@_08JCNEGNFC@gost?9mac?$AA@ 610776dc     libeay32:obj_dat.obj
 0002:0000f6e8       ??_C@_0L@INGOKGPP@gost89?9cnt?$AA@ 610776e8     libeay32:obj_dat.obj
 0002:0000f6f4       ??_C@_0O@POKHNLDL@GOST?528147?989?$AA@ 610776f4     libeay32:obj_dat.obj
 0002:0000f704       ??_C@_06KLPDHLCD@gost89?$AA@ 61077704     libeay32:obj_dat.obj
 0002:0000f70c       ??_C@_0BA@JOCBNIHN@GOST?5R?534?410?994?$AA@ 6107770c     libeay32:obj_dat.obj
 0002:0000f71c       ??_C@_06BPJPGPFJ@gost94?$AA@ 6107771c     libeay32:obj_dat.obj
 0002:0000f724       ??_C@_0BC@IBNIHBI@GOST?5R?534?410?92001?$AA@ 61077724     libeay32:obj_dat.obj
 0002:0000f738       ??_C@_08KMPAMBCP@gost2001?$AA@ 61077738     libeay32:obj_dat.obj
 0002:0000f744       ??_C@_0BD@BHKLGKNG@HMAC?5GOST?534?411?994?$AA@ 61077744     libeay32:obj_dat.obj
 0002:0000f758       ??_C@_0BE@EBBOKDGI@id?9HMACGostR3411?994?$AA@ 61077758     libeay32:obj_dat.obj
 0002:0000f76c       ??_C@_0BA@KDEBPBMN@GOST?5R?534?411?994?$AA@ 6107776c     libeay32:obj_dat.obj
 0002:0000f77c       ??_C@_09MIOJGGFD@md_gost94?$AA@ 6107777c     libeay32:obj_dat.obj
 0002:0000f788       ??_C@_0CF@PAGBHGOC@GOST?5R?534?411?994?5with?5GOST?5R?534?41@ 61077788     libeay32:obj_dat.obj
 0002:0000f7b0       ??_C@_0CC@LCAPGDKC@id?9GostR3411?994?9with?9GostR3410?99@ 610777b0     libeay32:obj_dat.obj
 0002:0000f7d4       ??_C@_0CH@MPKKPBGC@GOST?5R?534?411?994?5with?5GOST?5R?534?41@ 610777d4     libeay32:obj_dat.obj
 0002:0000f7fc       ??_C@_0CE@FCAOBIOC@id?9GostR3411?994?9with?9GostR3410?92@ 610777fc     libeay32:obj_dat.obj
 0002:0000f820       ??_C@_09JGBNPHGI@cryptocom?$AA@ 61077820     libeay32:obj_dat.obj
 0002:0000f82c       ??_C@_09PCHJFNLI@cryptopro?$AA@ 6107782c     libeay32:obj_dat.obj
 0002:0000f838       ??_C@_09DEGKDAEL@whirlpool?$AA@ 61077838     libeay32:obj_dat.obj
 0002:0000f844       ??_C@_0BA@FMFCOCGA@dsa_with_SHA256?$AA@ 61077844     libeay32:obj_dat.obj
 0002:0000f854       ??_C@_0BA@GLCLJGGH@dsa_with_SHA224?$AA@ 61077854     libeay32:obj_dat.obj
 0002:0000f864       ??_C@_0P@FLKKCAHA@hmacWithSHA512?$AA@ 61077864     libeay32:obj_dat.obj
 0002:0000f874       ??_C@_0P@CHEKODKF@hmacWithSHA384?$AA@ 61077874     libeay32:obj_dat.obj
 0002:0000f884       ??_C@_0P@KFBIHFBB@hmacWithSHA256?$AA@ 61077884     libeay32:obj_dat.obj
 0002:0000f894       ??_C@_0P@JCGBABBG@hmacWithSHA224?$AA@ 61077894     libeay32:obj_dat.obj
 0002:0000f8a4       ??_C@_0M@KOBPMNIO@hmacWithMD5?$AA@ 610778a4     libeay32:obj_dat.obj
 0002:0000f8b0       ??_C@_0BC@DONDMJAG@ecdsa?9with?9SHA512?$AA@ 610778b0     libeay32:obj_dat.obj
 0002:0000f8c4       ??_C@_0BC@ECDDAKND@ecdsa?9with?9SHA384?$AA@ 610778c4     libeay32:obj_dat.obj
 0002:0000f8d8       ??_C@_0BC@MAGBJMGH@ecdsa?9with?9SHA256?$AA@ 610778d8     libeay32:obj_dat.obj
 0002:0000f8ec       ??_C@_0BC@PHBIOIGA@ecdsa?9with?9SHA224?$AA@ 610778ec     libeay32:obj_dat.obj
 0002:0000f900       ??_C@_0BF@INFCLNHO@ecdsa?9with?9Specified?$AA@ 61077900     libeay32:obj_dat.obj
 0002:0000f918       ??_C@_0BH@GCJALNKM@ecdsa?9with?9Recommended?$AA@ 61077918     libeay32:obj_dat.obj
 0002:0000f930       ??_C@_0P@KDMMBOEP@id?9aes256?9wrap?$AA@ 61077930     libeay32:obj_dat.obj
 0002:0000f940       ??_C@_0P@DJKBBDNG@id?9aes192?9wrap?$AA@ 61077940     libeay32:obj_dat.obj
 0002:0000f950       ??_C@_0P@MALLFAMO@id?9aes128?9wrap?$AA@ 61077950     libeay32:obj_dat.obj
 0002:0000f960       ??_C@_0BI@FNBGJEPL@id?9ct?9asciiTextWithCRLF?$AA@ 61077960     libeay32:obj_dat.obj
 0002:0000f978       ??_C@_0BL@HEJKLKLL@id?9smime?9ct?9compressedData?$AA@ 61077978     libeay32:obj_dat.obj
 0002:0000f994       ??_C@_0O@LBCGFGCI@CA?5Repository?$AA@ 61077994     libeay32:obj_dat.obj
 0002:0000f9a4       ??_C@_0N@CKNFLOGG@caRepository?$AA@ 610779a4     libeay32:obj_dat.obj
 0002:0000f9b4       ??_C@_0BD@MGCOMIO@id?9it?9suppLangTags?$AA@ 610779b4     libeay32:obj_dat.obj
 0002:0000f9c8       ??_C@_0BJ@CDGIGDFG@Diffie?9Hellman?5based?5MAC?$AA@ 610779c8     libeay32:obj_dat.obj
 0002:0000f9e4       ??_C@_0O@MEHCKGFD@id?9DHBasedMac?$AA@ 610779e4     libeay32:obj_dat.obj
 0002:0000f9f4       ??_C@_0BD@FANJCJAP@password?5based?5MAC?$AA@ 610779f4     libeay32:obj_dat.obj
 0002:0000fa08       ??_C@_0BE@HCNFOMHA@id?9PasswordBasedMAC?$AA@ 61077a08     libeay32:obj_dat.obj
 0002:0000fa1c       ??_C@_09KBOMLGBN@hmac?9sha1?$AA@ 61077a1c     libeay32:obj_dat.obj
 0002:0000fa28       ??_C@_09DDFKKHO@HMAC?9SHA1?$AA@ 61077a28     libeay32:obj_dat.obj
 0002:0000fa34       ??_C@_08LPACCAD@hmac?9md5?$AA@ 61077a34     libeay32:obj_dat.obj
 0002:0000fa40       ??_C@_08CABJBHIC@HMAC?9MD5?$AA@ 61077a40     libeay32:obj_dat.obj
 0002:0000fa4c       ??_C@_08JGLJJHP@seed?9cfb?$AA@ 61077a4c     libeay32:obj_dat.obj
 0002:0000fa58       ??_C@_08LHAGIIFM@SEED?9CFB?$AA@ 61077a58     libeay32:obj_dat.obj
 0002:0000fa64       ??_C@_08EDLNCGMH@seed?9ofb?$AA@ 61077a64     libeay32:obj_dat.obj
 0002:0000fa70       ??_C@_08PNNADHOE@SEED?9OFB?$AA@ 61077a70     libeay32:obj_dat.obj
 0002:0000fa7c       ??_C@_08BHHJAAOC@seed?9cbc?$AA@ 61077a7c     libeay32:obj_dat.obj
 0002:0000fa88       ??_C@_08KJBEBBMB@SEED?9CBC?$AA@ 61077a88     libeay32:obj_dat.obj
 0002:0000fa94       ??_C@_08CKMLAEEI@seed?9ecb?$AA@ 61077a94     libeay32:obj_dat.obj
 0002:0000faa0       ??_C@_08JEKGBFGL@SEED?9ECB?$AA@ 61077aa0     libeay32:obj_dat.obj
 0002:0000faac       ??_C@_04LLEAHKNI@kisa?$AA@ 61077aac     libeay32:obj_dat.obj
 0002:0000fab4       ??_C@_04HHHKJIKA@KISA?$AA@ 61077ab4     libeay32:obj_dat.obj
 0002:0000fabc       ??_C@_0BK@EMNEMCDI@X509v3?5Certificate?5Issuer?$AA@ 61077abc     libeay32:obj_dat.obj
 0002:0000fad8       ??_C@_0BC@NAJGKAHO@certificateIssuer?$AA@ 61077ad8     libeay32:obj_dat.obj
 0002:0000faec       ??_C@_0CC@MMIACGNM@X509v3?5Issuing?5Distrubution?5Poin@ 61077aec     libeay32:obj_dat.obj
 0002:0000fb10       ??_C@_0BJ@OAOPOBMH@issuingDistributionPoint?$AA@ 61077b10     libeay32:obj_dat.obj
 0002:0000fb2c       ??_C@_0CE@OGGDDHCK@X509v3?5Subject?5Directory?5Attribu@ 61077b2c     libeay32:obj_dat.obj
 0002:0000fb50       ??_C@_0BL@GAJEKNCJ@subjectDirectoryAttributes?$AA@ 61077b50     libeay32:obj_dat.obj
 0002:0000fb6c       ??_C@_0BB@EGAOKAEM@camellia?9256?9ofb?$AA@ 61077b6c     libeay32:obj_dat.obj
 0002:0000fb80       ??_C@_0BB@FFEGHOPL@CAMELLIA?9256?9OFB?$AA@ 61077b80     libeay32:obj_dat.obj
 0002:0000fb94       ??_C@_0BB@JELAIPMN@camellia?9192?9ofb?$AA@ 61077b94     libeay32:obj_dat.obj
 0002:0000fba8       ??_C@_0BB@IHPIFBHK@CAMELLIA?9192?9OFB?$AA@ 61077ba8     libeay32:obj_dat.obj
 0002:0000fbbc       ??_C@_0BB@DHCMPIFB@camellia?9128?9ofb?$AA@ 61077bbc     libeay32:obj_dat.obj
 0002:0000fbd0       ??_C@_0BB@CEGECGOG@CAMELLIA?9128?9OFB?$AA@ 61077bd0     libeay32:obj_dat.obj
 0002:0000fbe4       ??_C@_0BC@KNEDFCOB@camellia?9256?9cfb8?$AA@ 61077be4     libeay32:obj_dat.obj
 0002:0000fbf8       ??_C@_0BC@PIFFDMBA@CAMELLIA?9256?9CFB8?$AA@ 61077bf8     libeay32:obj_dat.obj
 0002:0000fc0c       ??_C@_0BC@DHCOFPHI@camellia?9192?9cfb8?$AA@ 61077c0c     libeay32:obj_dat.obj
 0002:0000fc20       ??_C@_0BC@GCDIDBIJ@CAMELLIA?9192?9CFB8?$AA@ 61077c20     libeay32:obj_dat.obj
 0002:0000fc34       ??_C@_0BC@MODEBMGA@camellia?9128?9cfb8?$AA@ 61077c34     libeay32:obj_dat.obj
 0002:0000fc48       ??_C@_0BC@JLCCHCJB@CAMELLIA?9128?9CFB8?$AA@ 61077c48     libeay32:obj_dat.obj
 0002:0000fc5c       ??_C@_0BC@HMIBOJKI@camellia?9256?9cfb1?$AA@ 61077c5c     libeay32:obj_dat.obj
 0002:0000fc70       ??_C@_0BC@CJJHIHFJ@CAMELLIA?9256?9CFB1?$AA@ 61077c70     libeay32:obj_dat.obj
 0002:0000fc84       ??_C@_0BC@OGOMOEDB@camellia?9192?9cfb1?$AA@ 61077c84     libeay32:obj_dat.obj
 0002:0000fc98       ??_C@_0BC@LDPKIKMA@CAMELLIA?9192?9CFB1?$AA@ 61077c98     libeay32:obj_dat.obj
 0002:0000fcac       ??_C@_0BC@BPPGKHCJ@camellia?9128?9cfb1?$AA@ 61077cac     libeay32:obj_dat.obj
 0002:0000fcc0       ??_C@_0BC@EKOAMJNI@CAMELLIA?9128?9CFB1?$AA@ 61077cc0     libeay32:obj_dat.obj
 0002:0000fcd4       ??_C@_0BB@MNIBPPE@camellia?9256?9cfb?$AA@ 61077cd4     libeay32:obj_dat.obj
 0002:0000fce8       ??_C@_0BB@BPJAMBED@CAMELLIA?9256?9CFB?$AA@ 61077ce8     libeay32:obj_dat.obj
 0002:0000fcfc       ??_C@_0BB@NOGGDAHF@camellia?9192?9cfb?$AA@ 61077cfc     libeay32:obj_dat.obj
 0002:0000fd10       ??_C@_0BB@MNCOOOMC@CAMELLIA?9192?9CFB?$AA@ 61077d10     libeay32:obj_dat.obj
 0002:0000fd24       ??_C@_0BB@HNPKEHOJ@camellia?9128?9cfb?$AA@ 61077d24     libeay32:obj_dat.obj
 0002:0000fd38       ??_C@_0BB@GOLCJJFO@CAMELLIA?9128?9CFB?$AA@ 61077d38     libeay32:obj_dat.obj
 0002:0000fd4c       ??_C@_0BB@CPHIICMD@camellia?9256?9ecb?$AA@ 61077d4c     libeay32:obj_dat.obj
 0002:0000fd60       ??_C@_0BB@DMDAFMHE@CAMELLIA?9256?9ECB?$AA@ 61077d60     libeay32:obj_dat.obj
 0002:0000fd74       ??_C@_0BB@PNMGKNEC@camellia?9192?9ecb?$AA@ 61077d74     libeay32:obj_dat.obj
 0002:0000fd88       ??_C@_0BB@OOIOHDPF@CAMELLIA?9192?9ECB?$AA@ 61077d88     libeay32:obj_dat.obj
 0002:0000fd9c       ??_C@_0BB@FOFKNKNO@camellia?9128?9ecb?$AA@ 61077d9c     libeay32:obj_dat.obj
 0002:0000fdb0       ??_C@_0BB@ENBCAEGJ@CAMELLIA?9128?9ECB?$AA@ 61077db0     libeay32:obj_dat.obj
 0002:0000fdc4       ??_C@_0BB@BCMKIGGJ@camellia?9256?9cbc?$AA@ 61077dc4     libeay32:obj_dat.obj
 0002:0000fdd8       ??_C@_0BB@BICFINO@CAMELLIA?9256?9CBC?$AA@ 61077dd8     libeay32:obj_dat.obj
 0002:0000fdec       ??_C@_0BB@MAHEKJOI@camellia?9192?9cbc?$AA@ 61077dec     libeay32:obj_dat.obj
 0002:0000fe00       ??_C@_0BB@NDDMHHFP@CAMELLIA?9192?9CBC?$AA@ 61077e00     libeay32:obj_dat.obj
 0002:0000fe14       ??_C@_0BB@GDOINOHE@camellia?9128?9cbc?$AA@ 61077e14     libeay32:obj_dat.obj
 0002:0000fe28       ??_C@_0BB@HAKAAAMD@CAMELLIA?9128?9CBC?$AA@ 61077e28     libeay32:obj_dat.obj
 0002:0000fe3c       ??_C@_06DEKODPNG@ipsec4?$AA@ 61077e3c     libeay32:obj_dat.obj
 0002:0000fe44       ??_C@_0O@FENFAHJA@Oakley?9EC2N?94?$AA@ 61077e44     libeay32:obj_dat.obj
 0002:0000fe54       ??_C@_06HLOPKJBB@ipsec3?$AA@ 61077e54     libeay32:obj_dat.obj
 0002:0000fe5c       ??_C@_0O@BLJEJBFH@Oakley?9EC2N?93?$AA@ 61077e5c     libeay32:obj_dat.obj
 0002:0000fe6c       ??_C@_0BK@FPAAFIAO@X509v3?5Inhibit?5Any?5Policy?$AA@ 61077e6c     libeay32:obj_dat.obj
 0002:0000fe88       ??_C@_0BB@CFCCDKGF@inhibitAnyPolicy?$AA@ 61077e88     libeay32:obj_dat.obj
 0002:0000fe9c       ??_C@_0BH@NJBPACCN@X509v3?5Policy?5Mappings?$AA@ 61077e9c     libeay32:obj_dat.obj
 0002:0000feb4       ??_C@_0P@MEGGINDP@policyMappings?$AA@ 61077eb4     libeay32:obj_dat.obj
 0002:0000fec4       ??_C@_0BC@CEEMIAHF@X509v3?5Any?5Policy?$AA@ 61077ec4     libeay32:obj_dat.obj
 0002:0000fed8       ??_C@_09HBBJOJHB@anyPolicy?$AA@ 61077ed8     libeay32:obj_dat.obj
 0002:0000fee4       ??_C@_0BI@MNOLKEAO@wap?9wsg?9idm?9ecid?9wtls12?$AA@ 61077ee4     libeay32:obj_dat.obj
 0002:0000fefc       ??_C@_0BI@OGMGPHMN@wap?9wsg?9idm?9ecid?9wtls11?$AA@ 61077efc     libeay32:obj_dat.obj
 0002:0000ff14       ??_C@_0BI@PPNNMGIM@wap?9wsg?9idm?9ecid?9wtls10?$AA@ 61077f14     libeay32:obj_dat.obj
 0002:0000ff2c       ??_C@_0BH@DMKMEGHN@wap?9wsg?9idm?9ecid?9wtls9?$AA@ 61077f2c     libeay32:obj_dat.obj
 0002:0000ff44       ??_C@_0BH@CFLHHHDM@wap?9wsg?9idm?9ecid?9wtls8?$AA@ 61077f44     libeay32:obj_dat.obj
 0002:0000ff5c       ??_C@_0BH@KCCPGLPD@wap?9wsg?9idm?9ecid?9wtls7?$AA@ 61077f5c     libeay32:obj_dat.obj
 0002:0000ff74       ??_C@_0BH@LLDEFKLC@wap?9wsg?9idm?9ecid?9wtls6?$AA@ 61077f74     libeay32:obj_dat.obj
 0002:0000ff8c       ??_C@_0BH@JABJAJHB@wap?9wsg?9idm?9ecid?9wtls5?$AA@ 61077f8c     libeay32:obj_dat.obj
 0002:0000ffa4       ??_C@_0BH@IJACDIDA@wap?9wsg?9idm?9ecid?9wtls4?$AA@ 61077fa4     libeay32:obj_dat.obj
 0002:0000ffbc       ??_C@_0BH@MGEDKOPH@wap?9wsg?9idm?9ecid?9wtls3?$AA@ 61077fbc     libeay32:obj_dat.obj
 0002:0000ffd4       ??_C@_0BH@PEHFMMHF@wap?9wsg?9idm?9ecid?9wtls1?$AA@ 61077fd4     libeay32:obj_dat.obj
 0002:0000ffec       ??_C@_09MPLFOIFJ@sect571r1?$AA@ 61077fec     libeay32:obj_dat.obj
 0002:0000fff8       ??_C@_09NMECHAKG@sect571k1?$AA@ 61077ff8     libeay32:obj_dat.obj
 0002:00010004       ??_C@_09HDHNMPAD@sect409r1?$AA@ 61078004     libeay32:obj_dat.obj
 0002:00010010       ??_C@_09GAIKFHPM@sect409k1?$AA@ 61078010     libeay32:obj_dat.obj
 0002:0001001c       ??_C@_09PKOJIHLL@sect283r1?$AA@ 6107801c     libeay32:obj_dat.obj
 0002:00010028       ??_C@_09OJBOBPEE@sect283k1?$AA@ 61078028     libeay32:obj_dat.obj
 0002:00010034       ??_C@_09PBHDMODB@sect239k1?$AA@ 61078034     libeay32:obj_dat.obj
 0002:00010040       ??_C@_09INDJLGKK@sect233r1?$AA@ 61078040     libeay32:obj_dat.obj
 0002:0001004c       ??_C@_09JOMOCOFF@sect233k1?$AA@ 6107804c     libeay32:obj_dat.obj
 0002:00010058       ??_C@_09GKDAIPGG@sect193r2?$AA@ 61078058     libeay32:obj_dat.obj
 0002:00010064       ??_C@_09EBBNNMKF@sect193r1?$AA@ 61078064     libeay32:obj_dat.obj
 0002:00010070       ??_C@_09OIGABILH@sect163r2?$AA@ 61078070     libeay32:obj_dat.obj
 0002:0001007c       ??_C@_09MDENELHE@sect163r1?$AA@ 6107807c     libeay32:obj_dat.obj
 0002:00010088       ??_C@_09NALKNDIL@sect163k1?$AA@ 61078088     libeay32:obj_dat.obj
 0002:00010094       ??_C@_09IKIJFPEM@sect131r2?$AA@ 61078094     libeay32:obj_dat.obj
 0002:000100a0       ??_C@_09KBKEAMIP@sect131r1?$AA@ 610780a0     libeay32:obj_dat.obj
 0002:000100ac       ??_C@_09FKEAMEKH@sect113r2?$AA@ 610780ac     libeay32:obj_dat.obj
 0002:000100b8       ??_C@_09HBGNJHGE@sect113r1?$AA@ 610780b8     libeay32:obj_dat.obj
 0002:000100c4       ??_C@_09PDBKEDDK@secp521r1?$AA@ 610780c4     libeay32:obj_dat.obj
 0002:000100d0       ??_C@_09FICNEILE@secp384r1?$AA@ 610780d0     libeay32:obj_dat.obj
 0002:000100dc       ??_C@_09NCBPAPNE@secp256k1?$AA@ 610780dc     libeay32:obj_dat.obj
 0002:000100e8       ??_C@_09NJMBIDLA@secp224r1?$AA@ 610780e8     libeay32:obj_dat.obj
 0002:000100f4       ??_C@_09MKDGBLEP@secp224k1?$AA@ 610780f4     libeay32:obj_dat.obj
 0002:00010100       ??_C@_09BOBJAHCM@secp192k1?$AA@ 61078100     libeay32:obj_dat.obj
 0002:0001010c       ??_C@_09OJKJDEK@secp160r2?$AA@ 6107810c     libeay32:obj_dat.obj
 0002:00010118       ??_C@_09CFLHMAIJ@secp160r1?$AA@ 61078118     libeay32:obj_dat.obj
 0002:00010124       ??_C@_09DGEAFIHG@secp160k1?$AA@ 61078124     libeay32:obj_dat.obj
 0002:00010130       ??_C@_09DOKOBNGF@secp128r2?$AA@ 61078130     libeay32:obj_dat.obj
 0002:0001013c       ??_C@_09BFIDEOKG@secp128r1?$AA@ 6107813c     libeay32:obj_dat.obj
 0002:00010148       ??_C@_09BGLDIHNB@secp112r2?$AA@ 61078148     libeay32:obj_dat.obj
 0002:00010154       ??_C@_09DNJONEBC@secp112r1?$AA@ 61078154     libeay32:obj_dat.obj
 0002:00010160       ??_C@_0L@OFJKDCBG@c2tnb431r1?$AA@ 61078160     libeay32:obj_dat.obj
 0002:0001016c       ??_C@_0L@BGFAFBLD@c2pnb368w1?$AA@ 6107816c     libeay32:obj_dat.obj
 0002:00010178       ??_C@_0L@LFGCHHDN@c2tnb359v1?$AA@ 61078178     libeay32:obj_dat.obj
 0002:00010184       ??_C@_0L@NDMGBLKL@c2pnb304w1?$AA@ 61078184     libeay32:obj_dat.obj
 0002:00010190       ??_C@_0L@IPNBELMC@c2pnb272w1?$AA@ 61078190     libeay32:obj_dat.obj
 0002:0001019c       ??_C@_0L@LLIHEIJA@c2onb239v5?$AA@ 6107819c     libeay32:obj_dat.obj
 0002:000101a8       ??_C@_0L@KCJMHJNB@c2onb239v4?$AA@ 610781a8     libeay32:obj_dat.obj
 0002:000101b4       ??_C@_0L@MDEIDDLK@c2tnb239v3?$AA@ 610781b4     libeay32:obj_dat.obj
 0002:000101c0       ??_C@_0L@NKFDACPL@c2tnb239v2?$AA@ 610781c0     libeay32:obj_dat.obj
 0002:000101cc       ??_C@_0L@PBHOFBDI@c2tnb239v1?$AA@ 610781cc     libeay32:obj_dat.obj
 0002:000101d8       ??_C@_0L@FCEMHHLG@c2pnb208w1?$AA@ 610781d8     libeay32:obj_dat.obj
 0002:000101e4       ??_C@_0L@LCBHAKHA@c2onb191v5?$AA@ 610781e4     libeay32:obj_dat.obj
 0002:000101f0       ??_C@_0L@KLAMDLDB@c2onb191v4?$AA@ 610781f0     libeay32:obj_dat.obj
 0002:000101fc       ??_C@_0L@MKNIHBFK@c2tnb191v3?$AA@ 610781fc     libeay32:obj_dat.obj
 0002:00010208       ??_C@_0L@NDMDEABL@c2tnb191v2?$AA@ 61078208     libeay32:obj_dat.obj
 0002:00010214       ??_C@_0L@PIOOBDNI@c2tnb191v1?$AA@ 61078214     libeay32:obj_dat.obj
 0002:00010220       ??_C@_0L@IHOFMEAM@c2pnb176v1?$AA@ 61078220     libeay32:obj_dat.obj
 0002:0001022c       ??_C@_0L@LPGNHPAM@c2pnb163v3?$AA@ 6107822c     libeay32:obj_dat.obj
 0002:00010238       ??_C@_0L@KGHGEOEN@c2pnb163v2?$AA@ 61078238     libeay32:obj_dat.obj
 0002:00010244       ??_C@_0L@INFLBNIO@c2pnb163v1?$AA@ 61078244     libeay32:obj_dat.obj
 0002:00010250       ??_C@_07GLJEBFP@ppBasis?$AA@ 61078250     libeay32:obj_dat.obj
 0002:00010258       ??_C@_07ICPDEPKF@tpBasis?$AA@ 61078258     libeay32:obj_dat.obj
 0002:00010260       ??_C@_07JEMDIFEL@onBasis?$AA@ 61078260     libeay32:obj_dat.obj
 0002:00010268       ??_C@_0BM@PPOCDOAJ@id?9characteristic?9two?9basis?$AA@ 61078268     libeay32:obj_dat.obj
 0002:00010284       ??_C@_07KJBJKKHG@wap?9wsg?$AA@ 61078284     libeay32:obj_dat.obj
 0002:0001028c       ??_C@_03EOHJGACH@wap?$AA@  6107828c     libeay32:obj_dat.obj
 0002:00010290       ??_C@_0N@GOPBJFID@certicom?9arc?$AA@ 61078290     libeay32:obj_dat.obj
 0002:000102a0       ??_C@_0BI@NDBFOMIA@identified?9organization?$AA@ 610782a0     libeay32:obj_dat.obj
 0002:000102b8       ??_C@_06DJABMLNO@sha224?$AA@ 610782b8     libeay32:obj_dat.obj
 0002:000102c0       ??_C@_06DANBNIHA@SHA224?$AA@ 610782c0     libeay32:obj_dat.obj
 0002:000102c8       ??_C@_06PAMKOKLI@sha512?$AA@ 610782c8     libeay32:obj_dat.obj
 0002:000102d0       ??_C@_06PJBKPJBG@SHA512?$AA@ 610782d0     libeay32:obj_dat.obj
 0002:000102d8       ??_C@_06IMCKCJGN@sha384?$AA@ 610782d8     libeay32:obj_dat.obj
 0002:000102e0       ??_C@_06IFPKDKMD@SHA384?$AA@ 610782e0     libeay32:obj_dat.obj
 0002:000102e8       ??_C@_06OHILPNJ@sha256?$AA@ 610782e8     libeay32:obj_dat.obj
 0002:000102f0       ??_C@_06HKIKMHH@SHA256?$AA@ 610782f0     libeay32:obj_dat.obj
 0002:000102f8       ??_C@_0BI@HODNLFBE@sha224WithRSAEncryption?$AA@ 610782f8     libeay32:obj_dat.obj
 0002:00010310       ??_C@_0L@BPFBIPIP@RSA?9SHA224?$AA@ 61078310     libeay32:obj_dat.obj
 0002:0001031c       ??_C@_0BI@CFKPHFJF@sha512WithRSAEncryption?$AA@ 6107831c     libeay32:obj_dat.obj
 0002:00010334       ??_C@_0L@NGJKKOOJ@RSA?9SHA512?$AA@ 61078334     libeay32:obj_dat.obj
 0002:00010340       ??_C@_0BI@LGPCJGLE@sha384WithRSAEncryption?$AA@ 61078340     libeay32:obj_dat.obj
 0002:00010358       ??_C@_0L@KKHKGNDM@RSA?9SHA384?$AA@ 61078358     libeay32:obj_dat.obj
 0002:00010364       ??_C@_0BI@OLMNBFHG@sha256WithRSAEncryption?$AA@ 61078364     libeay32:obj_dat.obj
 0002:0001037c       ??_C@_0L@CICIPLII@RSA?9SHA256?$AA@ 6107837c     libeay32:obj_dat.obj
 0002:00010388       ??_C@_0M@MLMKHJLC@Independent?$AA@ 61078388     libeay32:obj_dat.obj
 0002:00010394       ??_C@_0BD@JMNHHICP@id?9ppl?9independent?$AA@ 61078394     libeay32:obj_dat.obj
 0002:000103a8       ??_C@_0BI@MLJLAGL@X509v3?5Name?5Constraints?$AA@ 610783a8     libeay32:obj_dat.obj
 0002:000103c0       ??_C@_0BA@NDBMPGLN@nameConstraints?$AA@ 610783c0     libeay32:obj_dat.obj
 0002:000103d0       ??_C@_0M@FFLAPACB@Inherit?5all?$AA@ 610783d0     libeay32:obj_dat.obj
 0002:000103dc       ??_C@_0BC@PCEJIIF@id?9ppl?9inheritAll?$AA@ 610783dc     libeay32:obj_dat.obj
 0002:000103f0       ??_C@_0N@BEBFEGLC@Any?5language?$AA@ 610783f0     libeay32:obj_dat.obj
 0002:00010400       ??_C@_0BD@HNCKDFAM@id?9ppl?9anyLanguage?$AA@ 61078400     libeay32:obj_dat.obj
 0002:00010414       ??_C@_0BO@CCHFGBDO@Proxy?5Certificate?5Information?$AA@ 61078414     libeay32:obj_dat.obj
 0002:00010434       ??_C@_0O@LOINHHBF@proxyCertInfo?$AA@ 61078434     libeay32:obj_dat.obj
 0002:00010444       ??_C@_06CAAPGDCJ@id?9ppl?$AA@ 61078444     libeay32:obj_dat.obj
 0002:0001044c       ??_C@_0L@NCDHJCMF@postalCode?$AA@ 6107844c     libeay32:obj_dat.obj
 0002:00010458       ??_C@_0O@GFJANBCD@streetAddress?$AA@ 61078458     libeay32:obj_dat.obj
 0002:00010468       ??_C@_06KFAFKEEH@street?$AA@ 61078468     libeay32:obj_dat.obj
 0002:00010470       ??_C@_0O@KGNFGAAA@des?9ede3?9cfb8?$AA@ 61078470     libeay32:obj_dat.obj
 0002:00010480       ??_C@_0O@KNJKKNCK@DES?9EDE3?9CFB8?$AA@ 61078480     libeay32:obj_dat.obj
 0002:00010490       ??_C@_0O@HHBHNLEJ@des?9ede3?9cfb1?$AA@ 61078490     libeay32:obj_dat.obj
 0002:000104a0       ??_C@_0O@HMFIBGGD@DES?9EDE3?9CFB1?$AA@ 610784a0     libeay32:obj_dat.obj
 0002:000104b0       ??_C@_08HKNDEPIP@des?9cfb8?$AA@ 610784b0     libeay32:obj_dat.obj
 0002:000104bc       ??_C@_08JHFHFADM@DES?9CFB8?$AA@ 610784bc     libeay32:obj_dat.obj
 0002:000104c8       ??_C@_08KLBBPEMG@des?9cfb1?$AA@ 610784c8     libeay32:obj_dat.obj
 0002:000104d4       ??_C@_08EGJFOLHF@DES?9CFB1?$AA@ 610784d4     libeay32:obj_dat.obj
 0002:000104e0       ??_C@_0N@GPAECIBG@aes?9256?9cfb8?$AA@ 610784e0     libeay32:obj_dat.obj
 0002:000104f0       ??_C@_0N@BLGJPBBG@AES?9256?9CFB8?$AA@ 610784f0     libeay32:obj_dat.obj
 0002:00010500       ??_C@_0N@PFGJCFIP@aes?9192?9cfb8?$AA@ 61078500     libeay32:obj_dat.obj
 0002:00010510       ??_C@_0N@IBAEPMIP@AES?9192?9CFB8?$AA@ 61078510     libeay32:obj_dat.obj
 0002:00010520       ??_C@_0N@MHDGGJH@aes?9128?9cfb8?$AA@ 61078520     libeay32:obj_dat.obj
 0002:00010530       ??_C@_0N@HIBOLPJH@AES?9128?9CFB8?$AA@ 61078530     libeay32:obj_dat.obj
 0002:00010540       ??_C@_0N@LOMGJDFP@aes?9256?9cfb1?$AA@ 61078540     libeay32:obj_dat.obj
 0002:00010550       ??_C@_0N@MKKLEKFP@AES?9256?9CFB1?$AA@ 61078550     libeay32:obj_dat.obj
 0002:00010560       ??_C@_0N@CEKLJOMG@aes?9192?9cfb1?$AA@ 61078560     libeay32:obj_dat.obj
 0002:00010570       ??_C@_0N@FAMGEHMG@AES?9192?9CFB1?$AA@ 61078570     libeay32:obj_dat.obj
 0002:00010580       ??_C@_0N@NNLBNNNO@aes?9128?9cfb1?$AA@ 61078580     libeay32:obj_dat.obj
 0002:00010590       ??_C@_0N@KJNMAENO@AES?9128?9CFB1?$AA@ 61078590     libeay32:obj_dat.obj
 0002:000105a0       ??_C@_0CD@POJHJMFG@Microsoft?5Universal?5Principal?5Na@ 610785a0     libeay32:obj_dat.obj
 0002:000105c4       ??_C@_05LKLAGLGM@msUPN?$AA@ 610785c4     libeay32:obj_dat.obj
 0002:000105cc       ??_C@_0BJ@BHLLFCI@Microsoft?5Smartcardlogin?$AA@ 610785cc     libeay32:obj_dat.obj
 0002:000105e8       ??_C@_0BB@MJPMDGHF@msSmartcardLogin?$AA@ 610785e8     libeay32:obj_dat.obj
 0002:000105fc       ??_C@_0BM@PGMBEIHL@International?5Organizations?$AA@ 610785fc     libeay32:obj_dat.obj
 0002:00010618       ??_C@_0BM@PBBEOBAP@international?9organizations?$AA@ 61078618     libeay32:obj_dat.obj
 0002:00010634       ??_C@_0BA@DDCJMADA@joint?9iso?9itu?9t?$AA@ 61078634     libeay32:obj_dat.obj
 0002:00010644       ??_C@_0BA@NPJCPIN@JOINT?9ISO?9ITU?9T?$AA@ 61078644     libeay32:obj_dat.obj
 0002:00010654       ??_C@_05EKLDHPCO@itu?9t?$AA@ 61078654     libeay32:obj_dat.obj
 0002:0001065c       ??_C@_05LJGINOIA@ITU?9T?$AA@ 6107865c     libeay32:obj_dat.obj
 0002:00010664       ??_C@_0BF@EIIDBKMM@rsaOAEPEncryptionSET?$AA@ 61078664     libeay32:obj_dat.obj
 0002:0001067c       ??_C@_08PPLOLAOD@des?9cdmf?$AA@ 6107867c     libeay32:obj_dat.obj
 0002:00010688       ??_C@_08IHLOILPC@DES?9CDMF?$AA@ 61078688     libeay32:obj_dat.obj
 0002:00010694       ??_C@_0BA@JHOGHBHC@set?9brand?9Novus?$AA@ 61078694     libeay32:obj_dat.obj
 0002:000106a4       ??_C@_0BF@EKCBHCKG@set?9brand?9MasterCard?$AA@ 610786a4     libeay32:obj_dat.obj
 0002:000106bc       ??_C@_0P@KADKEMKM@set?9brand?9Visa?$AA@ 610786bc     libeay32:obj_dat.obj
 0002:000106cc       ??_C@_0O@ODFDKJIN@set?9brand?9JCB?$AA@ 610786cc     libeay32:obj_dat.obj
 0002:000106dc       ??_C@_0BK@NGHCPIFJ@set?9brand?9AmericanExpress?$AA@ 610786dc     libeay32:obj_dat.obj
 0002:000106f8       ??_C@_0BB@MJOMIBOM@set?9brand?9Diners?$AA@ 610786f8     libeay32:obj_dat.obj
 0002:0001070c       ??_C@_0BD@EBDAHFCK@set?9brand?9IATA?9ATA?$AA@ 6107870c     libeay32:obj_dat.obj
 0002:00010720       ??_C@_0BI@BMDLNIII@secure?5device?5signature?$AA@ 61078720     libeay32:obj_dat.obj
 0002:00010738       ??_C@_0BC@HILPEDHB@setAttr?9SecDevSig?$AA@ 61078738     libeay32:obj_dat.obj
 0002:0001074c       ??_C@_0BH@FLMFBHA@ICC?5or?5token?5signature?$AA@ 6107874c     libeay32:obj_dat.obj
 0002:00010764       ??_C@_0BC@KFHJNGAA@setAttr?9TokICCsig?$AA@ 61078764     libeay32:obj_dat.obj
 0002:00010778       ??_C@_0BC@EEELFHMJ@cleartext?5track?52?$AA@ 61078778     libeay32:obj_dat.obj
 0002:0001078c       ??_C@_0BD@GDDCOMNC@setAttr?9T2cleartxt?$AA@ 6107878c     libeay32:obj_dat.obj
 0002:000107a0       ??_C@_0BC@MCHFBPJF@encrypted?5track?52?$AA@ 610787a0     libeay32:obj_dat.obj
 0002:000107b4       ??_C@_0O@GFEDKLID@setAttr?9T2Enc?$AA@ 610787b4     libeay32:obj_dat.obj
 0002:000107c4       ??_C@_0BE@BANBLNDJ@generate?5cryptogram?$AA@ 610787c4     libeay32:obj_dat.obj
 0002:000107d8       ??_C@_0BE@FJCINFHM@setAttr?9GenCryptgrm?$AA@ 610787d8     libeay32:obj_dat.obj
 0002:000107ec       ??_C@_0BD@DMNGIJGO@setAttr?9IssCap?9Sig?$AA@ 610787ec     libeay32:obj_dat.obj
 0002:00010800       ??_C@_0BC@FKLLNJMF@setAttr?9IssCap?9T2?$AA@ 61078800     libeay32:obj_dat.obj
 0002:00010814       ??_C@_0BD@CMJDLAHE@setAttr?9IssCap?9CVM?$AA@ 61078814     libeay32:obj_dat.obj
 0002:00010828       ??_C@_0BG@ICNBHDJ@setAttr?9Token?9B0Prime?$AA@ 61078828     libeay32:obj_dat.obj
 0002:00010840       ??_C@_0BC@BMANBENP@setAttr?9Token?9EMV?$AA@ 61078840     libeay32:obj_dat.obj
 0002:00010854       ??_C@_0O@NOCONBCM@set?9addPolicy?$AA@ 61078854     libeay32:obj_dat.obj
 0002:00010864       ??_C@_0BB@MADMNAKK@set?9rootKeyThumb?$AA@ 61078864     libeay32:obj_dat.obj
 0002:00010878       ??_C@_0BE@HBDPGKCG@issuer?5capabilities?$AA@ 61078878     libeay32:obj_dat.obj
 0002:0001088c       ??_C@_0P@OGFLCCKL@setAttr?9IssCap?$AA@ 6107888c     libeay32:obj_dat.obj
 0002:0001089c       ??_C@_0BC@IKOKMCIL@setAttr?9TokenType?$AA@ 6107889c     libeay32:obj_dat.obj
 0002:000108b0       ??_C@_0BN@HEFBDPEB@payment?5gateway?5capabilities?$AA@ 610788b0     libeay32:obj_dat.obj
 0002:000108d0       ??_C@_0BA@FAIFDKDK@setAttr?9PGWYcap?$AA@ 610788d0     libeay32:obj_dat.obj
 0002:000108e0       ??_C@_0N@DCNKAAPN@setAttr?9Cert?$AA@ 610788e0     libeay32:obj_dat.obj
 0002:000108f0       ??_C@_0BL@OLCLGJDA@setCext?9IssuerCapabilities?$AA@ 610788f0     libeay32:obj_dat.obj
 0002:0001090c       ??_C@_0BC@KMFGLCBL@setCext?9TokenType?$AA@ 6107890c     libeay32:obj_dat.obj
 0002:00010920       ??_C@_0BD@FHFLAKJD@setCext?9Track2Data?$AA@ 61078920     libeay32:obj_dat.obj
 0002:00010934       ??_C@_0BI@FIIEHNL@setCext?9TokenIdentifier?$AA@ 61078934     libeay32:obj_dat.obj
 0002:0001094c       ??_C@_0BJ@CNLNHONG@setCext?9PGWYcapabilities?$AA@ 6107894c     libeay32:obj_dat.obj
 0002:00010968       ??_C@_0BB@HIAOOOIO@setCext?9setQualf?$AA@ 61078968     libeay32:obj_dat.obj
 0002:0001097c       ??_C@_0P@DFHCPLJG@setCext?9setExt?$AA@ 6107897c     libeay32:obj_dat.obj
 0002:0001098c       ??_C@_0BC@BPADJLFJ@setCext?9tunneling?$AA@ 6107898c     libeay32:obj_dat.obj
 0002:000109a0       ??_C@_0BG@CMNKGOHO@setCext?9cCertRequired?$AA@ 610789a0     libeay32:obj_dat.obj
 0002:000109b8       ??_C@_0BC@ONMLOIHK@setCext?9merchData?$AA@ 610789b8     libeay32:obj_dat.obj
 0002:000109cc       ??_C@_0BB@LHGCHNFD@setCext?9certType?$AA@ 610789cc     libeay32:obj_dat.obj
 0002:000109e0       ??_C@_0BD@MELPLACB@setCext?9hashedRoot?$AA@ 610789e0     libeay32:obj_dat.obj
 0002:000109f4       ??_C@_0BA@DLJGCPKK@set?9policy?9root?$AA@ 610789f4     libeay32:obj_dat.obj
 0002:00010a04       ??_C@_0BI@MFPOFNGC@additional?5verification?$AA@ 61078a04     libeay32:obj_dat.obj
 0002:00010a1c       ??_C@_09GMOEIEJI@setext?9cv?$AA@ 61078a1c     libeay32:obj_dat.obj
 0002:00010a28       ??_C@_0O@PNAFPHHK@setext?9track2?$AA@ 61078a28     libeay32:obj_dat.obj
 0002:00010a38       ??_C@_0O@PNHGIFHA@setext?9pinAny?$AA@ 61078a38     libeay32:obj_dat.obj
 0002:00010a48       ??_C@_0BB@IKLFBNP@setext?9pinSecure?$AA@ 61078a48     libeay32:obj_dat.obj
 0002:00010a5c       ??_C@_0BI@IMGNFPLI@merchant?5initiated?5auth?$AA@ 61078a5c     libeay32:obj_dat.obj
 0002:00010a74       ??_C@_0O@IFMPKKOL@setext?9miAuth?$AA@ 61078a74     libeay32:obj_dat.obj
 0002:00010a84       ??_C@_0BD@IMJHIOH@generic?5cryptogram?$AA@ 61078a84     libeay32:obj_dat.obj
 0002:00010a98       ??_C@_0BA@NKJJMGPC@setext?9genCrypt?$AA@ 61078a98     libeay32:obj_dat.obj
 0002:00010aa8       ??_C@_0BJ@BPGLEKIJ@setct?9BCIDistributionTBS?$AA@ 61078aa8     libeay32:obj_dat.obj
 0002:00010ac4       ??_C@_0BM@GINBKIMJ@setct?9CRLNotificationResTBS?$AA@ 61078ac4     libeay32:obj_dat.obj
 0002:00010ae0       ??_C@_0BJ@KMIJGANO@setct?9CRLNotificationTBS?$AA@ 61078ae0     libeay32:obj_dat.obj
 0002:00010afc       ??_C@_0BB@KEDMFAIN@setct?9CertResTBE?$AA@ 61078afc     libeay32:obj_dat.obj
 0002:00010b10       ??_C@_0BC@KMAHLFJK@setct?9CertReqTBEX?$AA@ 61078b10     libeay32:obj_dat.obj
 0002:00010b24       ??_C@_0BB@NOPMADON@setct?9CertReqTBE?$AA@ 61078b24     libeay32:obj_dat.obj
 0002:00010b38       ??_C@_0BE@MIADHNEP@setct?9RegFormReqTBE?$AA@ 61078b38     libeay32:obj_dat.obj
 0002:00010b4c       ??_C@_0BH@PFFPEIML@setct?9BatchAdminResTBE?$AA@ 61078b4c     libeay32:obj_dat.obj
 0002:00010b64       ??_C@_0BH@IPJPBLKL@setct?9BatchAdminReqTBE?$AA@ 61078b64     libeay32:obj_dat.obj
 0002:00010b7c       ??_C@_0BE@MGLMPAHD@setct?9CredRevResTBE?$AA@ 61078b7c     libeay32:obj_dat.obj
 0002:00010b90       ??_C@_0BF@PGGAOKCB@setct?9CredRevReqTBEX?$AA@ 61078b90     libeay32:obj_dat.obj
 0002:00010ba8       ??_C@_0BE@LMHMKDBD@setct?9CredRevReqTBE?$AA@ 61078ba8     libeay32:obj_dat.obj
 0002:00010bbc       ??_C@_0BB@NFFENEIP@setct?9CredResTBE?$AA@ 61078bbc     libeay32:obj_dat.obj
 0002:00010bd0       ??_C@_0BC@ECHILMDC@setct?9CredReqTBEX?$AA@ 61078bd0     libeay32:obj_dat.obj
 0002:00010be4       ??_C@_0BB@KPJEIHOP@setct?9CredReqTBE?$AA@ 61078be4     libeay32:obj_dat.obj
 0002:00010bf8       ??_C@_0BD@GIBDNMDG@setct?9CapRevResTBE?$AA@ 61078bf8     libeay32:obj_dat.obj
 0002:00010c0c       ??_C@_0BE@PAHIPABC@setct?9CapRevReqTBEX?$AA@ 61078c0c     libeay32:obj_dat.obj
 0002:00010c20       ??_C@_0BD@BCNDIPFG@setct?9CapRevReqTBE?$AA@ 61078c20     libeay32:obj_dat.obj
 0002:00010c34       ??_C@_0BA@MEFGIEBL@setct?9CapResTBE?$AA@ 61078c34     libeay32:obj_dat.obj
 0002:00010c44       ??_C@_0BB@LFALOJDP@setct?9CapReqTBEX?$AA@ 61078c44     libeay32:obj_dat.obj
 0002:00010c58       ??_C@_0BA@LOJGNHHL@setct?9CapReqTBE?$AA@ 61078c58     libeay32:obj_dat.obj
 0002:00010c68       ??_C@_0BF@KKFFJIHO@setct?9AuthRevResTBEB?$AA@ 61078c68     libeay32:obj_dat.obj
 0002:00010c80       ??_C@_0BE@MHAGABNC@setct?9AuthRevResTBE?$AA@ 61078c80     libeay32:obj_dat.obj
 0002:00010c94       ??_C@_0BE@LNMGFCLC@setct?9AuthRevReqTBE?$AA@ 61078c94     libeay32:obj_dat.obj
 0002:00010ca8       ??_C@_0BI@PALCIALL@setct?9AcqCardCodeMsgTBE?$AA@ 61078ca8     libeay32:obj_dat.obj
 0002:00010cc0       ??_C@_0BD@OMCOOIME@setct?9CapTokenTBEX?$AA@ 61078cc0     libeay32:obj_dat.obj
 0002:00010cd4       ??_C@_0BC@CIKKDLAH@setct?9CapTokenTBE?$AA@ 61078cd4     libeay32:obj_dat.obj
 0002:00010ce8       ??_C@_0BD@DHGMJDKO@setct?9AuthTokenTBE?$AA@ 61078ce8     libeay32:obj_dat.obj
 0002:00010cfc       ??_C@_0BC@OEOIIPOH@setct?9AuthResTBEX?$AA@ 61078cfc     libeay32:obj_dat.obj
 0002:00010d10       ??_C@_0BB@IDPADFEK@setct?9AuthResTBE?$AA@ 61078d10     libeay32:obj_dat.obj
 0002:00010d24       ??_C@_0BB@PJDAGGCK@setct?9AuthReqTBE?$AA@ 61078d24     libeay32:obj_dat.obj
 0002:00010d38       ??_C@_0BE@IBOAPLDD@setct?9PIUnsignedTBE?$AA@ 61078d38     libeay32:obj_dat.obj
 0002:00010d4c       ??_C@_0BG@JDDNBPAG@setct?9PIDualSignedTBE?$AA@ 61078d4c     libeay32:obj_dat.obj
 0002:00010d64       ??_C@_0P@DLHKHMDJ@setct?9ErrorTBS?$AA@ 61078d64     libeay32:obj_dat.obj
 0002:00010d74       ??_C@_0BE@OIDIJLCF@setct?9CertInqReqTBS?$AA@ 61078d74     libeay32:obj_dat.obj
 0002:00010d88       ??_C@_0BC@BIIFIBNO@setct?9CertResData?$AA@ 61078d88     libeay32:obj_dat.obj
 0002:00010d9c       ??_C@_0BB@MCGELGDK@setct?9CertReqTBS?$AA@ 61078d9c     libeay32:obj_dat.obj
 0002:00010db0       ??_C@_0BC@FFENCANF@setct?9CertReqData?$AA@ 61078db0     libeay32:obj_dat.obj
 0002:00010dc4       ??_C@_0BE@KOFLJLPI@setct?9RegFormResTBS?$AA@ 61078dc4     libeay32:obj_dat.obj
 0002:00010dd8       ??_C@_0BG@DIBJJIJB@setct?9MeAqCInitResTBS?$AA@ 61078dd8     libeay32:obj_dat.obj
 0002:00010df0       ??_C@_0BG@OMHIHPPP@setct?9CardCInitResTBS?$AA@ 61078df0     libeay32:obj_dat.obj
 0002:00010e08       ??_C@_0BI@IHGLAGGD@setct?9BatchAdminResData?$AA@ 61078e08     libeay32:obj_dat.obj
 0002:00010e20       ??_C@_0BI@MKKDKHGI@setct?9BatchAdminReqData?$AA@ 61078e20     libeay32:obj_dat.obj
 0002:00010e38       ??_C@_0BC@CFHCKIIA@setct?9PCertResTBS?$AA@ 61078e38     libeay32:obj_dat.obj
 0002:00010e4c       ??_C@_0BD@DDNGMNFC@setct?9PCertReqData?$AA@ 61078e4c     libeay32:obj_dat.obj
 0002:00010e60       ??_C@_0BF@ECOCNOGF@setct?9CredRevResData?$AA@ 61078e60     libeay32:obj_dat.obj
 0002:00010e78       ??_C@_0BF@OOMLDFOD@setct?9CredRevReqTBSX?$AA@ 61078e78     libeay32:obj_dat.obj
 0002:00010e90       ??_C@_0BE@KAOEBGME@setct?9CredRevReqTBS?$AA@ 61078e90     libeay32:obj_dat.obj
 0002:00010ea4       ??_C@_0BC@PGPKIIHG@setct?9CredResData?$AA@ 61078ea4     libeay32:obj_dat.obj
 0002:00010eb8       ??_C@_0BC@FKNDGDPA@setct?9CredReqTBSX?$AA@ 61078eb8     libeay32:obj_dat.obj
 0002:00010ecc       ??_C@_0BB@LDAMDCDI@setct?9CredReqTBS?$AA@ 61078ecc     libeay32:obj_dat.obj
 0002:00010ee0       ??_C@_0BE@EEPKMEFG@setct?9CapRevResData?$AA@ 61078ee0     libeay32:obj_dat.obj
 0002:00010ef4       ??_C@_0BE@OINDCPNA@setct?9CapRevReqTBSX?$AA@ 61078ef4     libeay32:obj_dat.obj
 0002:00010f08       ??_C@_0BD@OELDKIB@setct?9CapRevReqTBS?$AA@ 61078f08     libeay32:obj_dat.obj
 0002:00010f1c       ??_C@_0BB@BIJNNHL@setct?9CapResData?$AA@ 61078f1c     libeay32:obj_dat.obj
 0002:00010f30       ??_C@_0BB@KNKADGPN@setct?9CapReqTBSX?$AA@ 61078f30     libeay32:obj_dat.obj
 0002:00010f44       ??_C@_0BA@KCAOGCKM@setct?9CapReqTBS?$AA@ 61078f44     libeay32:obj_dat.obj
 0002:00010f54       ??_C@_0BE@NLJOLEAF@setct?9AuthRevResTBS?$AA@ 61078f54     libeay32:obj_dat.obj
 0002:00010f68       ??_C@_0BF@ODDCPHOK@setct?9AuthRevResData?$AA@ 61078f68     libeay32:obj_dat.obj
 0002:00010f80       ??_C@_0BE@KBFOOHGF@setct?9AuthRevReqTBS?$AA@ 61078f80     libeay32:obj_dat.obj
 0002:00010f94       ??_C@_0BF@LAOAGKEH@setct?9AcqCardCodeMsg?$AA@ 61078f94     libeay32:obj_dat.obj
 0002:00010fac       ??_C@_0BC@DEDCIONA@setct?9CapTokenTBS?$AA@ 61078fac     libeay32:obj_dat.obj
 0002:00010fc0       ??_C@_0BD@BFGEHNIL@setct?9CapTokenData?$AA@ 61078fc0     libeay32:obj_dat.obj
 0002:00010fd4       ??_C@_0BD@CLPECGHJ@setct?9AuthTokenTBS?$AA@ 61078fd4     libeay32:obj_dat.obj
 0002:00010fe8       ??_C@_0BC@PMEDFACF@setct?9AuthResTBSX?$AA@ 61078fe8     libeay32:obj_dat.obj
 0002:00010ffc       ??_C@_0BB@JPGIIAJN@setct?9AuthResTBS?$AA@ 61078ffc     libeay32:obj_dat.obj
 0002:00011010       ??_C@_0BB@OFKINDPN@setct?9AuthReqTBS?$AA@ 61079010     libeay32:obj_dat.obj
 0002:00011024       ??_C@_0P@NGDEPBBH@setct?9PResData?$AA@ 61079024     libeay32:obj_dat.obj
 0002:00011034       ??_C@_0N@GIGHFPBJ@setct?9PI?9TBS?$AA@ 61079034     libeay32:obj_dat.obj
 0002:00011044       ??_C@_0BD@GIEGHJGD@setct?9PInitResData?$AA@ 61079044     libeay32:obj_dat.obj
 0002:00011058       ??_C@_0BC@DDFFKACM@setct?9CapTokenSeq?$AA@ 61079058     libeay32:obj_dat.obj
 0002:0001106c       ??_C@_0BI@CNLKCNFM@setct?9AuthRevResBaggage?$AA@ 6107906c     libeay32:obj_dat.obj
 0002:00011084       ??_C@_0BI@DEMAFNK@setct?9AuthRevReqBaggage?$AA@ 61079084     libeay32:obj_dat.obj
 0002:0001109c       ??_C@_0BF@EFHLGKOJ@setct?9AuthResBaggage?$AA@ 6107909c     libeay32:obj_dat.obj
 0002:000110b4       ??_C@_0P@LPBKKIBL@setct?9HODInput?$AA@ 610790b4     libeay32:obj_dat.obj
 0002:000110c4       ??_C@_0BF@BDFGFMFJ@setct?9PIDataUnsigned?$AA@ 610790c4     libeay32:obj_dat.obj
 0002:000110dc       ??_C@_0N@PGCGIPOF@setct?9PIData?$AA@ 610790dc     libeay32:obj_dat.obj
 0002:000110ec       ??_C@_08MNJJNIEC@setct?9PI?$AA@ 610790ec     libeay32:obj_dat.obj
 0002:000110f8       ??_C@_0N@GHLAGDMC@setct?9OIData?$AA@ 610790f8     libeay32:obj_dat.obj
 0002:00011108       ??_C@_0O@PFJCCKAL@setct?9PANOnly?$AA@ 61079108     libeay32:obj_dat.obj
 0002:00011118       ??_C@_0P@LAMDLEMO@setct?9PANToken?$AA@ 61079118     libeay32:obj_dat.obj
 0002:00011128       ??_C@_0O@EKAPGBNN@setct?9PANData?$AA@ 61079128     libeay32:obj_dat.obj
 0002:00011138       ??_C@_09JHODGPNO@set?9brand?$AA@ 61079138     libeay32:obj_dat.obj
 0002:00011144       ??_C@_0BH@PDPIEGPA@certificate?5extensions?$AA@ 61079144     libeay32:obj_dat.obj
 0002:0001115c       ??_C@_0M@KEIBDDC@set?9certExt?$AA@ 6107915c     libeay32:obj_dat.obj
 0002:00011168       ??_C@_0L@LAAAKICM@set?9policy?$AA@ 61079168     libeay32:obj_dat.obj
 0002:00011174       ??_C@_08OFDIOKIA@set?9attr?$AA@ 61079174     libeay32:obj_dat.obj
 0002:00011180       ??_C@_0BD@LEIDLLNO@message?5extensions?$AA@ 61079180     libeay32:obj_dat.obj
 0002:00011194       ??_C@_0L@PKPEIEIJ@set?9msgExt?$AA@ 61079194     libeay32:obj_dat.obj
 0002:000111a0       ??_C@_0O@HJGLMADJ@content?5types?$AA@ 610791a0     libeay32:obj_dat.obj
 0002:000111b0       ??_C@_09EJPBIJJA@set?9ctype?$AA@ 610791b0     libeay32:obj_dat.obj
 0002:000111bc       ??_C@_0BP@KEIHJPNF@Secure?5Electronic?5Transactions?$AA@ 610791bc     libeay32:obj_dat.obj
 0002:000111dc       ??_C@_06KKEMDFAF@id?9set?$AA@ 610791dc     libeay32:obj_dat.obj
 0002:000111e4       ??_C@_09NNMENHIH@pseudonym?$AA@ 610791e4     libeay32:obj_dat.obj
 0002:000111f0       ??_C@_0BE@DAEHFOO@generationQualifier?$AA@ 610791f0     libeay32:obj_dat.obj
 0002:00011204       ??_C@_0BJ@KCNAIDP@id?9hex?9multipart?9message?$AA@ 61079204     libeay32:obj_dat.obj
 0002:00011220       ??_C@_0BH@ILCJEHBB@id?9hex?9partial?9message?$AA@ 61079220     libeay32:obj_dat.obj
 0002:00011238       ??_C@_0BA@MOFCNIEE@mime?9mhs?9bodies?$AA@ 61079238     libeay32:obj_dat.obj
 0002:00011248       ??_C@_0BC@NIFMCBEJ@mime?9mhs?9headings?$AA@ 61079248     libeay32:obj_dat.obj
 0002:0001125c       ??_C@_08DNBACEKK@MIME?5MHS?$AA@ 6107925c     libeay32:obj_dat.obj
 0002:00011268       ??_C@_08HLONPBDI@mime?9mhs?$AA@ 61079268     libeay32:obj_dat.obj
 0002:00011274       ??_C@_0BF@EFCCADKK@x500UniqueIdentifier?$AA@ 61079274     libeay32:obj_dat.obj
 0002:0001128c       ??_C@_0BC@KCCHJGGO@documentPublisher?$AA@ 6107928c     libeay32:obj_dat.obj
 0002:000112a0       ??_C@_05KNIAAKIP@audio?$AA@ 610792a0     libeay32:obj_dat.obj
 0002:000112a8       ??_C@_0M@KIABODOB@dITRedirect?$AA@ 610792a8     libeay32:obj_dat.obj
 0002:000112b4       ??_C@_0BC@CBOFINFC@personalSignature?$AA@ 610792b4     libeay32:obj_dat.obj
 0002:000112c8       ??_C@_0BG@FLFPEGPE@subtreeMaximumQuality?$AA@ 610792c8     libeay32:obj_dat.obj
 0002:000112e0       ??_C@_0BG@HMOECBMF@subtreeMinimumQuality?$AA@ 610792e0     libeay32:obj_dat.obj
 0002:000112f8       ??_C@_0BD@EHDOPADK@singleLevelQuality?$AA@ 610792f8     libeay32:obj_dat.obj
 0002:0001130c       ??_C@_0L@LMCCHBHL@dSAQuality?$AA@ 6107930c     libeay32:obj_dat.obj
 0002:00011318       ??_C@_0N@POAALOHC@buildingName?$AA@ 61079318     libeay32:obj_dat.obj
 0002:00011328       ??_C@_0BF@OFOHKDCI@mailPreferenceOption?$AA@ 61079328     libeay32:obj_dat.obj
 0002:00011340       ??_C@_0N@DGNBNBGJ@janetMailbox?$AA@ 61079340     libeay32:obj_dat.obj
 0002:00011350       ??_C@_0BF@IANLBJMF@organizationalStatus?$AA@ 61079350     libeay32:obj_dat.obj
 0002:00011368       ??_C@_0BE@MGDAFGCM@friendlyCountryName?$AA@ 61079368     libeay32:obj_dat.obj
 0002:0001137c       ??_C@_0BF@JICDDEFM@pagerTelephoneNumber?$AA@ 6107937c     libeay32:obj_dat.obj
 0002:00011394       ??_C@_0BG@DCPABLLG@mobileTelephoneNumber?$AA@ 61079394     libeay32:obj_dat.obj
 0002:000113ac       ??_C@_0O@CCHLDBGG@personalTitle?$AA@ 610793ac     libeay32:obj_dat.obj
 0002:000113bc       ??_C@_0BC@NPJKACJF@homePostalAddress?$AA@ 610793bc     libeay32:obj_dat.obj
 0002:000113d0       ??_C@_0P@OJOOFNGB@associatedName?$AA@ 610793d0     libeay32:obj_dat.obj
 0002:000113e0       ??_C@_0BB@MEFMIBKO@associatedDomain?$AA@ 610793e0     libeay32:obj_dat.obj
 0002:000113f4       ??_C@_0M@GHEAGPOE@cNAMERecord?$AA@ 610793f4     libeay32:obj_dat.obj
 0002:00011400       ??_C@_09OCFHDJJF@sOARecord?$AA@ 61079400     libeay32:obj_dat.obj
 0002:0001140c       ??_C@_08FBLONLGA@nSRecord?$AA@ 6107940c     libeay32:obj_dat.obj
 0002:00011418       ??_C@_08DFFJPLPD@mXRecord?$AA@ 61079418     libeay32:obj_dat.obj
 0002:00011424       ??_C@_0BF@MIIMJDJB@pilotAttributeType27?$AA@ 61079424     libeay32:obj_dat.obj
 0002:0001143c       ??_C@_07IBNMBOJB@aRecord?$AA@ 6107943c     libeay32:obj_dat.obj
 0002:00011444       ??_C@_0P@ECLEJAJJ@lastModifiedBy?$AA@ 61079444     libeay32:obj_dat.obj
 0002:00011454       ??_C@_0BB@LHLABCIP@lastModifiedTime?$AA@ 61079454     libeay32:obj_dat.obj
 0002:00011468       ??_C@_0N@CEOKELFP@otherMailbox?$AA@ 61079468     libeay32:obj_dat.obj
 0002:00011478       ??_C@_09EMBFDNKC@secretary?$AA@ 61079478     libeay32:obj_dat.obj
 0002:00011484       ??_C@_0BE@CPLAKLNE@homeTelephoneNumber?$AA@ 61079484     libeay32:obj_dat.obj
 0002:00011498       ??_C@_0BB@COFKDFJ@documentLocation?$AA@ 61079498     libeay32:obj_dat.obj
 0002:000114ac       ??_C@_0P@DABDJKFB@documentAuthor?$AA@ 610794ac     libeay32:obj_dat.obj
 0002:000114bc       ??_C@_0BA@GHOLKFM@documentVersion?$AA@ 610794bc     libeay32:obj_dat.obj
 0002:000114cc       ??_C@_0O@BDIDABAC@documentTitle?$AA@ 610794cc     libeay32:obj_dat.obj
 0002:000114dc       ??_C@_0BD@MEPJGCEO@documentIdentifier?$AA@ 610794dc     libeay32:obj_dat.obj
 0002:000114f0       ??_C@_07JPLKDPHP@manager?$AA@ 610794f0     libeay32:obj_dat.obj
 0002:000114f8       ??_C@_04OODOLJMA@host?$AA@ 610794f8     libeay32:obj_dat.obj
 0002:00011500       ??_C@_09CCPGMHEM@userClass?$AA@ 61079500     libeay32:obj_dat.obj
 0002:0001150c       ??_C@_05DOIFDPKA@photo?$AA@ 6107950c     libeay32:obj_dat.obj
 0002:00011514       ??_C@_0L@DGKNANFO@roomNumber?$AA@ 61079514     libeay32:obj_dat.obj
 0002:00011520       ??_C@_0P@PAMFCEKP@favouriteDrink?$AA@ 61079520     libeay32:obj_dat.obj
 0002:00011530       ??_C@_04NIDJFNBE@info?$AA@ 61079530     libeay32:obj_dat.obj
 0002:00011538       ??_C@_0O@PDNFEOHL@rfc822Mailbox?$AA@ 61079538     libeay32:obj_dat.obj
 0002:00011548       ??_C@_04FFKLPPHM@mail?$AA@ 61079548     libeay32:obj_dat.obj
 0002:00011550       ??_C@_0BF@HDIIKJDI@textEncodedORAddress?$AA@ 61079550     libeay32:obj_dat.obj
 0002:00011568       ??_C@_06LPELCIKE@userId?$AA@ 61079568     libeay32:obj_dat.obj
 0002:00011570       ??_C@_03MJDGODDN@UID?$AA@  61079570     libeay32:obj_dat.obj
 0002:00011574       ??_C@_0BE@DDFOMMI@qualityLabelledData?$AA@ 61079574     libeay32:obj_dat.obj
 0002:00011588       ??_C@_08MPJGPMC@pilotDSA?$AA@ 61079588     libeay32:obj_dat.obj
 0002:00011594       ??_C@_0BC@PLDKCMI@pilotOrganization?$AA@ 61079594     libeay32:obj_dat.obj
 0002:000115a8       ??_C@_0BF@CONLNHDI@simpleSecurityObject?$AA@ 610795a8     libeay32:obj_dat.obj
 0002:000115c0       ??_C@_0BA@LKHIAMBK@friendlyCountry?$AA@ 610795c0     libeay32:obj_dat.obj
 0002:000115d0       ??_C@_0BE@OPAPHNCO@domainRelatedObject?$AA@ 610795d0     libeay32:obj_dat.obj
 0002:000115e4       ??_C@_09BOCGGGMK@dNSDomain?$AA@ 610795e4     libeay32:obj_dat.obj
 0002:000115f0       ??_C@_0BA@KIAIOBLD@rFC822localPart?$AA@ 610795f0     libeay32:obj_dat.obj
 0002:00011600       ??_C@_0P@OAPEDDHP@documentSeries?$AA@ 61079600     libeay32:obj_dat.obj
 0002:00011610       ??_C@_04EKFCMFOP@room?$AA@ 61079610     libeay32:obj_dat.obj
 0002:00011618       ??_C@_08JEEDKNPB@document?$AA@ 61079618     libeay32:obj_dat.obj
 0002:00011624       ??_C@_07PMDLEBNF@account?$AA@ 61079624     libeay32:obj_dat.obj
 0002:0001162c       ??_C@_0M@NCGDCEIP@pilotPerson?$AA@ 6107962c     libeay32:obj_dat.obj
 0002:00011638       ??_C@_0M@MCCFCPKP@pilotObject?$AA@ 61079638     libeay32:obj_dat.obj
 0002:00011644       ??_C@_0BK@LELMGJGD@caseIgnoreIA5StringSyntax?$AA@ 61079644     libeay32:obj_dat.obj
 0002:00011660       ??_C@_0BA@KPIIGILK@iA5StringSyntax?$AA@ 61079660     libeay32:obj_dat.obj
 0002:00011670       ??_C@_0M@DLMEDAFC@pilotGroups?$AA@ 61079670     libeay32:obj_dat.obj
 0002:0001167c       ??_C@_0BB@MJFNAIDM@pilotObjectClass?$AA@ 6107967c     libeay32:obj_dat.obj
 0002:00011690       ??_C@_0BF@CDEFHHCF@pilotAttributeSyntax?$AA@ 61079690     libeay32:obj_dat.obj
 0002:000116a8       ??_C@_0BD@NEGIHOAI@pilotAttributeType?$AA@ 610796a8     libeay32:obj_dat.obj
 0002:000116bc       ??_C@_05KIBFDOPF@pilot?$AA@ 610796bc     libeay32:obj_dat.obj
 0002:000116c4       ??_C@_03BIDCBJP@ucl?$AA@   610796c4     libeay32:obj_dat.obj
 0002:000116c8       ??_C@_03OHCBHMED@pss?$AA@  610796c8     libeay32:obj_dat.obj
 0002:000116cc       ??_C@_04PJOLNDGD@data?$AA@ 610796cc     libeay32:obj_dat.obj
 0002:000116d4       ??_C@_0BI@EEABHGCD@Hold?5Instruction?5Reject?$AA@ 610796d4     libeay32:obj_dat.obj
 0002:000116ec       ??_C@_0BG@BDAACIJE@holdInstructionReject?$AA@ 610796ec     libeay32:obj_dat.obj
 0002:00011704       ??_C@_0BN@IJKNPIFC@Hold?5Instruction?5Call?5Issuer?$AA@ 61079704     libeay32:obj_dat.obj
 0002:00011724       ??_C@_0BK@ENEKHHMB@holdInstructionCallIssuer?$AA@ 61079724     libeay32:obj_dat.obj
 0002:00011740       ??_C@_0BG@ECBIHNGK@Hold?5Instruction?5None?$AA@ 61079740     libeay32:obj_dat.obj
 0002:00011758       ??_C@_0BE@KPEIPHPJ@holdInstructionNone?$AA@ 61079758     libeay32:obj_dat.obj
 0002:0001176c       ??_C@_0BG@LHBPDMAN@Hold?5Instruction?5Code?$AA@ 6107976c     libeay32:obj_dat.obj
 0002:00011784       ??_C@_0BE@FKEPLGJO@holdInstructionCode?$AA@ 61079784     libeay32:obj_dat.obj
 0002:00011798       ??_C@_0M@JMFNEPEI@aes?9256?9cfb?$AA@ 61079798     libeay32:obj_dat.obj
 0002:000117a4       ??_C@_0M@EAFGNFML@AES?9256?9CFB?$AA@ 610797a4     libeay32:obj_dat.obj
 0002:000117b0       ??_C@_0M@NGILPAPA@aes?9256?9ofb?$AA@ 610797b0     libeay32:obj_dat.obj
 0002:000117bc       ??_C@_0M@KIAGKHD@AES?9256?9OFB?$AA@ 610797bc     libeay32:obj_dat.obj
 0002:000117c8       ??_C@_0M@ICEPNGNF@aes?9256?9cbc?$AA@ 610797c8     libeay32:obj_dat.obj
 0002:000117d4       ??_C@_0M@FOEEEMFG@AES?9256?9CBC?$AA@ 610797d4     libeay32:obj_dat.obj
 0002:000117e0       ??_C@_0M@LPPNNCHP@aes?9256?9ecb?$AA@ 610797e0     libeay32:obj_dat.obj
 0002:000117ec       ??_C@_0M@GDPGEIPM@AES?9256?9ECB?$AA@ 610797ec     libeay32:obj_dat.obj
 0002:000117f8       ??_C@_0M@EOODGAMJ@aes?9192?9cfb?$AA@ 610797f8     libeay32:obj_dat.obj
 0002:00011804       ??_C@_0M@JCOIPKEK@AES?9192?9CFB?$AA@ 61079804     libeay32:obj_dat.obj
 0002:00011810       ??_C@_0M@EDFNPHB@aes?9192?9ofb?$AA@ 61079810     libeay32:obj_dat.obj
 0002:0001181c       ??_C@_0M@NIDOEFPC@AES?9192?9OFB?$AA@ 6107981c     libeay32:obj_dat.obj
 0002:00011828       ??_C@_0M@FAPBPJFE@aes?9192?9cbc?$AA@ 61079828     libeay32:obj_dat.obj
 0002:00011834       ??_C@_0M@IMPKGDNH@AES?9192?9CBC?$AA@ 61079834     libeay32:obj_dat.obj
 0002:00011840       ??_C@_0M@GNEDPNPO@aes?9192?9ecb?$AA@ 61079840     libeay32:obj_dat.obj
 0002:0001184c       ??_C@_0M@LBEIGHHN@AES?9192?9ECB?$AA@ 6107984c     libeay32:obj_dat.obj
 0002:00011858       ??_C@_0M@ONHPBHFF@aes?9128?9cfb?$AA@ 61079858     libeay32:obj_dat.obj
 0002:00011864       ??_C@_0M@DBHEINNG@AES?9128?9CFB?$AA@ 61079864     libeay32:obj_dat.obj
 0002:00011870       ??_C@_0M@KHKJKION@aes?9128?9ofb?$AA@ 61079870     libeay32:obj_dat.obj
 0002:0001187c       ??_C@_0M@HLKCDCGO@AES?9128?9OFB?$AA@ 6107987c     libeay32:obj_dat.obj
 0002:00011888       ??_C@_0M@PDGNIOMI@aes?9128?9cbc?$AA@ 61079888     libeay32:obj_dat.obj
 0002:00011894       ??_C@_0M@CPGGBEEL@AES?9128?9CBC?$AA@ 61079894     libeay32:obj_dat.obj
 0002:000118a0       ??_C@_0M@MONPIKGC@aes?9128?9ecb?$AA@ 610798a0     libeay32:obj_dat.obj
 0002:000118ac       ??_C@_0M@BCNEBAOB@AES?9128?9ECB?$AA@ 610798ac     libeay32:obj_dat.obj
 0002:000118b8       ??_C@_0BD@HDEEGCLB@Microsoft?5CSP?5Name?$AA@ 610798b8     libeay32:obj_dat.obj
 0002:000118cc       ??_C@_07BPKAKPJK@CSPName?$AA@ 610798cc     libeay32:obj_dat.obj
 0002:000118d4       ??_C@_0BA@DGJNDOPM@ecdsa?9with?9SHA1?$AA@ 610798d4     libeay32:obj_dat.obj
 0002:000118e4       ??_C@_0L@JJFEINOP@prime256v1?$AA@ 610798e4     libeay32:obj_dat.obj
 0002:000118f0       ??_C@_0L@HMEBAKJL@prime239v3?$AA@ 610798f0     libeay32:obj_dat.obj
 0002:000118fc       ??_C@_0L@GFFKDLNK@prime239v2?$AA@ 610798fc     libeay32:obj_dat.obj
 0002:00011908       ??_C@_0L@EOHHGIBJ@prime239v1?$AA@ 61079908     libeay32:obj_dat.obj
 0002:00011914       ??_C@_0L@GHGEOHJF@prime192v3?$AA@ 61079914     libeay32:obj_dat.obj
 0002:00011920       ??_C@_0L@HOHPNGNE@prime192v2?$AA@ 61079920     libeay32:obj_dat.obj
 0002:0001192c       ??_C@_0L@FFFCIFBH@prime192v1?$AA@ 6107992c     libeay32:obj_dat.obj
 0002:00011938       ??_C@_0P@NEOBKIMO@id?9ecPublicKey?$AA@ 61079938     libeay32:obj_dat.obj
 0002:00011948       ??_C@_0BJ@HECCMKCN@characteristic?9two?9field?$AA@ 61079948     libeay32:obj_dat.obj
 0002:00011964       ??_C@_0M@LGLKIODB@prime?9field?$AA@ 61079964     libeay32:obj_dat.obj
 0002:00011970       ??_C@_0L@HAOKGHPF@ANSI?5X9?462?$AA@ 61079970     libeay32:obj_dat.obj
 0002:0001197c       ??_C@_0L@LBMOMFCJ@ansi?9X9?962?$AA@ 6107997c     libeay32:obj_dat.obj
 0002:00011988       ??_C@_0BP@DEKFNCEH@X509v3?5No?5Revocation?5Available?$AA@ 61079988     libeay32:obj_dat.obj
 0002:000119a8       ??_C@_0L@ECGDAGCK@noRevAvail?$AA@ 610799a8     libeay32:obj_dat.obj
 0002:000119b4       ??_C@_0BE@IECCFFCH@X509v3?5AC?5Targeting?$AA@ 610799b4     libeay32:obj_dat.obj
 0002:000119c8       ??_C@_0BC@JINDJNPM@targetInformation?$AA@ 610799c8     libeay32:obj_dat.obj
 0002:000119dc       ??_C@_0BK@DNMBLGM@X509v3?5Policy?5Constraints?$AA@ 610799dc     libeay32:obj_dat.obj
 0002:000119f8       ??_C@_0BC@IJLMCBHD@policyConstraints?$AA@ 610799f8     libeay32:obj_dat.obj
 0002:00011a0c       ??_C@_04IAMNPBLO@role?$AA@ 61079a0c     libeay32:obj_dat.obj
 0002:00011a14       ??_C@_0BA@PEFFHNFH@id?9aca?9encAttrs?$AA@ 61079a14     libeay32:obj_dat.obj
 0002:00011a24       ??_C@_0BL@OMFIOBLF@Subject?5Information?5Access?$AA@ 61079a24     libeay32:obj_dat.obj
 0002:00011a40       ??_C@_0BC@IEIBIKBA@subjectInfoAccess?$AA@ 61079a40     libeay32:obj_dat.obj
 0002:00011a54       ??_C@_0M@BKAIKGEL@ac?9proxying?$AA@ 61079a54     libeay32:obj_dat.obj
 0002:00011a60       ??_C@_0BF@JDOFKNPK@md4WithRSAEncryption?$AA@ 61079a60     libeay32:obj_dat.obj
 0002:00011a78       ??_C@_07MHHBEDHA@RSA?9MD4?$AA@ 61079a78     libeay32:obj_dat.obj
 0002:00011a80       ??_C@_09ECGCCLFI@clearance?$AA@ 61079a80     libeay32:obj_dat.obj
 0002:00011a8c       ??_C@_0BJ@MAOJIBHF@Selected?5Attribute?5Types?$AA@ 61079a8c     libeay32:obj_dat.obj
 0002:00011aa8       ??_C@_0BJ@BDDNHDDA@selected?9attribute?9types?$AA@ 61079aa8     libeay32:obj_dat.obj
 0002:00011ac4       ??_C@_04HIBGFPH@NULL?$AA@  61079ac4     libeay32:obj_dat.obj
 0002:00011acc       ??_C@_06HFDFFJHI@Domain?$AA@ 61079acc     libeay32:obj_dat.obj
 0002:00011ad4       ??_C@_06LKIIGAOE@domain?$AA@ 61079ad4     libeay32:obj_dat.obj
 0002:00011adc       ??_C@_0BA@DMAKFKAH@domainComponent?$AA@ 61079adc     libeay32:obj_dat.obj
 0002:00011aec       ??_C@_02KMHJBPDH@DC?$AA@   61079aec     libeay32:obj_dat.obj
 0002:00011af0       ??_C@_08GPNKJGDG@dcObject?$AA@ 61079af0     libeay32:obj_dat.obj
 0002:00011afc       ??_C@_08KAGHKPKK@dcobject?$AA@ 61079afc     libeay32:obj_dat.obj
 0002:00011b08       ??_C@_0M@CEEPHGPL@Enterprises?$AA@ 61079b08     libeay32:obj_dat.obj
 0002:00011b14       ??_C@_0M@DMHOKNAD@enterprises?$AA@ 61079b14     libeay32:obj_dat.obj
 0002:00011b20       ??_C@_04JEGKNAHI@Mail?$AA@ 61079b20     libeay32:obj_dat.obj
 0002:00011b28       ??_C@_06JDJOGLHO@SNMPv2?$AA@ 61079b28     libeay32:obj_dat.obj
 0002:00011b30       ??_C@_06DKHMNHOO@snmpv2?$AA@ 61079b30     libeay32:obj_dat.obj
 0002:00011b38       ??_C@_08EDKKPLCC@Security?$AA@ 61079b38     libeay32:obj_dat.obj
 0002:00011b44       ??_C@_08MBFLHJIB@security?$AA@ 61079b44     libeay32:obj_dat.obj
 0002:00011b50       ??_C@_07CFINJGKH@Private?$AA@ 61079b50     libeay32:obj_dat.obj
 0002:00011b58       ??_C@_07NMPLPEPB@private?$AA@ 61079b58     libeay32:obj_dat.obj
 0002:00011b60       ??_C@_0N@FKCIGJFM@Experimental?$AA@ 61079b60     libeay32:obj_dat.obj
 0002:00011b70       ??_C@_0N@OJFGCCKJ@experimental?$AA@ 61079b70     libeay32:obj_dat.obj
 0002:00011b80       ??_C@_0L@ENAJINDB@Management?$AA@ 61079b80     libeay32:obj_dat.obj
 0002:00011b8c       ??_C@_04PFNCJACF@mgmt?$AA@ 61079b8c     libeay32:obj_dat.obj
 0002:00011b94       ??_C@_09EOAFACM@Directory?$AA@ 61079b94     libeay32:obj_dat.obj
 0002:00011ba0       ??_C@_09ELLNFDPM@directory?$AA@ 61079ba0     libeay32:obj_dat.obj
 0002:00011bac       ??_C@_04BAMKDBHE@iana?$AA@ 61079bac     libeay32:obj_dat.obj
 0002:00011bb4       ??_C@_04NMPANDAM@IANA?$AA@ 61079bb4     libeay32:obj_dat.obj
 0002:00011bbc       ??_C@_03CIOFGCAJ@dod?$AA@  61079bbc     libeay32:obj_dat.obj
 0002:00011bc0       ??_C@_03CFBOKPHF@DOD?$AA@  61079bc0     libeay32:obj_dat.obj
 0002:00011bc4       ??_C@_03MADHIGOI@org?$AA@  61079bc4     libeay32:obj_dat.obj
 0002:00011bc8       ??_C@_03MNMMELJE@ORG?$AA@  61079bc8     libeay32:obj_dat.obj
 0002:00011bcc       ??_C@_0CA@FIOIBJEO@directory?5services?5?9?5algorithms?$AA@ 61079bcc     libeay32:obj_dat.obj
 0002:00011bec       ??_C@_0P@NMIAKCBG@X500algorithms?$AA@ 61079bec     libeay32:obj_dat.obj
 0002:00011bfc       ??_C@_0N@JHANBHGC@rsaSignature?$AA@ 61079bfc     libeay32:obj_dat.obj
 0002:00011c0c       ??_C@_09JPNFBOJG@algorithm?$AA@ 61079c0c     libeay32:obj_dat.obj
 0002:00011c18       ??_C@_0L@INBPOG@Trust?5Root?$AA@ 61079c18     libeay32:obj_dat.obj
 0002:00011c24       ??_C@_09LNEPAILM@trustRoot?$AA@ 61079c24     libeay32:obj_dat.obj
 0002:00011c30       ??_C@_04LNEJFJGI@path?$AA@ 61079c30     libeay32:obj_dat.obj
 0002:00011c38       ??_C@_05HDPIMK@valid?$AA@  61079c38     libeay32:obj_dat.obj
 0002:00011c40       ??_C@_0BF@MPEDLKDP@Extended?5OCSP?5Status?$AA@ 61079c40     libeay32:obj_dat.obj
 0002:00011c58       ??_C@_0P@EGENIBNC@extendedStatus?$AA@ 61079c58     libeay32:obj_dat.obj
 0002:00011c68       ??_C@_0BF@CEIKAD@OCSP?5Service?5Locator?$AA@ 61079c68     libeay32:obj_dat.obj
 0002:00011c80       ??_C@_0P@LCDAPLHC@serviceLocator?$AA@ 61079c80     libeay32:obj_dat.obj
 0002:00011c90       ??_C@_0BE@JAFPABJB@OCSP?5Archive?5Cutoff?$AA@ 61079c90     libeay32:obj_dat.obj
 0002:00011ca4       ??_C@_0O@FIEDPKGI@archiveCutoff?$AA@ 61079ca4     libeay32:obj_dat.obj
 0002:00011cb4       ??_C@_0O@HFOALJCG@OCSP?5No?5Check?$AA@ 61079cb4     libeay32:obj_dat.obj
 0002:00011cc4       ??_C@_07MCKMCKHJ@noCheck?$AA@ 61079cc4     libeay32:obj_dat.obj
 0002:00011ccc       ??_C@_0BK@JKKLNLEI@Acceptable?5OCSP?5Responses?$AA@ 61079ccc     libeay32:obj_dat.obj
 0002:00011ce8       ??_C@_0BE@FBPDIHIK@acceptableResponses?$AA@ 61079ce8     libeay32:obj_dat.obj
 0002:00011cfc       ??_C@_0M@LCLKJALE@OCSP?5CRL?5ID?$AA@ 61079cfc     libeay32:obj_dat.obj
 0002:00011d08       ??_C@_05NOENOBME@CrlID?$AA@ 61079d08     libeay32:obj_dat.obj
 0002:00011d10       ??_C@_0L@NCNDEJFL@OCSP?5Nonce?$AA@ 61079d10     libeay32:obj_dat.obj
 0002:00011d1c       ??_C@_05OJOPLPHH@Nonce?$AA@ 61079d1c     libeay32:obj_dat.obj
 0002:00011d24       ??_C@_0BE@ONEEPEOL@Basic?5OCSP?5Response?$AA@ 61079d24     libeay32:obj_dat.obj
 0002:00011d38       ??_C@_0BC@KFAFMFFF@basicOCSPResponse?$AA@ 61079d38     libeay32:obj_dat.obj
 0002:00011d4c       ??_C@_07JCKMJMPC@ad?5dvcs?$AA@ 61079d4c     libeay32:obj_dat.obj
 0002:00011d54       ??_C@_07JCCJJKFE@AD_DVCS?$AA@ 61079d54     libeay32:obj_dat.obj
 0002:00011d5c       ??_C@_0BB@NMPPBOGK@AD?5Time?5Stamping?$AA@ 61079d5c     libeay32:obj_dat.obj
 0002:00011d70       ??_C@_0BA@PBBONLHE@ad_timestamping?$AA@ 61079d70     libeay32:obj_dat.obj
 0002:00011d80       ??_C@_0BD@DDALHPCH@id?9cct?9PKIResponse?$AA@ 61079d80     libeay32:obj_dat.obj
 0002:00011d94       ??_C@_0P@FNCPPGJO@id?9cct?9PKIData?$AA@ 61079d94     libeay32:obj_dat.obj
 0002:00011da4       ??_C@_0L@CDHPLMPE@id?9cct?9crs?$AA@ 61079da4     libeay32:obj_dat.obj
 0002:00011db0       ??_C@_0BH@DJONLBHI@id?9qcs?9pkixQCSyntax?9v1?$AA@ 61079db0     libeay32:obj_dat.obj
 0002:00011dc8       ??_C@_0M@FBOAJIIJ@id?9aca?9role?$AA@ 61079dc8     libeay32:obj_dat.obj
 0002:00011dd4       ??_C@_0N@HOPCGOGP@id?9aca?9group?$AA@ 61079dd4     libeay32:obj_dat.obj
 0002:00011de4       ??_C@_0BI@IDHFJBKH@id?9aca?9chargingIdentity?$AA@ 61079de4     libeay32:obj_dat.obj
 0002:00011dfc       ??_C@_0BG@GFJCFEAI@id?9aca?9accessIdentity?$AA@ 61079dfc     libeay32:obj_dat.obj
 0002:00011e14       ??_C@_0BK@OFEDAOCA@id?9aca?9authenticationInfo?$AA@ 61079e14     libeay32:obj_dat.obj
 0002:00011e30       ??_C@_0BK@BJMNIGCJ@id?9pda?9countryOfResidence?$AA@ 61079e30     libeay32:obj_dat.obj
 0002:00011e4c       ??_C@_0BM@KMGEGNAB@id?9pda?9countryOfCitizenship?$AA@ 61079e4c     libeay32:obj_dat.obj
 0002:00011e68       ??_C@_0O@JMCFNPFD@id?9pda?9gender?$AA@ 61079e68     libeay32:obj_dat.obj
 0002:00011e78       ??_C@_0BE@NIFFDBPJ@id?9pda?9placeOfBirth?$AA@ 61079e78     libeay32:obj_dat.obj
 0002:00011e8c       ??_C@_0BD@BADJMIPF@id?9pda?9dateOfBirth?$AA@ 61079e8c     libeay32:obj_dat.obj
 0002:00011ea0       ??_C@_0BD@IGLADCFL@id?9on?9personalData?$AA@ 61079ea0     libeay32:obj_dat.obj
 0002:00011eb4       ??_C@_0BN@MIGHDJON@id?9cmc?9confirmCertAcceptance?$AA@ 61079eb4     libeay32:obj_dat.obj
 0002:00011ed4       ??_C@_0BG@EEIJMDPB@id?9cmc?9popLinkWitness?$AA@ 61079ed4     libeay32:obj_dat.obj
 0002:00011eec       ??_C@_0BF@GGLCNKGO@id?9cmc?9popLinkRandom?$AA@ 61079eec     libeay32:obj_dat.obj
 0002:00011f04       ??_C@_0BE@JKLJLIIH@id?9cmc?9queryPending?$AA@ 61079f04     libeay32:obj_dat.obj
 0002:00011f18       ??_C@_0BE@CKMFMMDP@id?9cmc?9responseInfo?$AA@ 61079f18     libeay32:obj_dat.obj
 0002:00011f2c       ??_C@_0P@PCIOIKNC@id?9cmc?9regInfo?$AA@ 61079f2c     libeay32:obj_dat.obj
 0002:00011f3c       ??_C@_0BF@BOEAJJNI@id?9cmc?9revokeRequest?$AA@ 61079f3c     libeay32:obj_dat.obj
 0002:00011f54       ??_C@_0O@OIGIOBJ@id?9cmc?9getCRL?$AA@ 61079f54     libeay32:obj_dat.obj
 0002:00011f64       ??_C@_0P@GMDPJKDO@id?9cmc?9getCert?$AA@ 61079f64     libeay32:obj_dat.obj
 0002:00011f74       ??_C@_0BF@BMODAINP@id?9cmc?9lraPOPWitness?$AA@ 61079f74     libeay32:obj_dat.obj
 0002:00011f8c       ??_C@_0BE@KBIPLENG@id?9cmc?9decryptedPOP?$AA@ 61079f8c     libeay32:obj_dat.obj
 0002:00011fa0       ??_C@_0BE@NILMJFN@id?9cmc?9encryptedPOP?$AA@ 61079fa0     libeay32:obj_dat.obj
 0002:00011fb4       ??_C@_0BF@HLOCACJF@id?9cmc?9addExtensions?$AA@ 61079fb4     libeay32:obj_dat.obj
 0002:00011fcc       ??_C@_0BG@JLHHNNCH@id?9cmc?9recipientNonce?$AA@ 61079fcc     libeay32:obj_dat.obj
 0002:00011fe4       ??_C@_0BD@BCMJDDMP@id?9cmc?9senderNonce?$AA@ 61079fe4     libeay32:obj_dat.obj
 0002:00011ff8       ??_C@_0BF@GEJAHBF@id?9cmc?9transactionId?$AA@ 61079ff8     libeay32:obj_dat.obj
 0002:00012010       ??_C@_0BC@LLJKCHEN@id?9cmc?9dataReturn?$AA@ 6107a010     libeay32:obj_dat.obj
 0002:00012024       ??_C@_0BF@IDAHNDCK@id?9cmc?9identityProof?$AA@ 6107a024     libeay32:obj_dat.obj
 0002:0001203c       ??_C@_0BG@PPIINOMK@id?9cmc?9identification?$AA@ 6107a03c     libeay32:obj_dat.obj
 0002:00012054       ??_C@_0BC@CMNEPEAI@id?9cmc?9statusInfo?$AA@ 6107a054     libeay32:obj_dat.obj
 0002:00012068       ??_C@_0O@OBGPPBGA@id?9alg?9dh?9pop?$AA@ 6107a068     libeay32:obj_dat.obj
 0002:00012078       ??_C@_0BI@KIODNBCM@id?9alg?9dh?9sig?9hmac?9sha1?$AA@ 6107a078     libeay32:obj_dat.obj
 0002:00012090       ??_C@_0BD@LAAJOBHI@id?9alg?9noSignature?$AA@ 6107a090     libeay32:obj_dat.obj
 0002:000120a4       ??_C@_0N@KIJONBNA@id?9alg?9des40?$AA@ 6107a0a4     libeay32:obj_dat.obj
 0002:000120b4       ??_C@_0BD@EEAPBNJJ@id?9regInfo?9certReq?$AA@ 6107a0b4     libeay32:obj_dat.obj
 0002:000120c8       ??_C@_0BF@FHFGHAHE@id?9regInfo?9utf8Pairs?$AA@ 6107a0c8     libeay32:obj_dat.obj
 0002:000120e0       ??_C@_0BL@GHBPLPHM@id?9regCtrl?9protocolEncrKey?$AA@ 6107a0e0     libeay32:obj_dat.obj
 0002:000120fc       ??_C@_0BF@GFJPNJIG@id?9regCtrl?9oldCertID?$AA@ 6107a0fc     libeay32:obj_dat.obj
 0002:00012114       ??_C@_0BN@ONKHMAOP@id?9regCtrl?9pkiArchiveOptions?$AA@ 6107a114     libeay32:obj_dat.obj
 0002:00012134       ??_C@_0BO@GJKPPLPL@id?9regCtrl?9pkiPublicationInfo?$AA@ 6107a134     libeay32:obj_dat.obj
 0002:00012154       ??_C@_0BJ@FBKKLLKP@id?9regCtrl?9authenticator?$AA@ 6107a154     libeay32:obj_dat.obj
 0002:00012170       ??_C@_0BE@JDMKCIPE@id?9regCtrl?9regToken?$AA@ 6107a170     libeay32:obj_dat.obj
 0002:00012184       ??_C@_0L@BGHMJHOP@id?9regInfo?$AA@ 6107a184     libeay32:obj_dat.obj
 0002:00012190       ??_C@_0L@FDGKGANK@id?9regCtrl?$AA@ 6107a190     libeay32:obj_dat.obj
 0002:0001219c       ??_C@_0BF@CLCJJGFI@id?9it?9origPKIMessage?$AA@ 6107a19c     libeay32:obj_dat.obj
 0002:000121b4       ??_C@_0BG@KCBHNMIK@id?9it?9confirmWaitTime?$AA@ 6107a1b4     libeay32:obj_dat.obj
 0002:000121cc       ??_C@_0BG@MKDHCJKF@id?9it?9implicitConfirm?$AA@ 6107a1cc     libeay32:obj_dat.obj
 0002:000121e4       ??_C@_0BE@FOOOCPMH@id?9it?9revPassphrase?$AA@ 6107a1e4     libeay32:obj_dat.obj
 0002:000121f8       ??_C@_0BG@KPIIFBLH@id?9it?9keyPairParamRep?$AA@ 6107a1f8     libeay32:obj_dat.obj
 0002:00012210       ??_C@_0BG@LGJDGAPG@id?9it?9keyPairParamReq?$AA@ 6107a210     libeay32:obj_dat.obj
 0002:00012228       ??_C@_0BL@HBPHBFLO@id?9it?9subscriptionResponse?$AA@ 6107a228     libeay32:obj_dat.obj
 0002:00012244       ??_C@_0BK@MKGCMKGI@id?9it?9subscriptionRequest?$AA@ 6107a244     libeay32:obj_dat.obj
 0002:00012260       ??_C@_0BG@BPLKDJPD@id?9it?9unsupportedOIDs?$AA@ 6107a260     libeay32:obj_dat.obj
 0002:00012278       ??_C@_0BB@NHKBGJFG@id?9it?9currentCRL?$AA@ 6107a278     libeay32:obj_dat.obj
 0002:0001228c       ??_C@_0BG@OAKEHPLC@id?9it?9caKeyUpdateInfo?$AA@ 6107a28c     libeay32:obj_dat.obj
 0002:000122a4       ??_C@_0BH@JFBOPDCH@id?9it?9preferredSymmAlg?$AA@ 6107a2a4     libeay32:obj_dat.obj
 0002:000122bc       ??_C@_0BG@FKIDIODL@id?9it?9encKeyPairTypes?$AA@ 6107a2bc     libeay32:obj_dat.obj
 0002:000122d4       ??_C@_0BH@POCENFBA@id?9it?9signKeyPairTypes?$AA@ 6107a2d4     libeay32:obj_dat.obj
 0002:000122ec       ??_C@_0BE@GJACIPND@id?9it?9caProtEncCert?$AA@ 6107a2ec     libeay32:obj_dat.obj
 0002:00012300       ??_C@_04FFLIHJGD@dvcs?$AA@ 6107a300     libeay32:obj_dat.obj
 0002:00012308       ??_C@_04JJICJLBL@DVCS?$AA@ 6107a308     libeay32:obj_dat.obj
 0002:00012310       ??_C@_0L@DECDDCGF@IPSec?5User?$AA@ 6107a310     libeay32:obj_dat.obj
 0002:0001231c       ??_C@_09GOHJKOFF@ipsecUser?$AA@ 6107a31c     libeay32:obj_dat.obj
 0002:00012328       ??_C@_0N@EKDIOGLO@IPSec?5Tunnel?$AA@ 6107a328     libeay32:obj_dat.obj
 0002:00012338       ??_C@_0M@GMMHFFHI@ipsecTunnel?$AA@ 6107a338     libeay32:obj_dat.obj
 0002:00012344       ??_C@_0BB@JEJDAICO@IPSec?5End?5System?$AA@ 6107a344     libeay32:obj_dat.obj
 0002:00012358       ??_C@_0P@MKBFMAPP@ipsecEndSystem?$AA@ 6107a358     libeay32:obj_dat.obj
 0002:00012368       ??_C@_0L@HLNNPJEH@textNotice?$AA@ 6107a368     libeay32:obj_dat.obj
 0002:00012374       ??_C@_0BG@JCJJBMAI@sbgp?9routerIdentifier?$AA@ 6107a374     libeay32:obj_dat.obj
 0002:0001238c       ??_C@_0BG@OJEHJDKA@sbgp?9autonomousSysNum?$AA@ 6107a38c     libeay32:obj_dat.obj
 0002:000123a4       ??_C@_0BB@NNCKCHBC@sbgp?9ipAddrBlock?$AA@ 6107a3a4     libeay32:obj_dat.obj
 0002:000123b8       ??_C@_0L@DLGBNBJE@aaControls?$AA@ 6107a3b8     libeay32:obj_dat.obj
 0002:000123c4       ??_C@_0N@FPEEOJCI@ac?9targeting?$AA@ 6107a3c4     libeay32:obj_dat.obj
 0002:000123d4       ??_C@_0P@CIOHPJGC@ac?9auditEntity?$AA@ 6107a3d4     libeay32:obj_dat.obj
 0002:000123e4       ??_C@_0N@FPMNLLM@qcStatements?$AA@ 6107a3e4     libeay32:obj_dat.obj
 0002:000123f4       ??_C@_0P@KFKDECPH@Biometric?5Info?$AA@ 6107a3f4     libeay32:obj_dat.obj
 0002:00012404       ??_C@_0O@MPIIPAHM@biometricInfo?$AA@ 6107a404     libeay32:obj_dat.obj
 0002:00012414       ??_C@_0P@MMOAAMFD@id?9mod?9cmp2000?$AA@ 6107a414     libeay32:obj_dat.obj
 0002:00012424       ??_C@_0M@GHDGNJKI@id?9mod?9dvcs?$AA@ 6107a424     libeay32:obj_dat.obj
 0002:00012430       ??_C@_0M@EACKLPKH@id?9mod?9ocsp?$AA@ 6107a430     libeay32:obj_dat.obj
 0002:0001243c       ??_C@_0BK@GAJOODEK@id?9mod?9timestamp?9protocol?$AA@ 6107a43c     libeay32:obj_dat.obj
 0002:00012458       ??_C@_0BG@EPPFBJNH@id?9mod?9attribute?9cert?$AA@ 6107a458     libeay32:obj_dat.obj
 0002:00012470       ??_C@_0BJ@IGODAJIK@id?9mod?9qualified?9cert?993?$AA@ 6107a470     libeay32:obj_dat.obj
 0002:0001248c       ??_C@_0BJ@GENFLKHG@id?9mod?9qualified?9cert?988?$AA@ 6107a48c     libeay32:obj_dat.obj
 0002:000124a8       ??_C@_0L@MONEHBKH@id?9mod?9cmp?$AA@ 6107a4a8     libeay32:obj_dat.obj
 0002:000124b4       ??_C@_0BG@NAFGGBFM@id?9mod?9kea?9profile?993?$AA@ 6107a4b4     libeay32:obj_dat.obj
 0002:000124cc       ??_C@_0BG@DCGANCKA@id?9mod?9kea?9profile?988?$AA@ 6107a4cc     libeay32:obj_dat.obj
 0002:000124e4       ??_C@_0L@KPDLDADF@id?9mod?9cmc?$AA@ 6107a4e4     libeay32:obj_dat.obj
 0002:000124f0       ??_C@_0M@GHFPFJPB@id?9mod?9crmf?$AA@ 6107a4f0     libeay32:obj_dat.obj
 0002:000124fc       ??_C@_0BF@EOKAKKIK@id?9pkix1?9implicit?993?$AA@ 6107a4fc     libeay32:obj_dat.obj
 0002:00012514       ??_C@_0BF@JEALIPIC@id?9pkix1?9explicit?993?$AA@ 6107a514     libeay32:obj_dat.obj
 0002:0001252c       ??_C@_0BF@KMJGBJHG@id?9pkix1?9implicit?988?$AA@ 6107a52c     libeay32:obj_dat.obj
 0002:00012544       ??_C@_0BF@HGDNDMHO@id?9pkix1?9explicit?988?$AA@ 6107a544     libeay32:obj_dat.obj
 0002:0001255c       ??_C@_06PONIBOCI@id?9cct?$AA@ 6107a55c     libeay32:obj_dat.obj
 0002:00012564       ??_C@_06ELIJBHPL@id?9qcs?$AA@ 6107a564     libeay32:obj_dat.obj
 0002:0001256c       ??_C@_06GDGEDALH@id?9aca?$AA@ 6107a56c     libeay32:obj_dat.obj
 0002:00012574       ??_C@_06IOIOBGMI@id?9pda?$AA@ 6107a574     libeay32:obj_dat.obj
 0002:0001257c       ??_C@_05OHNJGMJE@id?9on?$AA@ 6107a57c     libeay32:obj_dat.obj
 0002:00012584       ??_C@_06PBMFLHLE@id?9cmc?$AA@ 6107a584     libeay32:obj_dat.obj
 0002:0001258c       ??_C@_06DOGCNAAM@id?9alg?$AA@ 6107a58c     libeay32:obj_dat.obj
 0002:00012594       ??_C@_07OMHOPMIM@id?9pkip?$AA@ 6107a594     libeay32:obj_dat.obj
 0002:0001259c       ??_C@_05FDHJOKPN@id?9it?$AA@ 6107a59c     libeay32:obj_dat.obj
 0002:000125a4       ??_C@_05EBEMBIDF@id?9qt?$AA@ 6107a5a4     libeay32:obj_dat.obj
 0002:000125ac       ??_C@_0M@FNAFBNKE@id?9pkix?9mod?$AA@ 6107a5ac     libeay32:obj_dat.obj
 0002:000125b8       ??_C@_03ODADJPDG@md4?$AA@  6107a5b8     libeay32:obj_dat.obj
 0002:000125bc       ??_C@_03HLHMHGOI@MD4?$AA@  6107a5bc     libeay32:obj_dat.obj
 0002:000125c0       ??_C@_0CB@MICJDGGH@id?9smime?9cti?9ets?9proofOfCreation@ 6107a5c0     libeay32:obj_dat.obj
 0002:000125e4       ??_C@_0CB@DDLMHEBC@id?9smime?9cti?9ets?9proofOfApproval@ 6107a5e4     libeay32:obj_dat.obj
 0002:00012608       ??_C@_0BP@ODCAFFCM@id?9smime?9cti?9ets?9proofOfSender?$AA@ 6107a608     libeay32:obj_dat.obj
 0002:00012628       ??_C@_0CB@ICJGPMEP@id?9smime?9cti?9ets?9proofOfDelivery@ 6107a628     libeay32:obj_dat.obj
 0002:0001264c       ??_C@_0CA@HNGOKBGC@id?9smime?9cti?9ets?9proofOfReceipt?$AA@ 6107a64c     libeay32:obj_dat.obj
 0002:0001266c       ??_C@_0BP@BCHFEGHC@id?9smime?9cti?9ets?9proofOfOrigin?$AA@ 6107a66c     libeay32:obj_dat.obj
 0002:0001268c       ??_C@_0BN@GPAAHNOH@id?9smime?9spq?9ets?9sqt?9unotice?$AA@ 6107a68c     libeay32:obj_dat.obj
 0002:000126ac       ??_C@_0BJ@IMNKDGEG@id?9smime?9spq?9ets?9sqt?9uri?$AA@ 6107a6ac     libeay32:obj_dat.obj
 0002:000126c8       ??_C@_0BB@BMOBKAGE@id?9smime?9cd?9ldap?$AA@ 6107a6c8     libeay32:obj_dat.obj
 0002:000126dc       ??_C@_0BI@FIFDKKFJ@id?9smime?9alg?9CMSRC2wrap?$AA@ 6107a6dc     libeay32:obj_dat.obj
 0002:000126f4       ??_C@_0BJ@FOFHEIDB@id?9smime?9alg?9CMS3DESwrap?$AA@ 6107a6f4     libeay32:obj_dat.obj
 0002:00012710       ??_C@_0BC@COOODKPD@id?9smime?9alg?9ESDH?$AA@ 6107a710     libeay32:obj_dat.obj
 0002:00012724       ??_C@_0BF@JNCPAJCA@id?9smime?9alg?9RC2wrap?$AA@ 6107a724     libeay32:obj_dat.obj
 0002:0001273c       ??_C@_0BG@HHELPNAK@id?9smime?9alg?93DESwrap?$AA@ 6107a73c     libeay32:obj_dat.obj
 0002:00012754       ??_C@_0BJ@FIJMOHBJ@id?9smime?9alg?9ESDHwithRC2?$AA@ 6107a754     libeay32:obj_dat.obj
 0002:00012770       ??_C@_0BK@JNJOCCCB@id?9smime?9alg?9ESDHwith3DES?$AA@ 6107a770     libeay32:obj_dat.obj
 0002:0001278c       ??_C@_0BF@KEMAMBKF@id?9smime?9aa?9dvcs?9dvc?$AA@ 6107a78c     libeay32:obj_dat.obj
 0002:000127a4       ??_C@_0BK@HDBIPLFI@id?9smime?9aa?9signatureType?$AA@ 6107a7a4     libeay32:obj_dat.obj
 0002:000127c0       ??_C@_0CB@BEMKNJGO@id?9smime?9aa?9ets?9archiveTimeStamp@ 6107a7c0     libeay32:obj_dat.obj
 0002:000127e4       ??_C@_0CB@CJNBPJE@id?9smime?9aa?9ets?9certCRLTimestamp@ 6107a7e4     libeay32:obj_dat.obj
 0002:00012808       ??_C@_0BN@HGLOGOFI@id?9smime?9aa?9ets?9escTimeStamp?$AA@ 6107a808     libeay32:obj_dat.obj
 0002:00012828       ??_C@_0CB@GOCEFPFO@id?9smime?9aa?9ets?9revocationValues@ 6107a828     libeay32:obj_dat.obj
 0002:0001284c       ??_C@_0BL@IFKOLDIG@id?9smime?9aa?9ets?9certValues?$AA@ 6107a84c     libeay32:obj_dat.obj
 0002:00012868       ??_C@_0BP@BCHJHNFO@id?9smime?9aa?9ets?9RevocationRefs?$AA@ 6107a868     libeay32:obj_dat.obj
 0002:00012888       ??_C@_0CA@NKIOCHLG@id?9smime?9aa?9ets?9CertificateRefs?$AA@ 6107a888     libeay32:obj_dat.obj
 0002:000128a8       ??_C@_0CB@GHKINGOH@id?9smime?9aa?9ets?9contentTimestamp@ 6107a8a8     libeay32:obj_dat.obj
 0002:000128cc       ??_C@_0BN@JFIFOPBH@id?9smime?9aa?9ets?9otherSigCert?$AA@ 6107a8cc     libeay32:obj_dat.obj
 0002:000128ec       ??_C@_0BL@KDJDAGDC@id?9smime?9aa?9ets?9signerAttr?$AA@ 6107a8ec     libeay32:obj_dat.obj
 0002:00012908       ??_C@_0BP@EODAELPO@id?9smime?9aa?9ets?9signerLocation?$AA@ 6107a908     libeay32:obj_dat.obj
 0002:00012928       ??_C@_0BP@OLIFPEIM@id?9smime?9aa?9ets?9commitmentType?$AA@ 6107a928     libeay32:obj_dat.obj
 0002:00012948       ??_C@_0BM@GKFMJCFL@id?9smime?9aa?9ets?9sigPolicyId?$AA@ 6107a948     libeay32:obj_dat.obj
 0002:00012964       ??_C@_0BL@DHJOIJNE@id?9smime?9aa?9timeStampToken?$AA@ 6107a964     libeay32:obj_dat.obj
 0002:00012980       ??_C@_0BO@CEEOANBD@id?9smime?9aa?9smimeEncryptCerts?$AA@ 6107a980     libeay32:obj_dat.obj
 0002:000129a0       ??_C@_0BP@LHGJLGIB@id?9smime?9aa?9signingCertificate?$AA@ 6107a9a0     libeay32:obj_dat.obj
 0002:000129c0       ??_C@_0BK@LAPEFMP@id?9smime?9aa?9encrypKeyPref?$AA@ 6107a9c0     libeay32:obj_dat.obj
 0002:000129dc       ??_C@_0BN@LEFAEFL@id?9smime?9aa?9contentReference?$AA@ 6107a9dc     libeay32:obj_dat.obj
 0002:000129fc       ??_C@_0BN@NFAAOKEA@id?9smime?9aa?9equivalentLabels?$AA@ 6107a9fc     libeay32:obj_dat.obj
 0002:00012a1c       ??_C@_0BF@CFNHFPDB@id?9smime?9aa?9macValue?$AA@ 6107aa1c     libeay32:obj_dat.obj
 0002:00012a34       ??_C@_0BO@KMJGIAMK@id?9smime?9aa?9contentIdentifier?$AA@ 6107aa34     libeay32:obj_dat.obj
 0002:00012a54       ??_C@_0BN@GCCNOJCG@id?9smime?9aa?9encapContentType?$AA@ 6107aa54     libeay32:obj_dat.obj
 0002:00012a74       ??_C@_0BJ@LJLDKMDH@id?9smime?9aa?9msgSigDigest?$AA@ 6107aa74     libeay32:obj_dat.obj
 0002:00012a90       ??_C@_0BI@EMGPJFHB@id?9smime?9aa?9contentHint?$AA@ 6107aa90     libeay32:obj_dat.obj
 0002:00012aa8       ??_C@_0BM@OEKGBMLE@id?9smime?9aa?9mlExpandHistory?$AA@ 6107aaa8     libeay32:obj_dat.obj
 0002:00012ac4       ??_C@_0BK@DNJNJILO@id?9smime?9aa?9securityLabel?$AA@ 6107aac4     libeay32:obj_dat.obj
 0002:00012ae0       ??_C@_0BL@LMGNMPFD@id?9smime?9aa?9receiptRequest?$AA@ 6107aae0     libeay32:obj_dat.obj
 0002:00012afc       ??_C@_0BN@POKJLKJJ@id?9smime?9ct?9DVCSResponseData?$AA@ 6107aafc     libeay32:obj_dat.obj
 0002:00012b1c       ??_C@_0BM@MFKPCEGN@id?9smime?9ct?9DVCSRequestData?$AA@ 6107ab1c     libeay32:obj_dat.obj
 0002:00012b38       ??_C@_0BI@BGKPNMK@id?9smime?9ct?9contentInfo?$AA@ 6107ab38     libeay32:obj_dat.obj
 0002:00012b50       ??_C@_0BE@FKPPBHI@id?9smime?9ct?9TDTInfo?$AA@ 6107ab50     libeay32:obj_dat.obj
 0002:00012b64       ??_C@_0BE@KHNGFDDI@id?9smime?9ct?9TSTInfo?$AA@ 6107ab64     libeay32:obj_dat.obj
 0002:00012b78       ??_C@_0BI@DBILCLFJ@id?9smime?9ct?9publishCert?$AA@ 6107ab78     libeay32:obj_dat.obj
 0002:00012b90       ??_C@_0BF@KGEHGOF@id?9smime?9ct?9authData?$AA@ 6107ab90     libeay32:obj_dat.obj
 0002:00012ba8       ??_C@_0BE@GCHIHBHA@id?9smime?9ct?9receipt?$AA@ 6107aba8     libeay32:obj_dat.obj
 0002:00012bbc       ??_C@_0BP@CCCOHHAI@id?9smime?9mod?9ets?9eSigPolicy?997?$AA@ 6107abbc     libeay32:obj_dat.obj
 0002:00012bdc       ??_C@_0BP@KEHEABPA@id?9smime?9mod?9ets?9eSigPolicy?988?$AA@ 6107abdc     libeay32:obj_dat.obj
 0002:00012bfc       ??_C@_0BP@POGMGJII@id?9smime?9mod?9ets?9eSignature?997?$AA@ 6107abfc     libeay32:obj_dat.obj
 0002:00012c1c       ??_C@_0BP@HIDGBPHA@id?9smime?9mod?9ets?9eSignature?988?$AA@ 6107ac1c     libeay32:obj_dat.obj
 0002:00012c3c       ??_C@_0BE@PEENABNJ@id?9smime?9mod?9msg?9v3?$AA@ 6107ac3c     libeay32:obj_dat.obj
 0002:00012c50       ??_C@_0BB@LBBEMNBN@id?9smime?9mod?9oid?$AA@ 6107ac50     libeay32:obj_dat.obj
 0002:00012c64       ??_C@_0BB@MKJLIPEJ@id?9smime?9mod?9ess?$AA@ 6107ac64     libeay32:obj_dat.obj
 0002:00012c78       ??_C@_0BB@PJEIFOOP@id?9smime?9mod?9cms?$AA@ 6107ac78     libeay32:obj_dat.obj
 0002:00012c8c       ??_C@_0N@CFBKAPGC@id?9smime?9cti?$AA@ 6107ac8c     libeay32:obj_dat.obj
 0002:00012c9c       ??_C@_0N@PABBGIHI@id?9smime?9spq?$AA@ 6107ac9c     libeay32:obj_dat.obj
 0002:00012cac       ??_C@_0M@LHBAJBP@id?9smime?9cd?$AA@ 6107acac     libeay32:obj_dat.obj
 0002:00012cb8       ??_C@_0N@DKFBIKP@id?9smime?9alg?$AA@ 6107acb8     libeay32:obj_dat.obj
 0002:00012cc8       ??_C@_0M@HFICCJDE@id?9smime?9aa?$AA@ 6107acc8     libeay32:obj_dat.obj
 0002:00012cd4       ??_C@_0M@EBLDBLEO@id?9smime?9ct?$AA@ 6107acd4     libeay32:obj_dat.obj
 0002:00012ce0       ??_C@_0N@GABIEKIN@id?9smime?9mod?$AA@ 6107ace0     libeay32:obj_dat.obj
 0002:00012cf0       ??_C@_06DFGHEKNE@S?1MIME?$AA@ 6107acf0     libeay32:obj_dat.obj
 0002:00012cf8       ??_C@_05HHBEAKJJ@SMIME?$AA@ 6107acf8     libeay32:obj_dat.obj
 0002:00012d00       ??_C@_05HGOIFJJD@pkcs5?$AA@ 6107ad00     libeay32:obj_dat.obj
 0002:00012d08       ??_C@_05BCIEJMJH@pkcs1?$AA@ 6107ad08     libeay32:obj_dat.obj
 0002:00012d10       ??_C@_0L@DJCLIPOH@X9?457?5CM?5?$DP?$AA@ 6107ad10     libeay32:obj_dat.obj
 0002:00012d1c       ??_C@_04CGFPFLFA@X9cm?$AA@ 6107ad1c     libeay32:obj_dat.obj
 0002:00012d24       ??_C@_05PAJLFBHD@X9?457?$AA@ 6107ad24     libeay32:obj_dat.obj
 0002:00012d2c       ??_C@_05OCCOPOJN@X9?957?$AA@ 6107ad2c     libeay32:obj_dat.obj
 0002:00012d34       ??_C@_0BD@NMCDOJHL@ISO?5US?5Member?5Body?$AA@ 6107ad34     libeay32:obj_dat.obj
 0002:00012d48       ??_C@_06EKAADAMF@ISO?9US?$AA@ 6107ad48     libeay32:obj_dat.obj
 0002:00012d50       ??_C@_0BA@BGDAEHGF@ISO?5Member?5Body?$AA@ 6107ad50     libeay32:obj_dat.obj
 0002:00012d60       ??_C@_0M@CMICFDOA@member?9body?$AA@ 6107ad60     libeay32:obj_dat.obj
 0002:00012d6c       ??_C@_03CMEHDJAL@iso?$AA@  6107ad6c     libeay32:obj_dat.obj
 0002:00012d70       ??_C@_03CBLMPEHH@ISO?$AA@  6107ad70     libeay32:obj_dat.obj
 0002:00012d74       ??_C@_0N@CPJNIPDD@OCSP?5Signing?$AA@ 6107ad74     libeay32:obj_dat.obj
 0002:00012d84       ??_C@_0M@HBKJLKNM@OCSPSigning?$AA@ 6107ad84     libeay32:obj_dat.obj
 0002:00012d90       ??_C@_0L@CABCENFK@CA?5Issuers?$AA@ 6107ad90     libeay32:obj_dat.obj
 0002:00012d9c       ??_C@_09GFPECPIH@caIssuers?$AA@ 6107ad9c     libeay32:obj_dat.obj
 0002:00012da8       ??_C@_04LOJOPNBE@OCSP?$AA@ 6107ada8     libeay32:obj_dat.obj
 0002:00012db0       ??_C@_0BN@EILCOJAN@Authority?5Information?5Access?$AA@ 6107adb0     libeay32:obj_dat.obj
 0002:00012dd0       ??_C@_0BE@PLCGCINM@authorityInfoAccess?$AA@ 6107add0     libeay32:obj_dat.obj
 0002:00012de4       ??_C@_05BHKIKJBE@id?9ad?$AA@ 6107ade4     libeay32:obj_dat.obj
 0002:00012dec       ??_C@_05BDFHFBBC@id?9pe?$AA@ 6107adec     libeay32:obj_dat.obj
 0002:00012df4       ??_C@_0M@DNNLEIMI@dnQualifier?$AA@ 6107adf4     libeay32:obj_dat.obj
 0002:00012e00       ??_C@_04MEMAJGDJ@name?$AA@ 6107ae00     libeay32:obj_dat.obj
 0002:00012e08       ??_C@_0BC@GLHEKHCC@Extension?5Request?$AA@ 6107ae08     libeay32:obj_dat.obj
 0002:00012e1c       ??_C@_06EJACAMDF@extReq?$AA@ 6107ae1c     libeay32:obj_dat.obj
 0002:00012e24       ??_C@_0BM@MEJAMAEO@Microsoft?5Extension?5Request?$AA@ 6107ae24     libeay32:obj_dat.obj
 0002:00012e40       ??_C@_08HCCJAOPJ@msExtReq?$AA@ 6107ae40     libeay32:obj_dat.obj
 0002:00012e4c       ??_C@_0BG@JLHBEJLP@pbeWithSHA1AndDES?9CBC?$AA@ 6107ae4c     libeay32:obj_dat.obj
 0002:00012e64       ??_C@_0N@GOPIPBOD@PBE?9SHA1?9DES?$AA@ 6107ae64     libeay32:obj_dat.obj
 0002:00012e74       ??_C@_0BF@CKDLCJKD@pbeWithMD5AndRC2?9CBC?$AA@ 6107ae74     libeay32:obj_dat.obj
 0002:00012e8c       ??_C@_0P@IDPFKEHM@PBE?9MD5?9RC2?964?$AA@ 6107ae8c     libeay32:obj_dat.obj
 0002:00012e9c       ??_C@_0BF@FOKDMACM@pbeWithMD2AndRC2?9CBC?$AA@ 6107ae9c     libeay32:obj_dat.obj
 0002:00012eb4       ??_C@_0P@OHJEMJLF@PBE?9MD2?9RC2?964?$AA@ 6107aeb4     libeay32:obj_dat.obj
 0002:00012ec4       ??_C@_0BE@CEEFMCAI@S?1MIME?5Capabilities?$AA@ 6107aec4     libeay32:obj_dat.obj
 0002:00012ed8       ??_C@_0L@LCBJGKJG@SMIME?9CAPS?$AA@ 6107aed8     libeay32:obj_dat.obj
 0002:00012ee4       ??_C@_0L@CLELMECA@rc2?964?9cbc?$AA@ 6107aee4     libeay32:obj_dat.obj
 0002:00012ef0       ??_C@_0L@OPHBIFFL@RC2?964?9CBC?$AA@ 6107aef0     libeay32:obj_dat.obj
 0002:00012efc       ??_C@_0BN@KPMBKEE@Policy?5Qualifier?5User?5Notice?$AA@ 6107aefc     libeay32:obj_dat.obj
 0002:00012f1c       ??_C@_0O@CJFHFAHE@id?9qt?9unotice?$AA@ 6107af1c     libeay32:obj_dat.obj
 0002:00012f2c       ??_C@_0BF@HPKIKKPI@Policy?5Qualifier?5CPS?$AA@ 6107af2c     libeay32:obj_dat.obj
 0002:00012f44       ??_C@_09MIPGHKGJ@id?9qt?9cps?$AA@ 6107af44     libeay32:obj_dat.obj
 0002:00012f50       ??_C@_0N@KANOAIP@hmacWithSHA1?$AA@ 6107af50     libeay32:obj_dat.obj
 0002:00012f60       ??_C@_06DEJMPFNK@PBMAC1?$AA@ 6107af60     libeay32:obj_dat.obj
 0002:00012f68       ??_C@_05EPMADBBF@PBES2?$AA@ 6107af68     libeay32:obj_dat.obj
 0002:00012f70       ??_C@_07KAOEJCFK@x509Crl?$AA@ 6107af70     libeay32:obj_dat.obj
 0002:00012f78       ??_C@_0BA@BFAOBDKH@sdsiCertificate?$AA@ 6107af78     libeay32:obj_dat.obj
 0002:00012f88       ??_C@_0BA@EMOFOCJL@x509Certificate?$AA@ 6107af88     libeay32:obj_dat.obj
 0002:00012f98       ??_C@_0L@BCMHPPAO@localKeyID?$AA@ 6107af98     libeay32:obj_dat.obj
 0002:00012fa4       ??_C@_0N@BGFMPLCM@friendlyName?$AA@ 6107afa4     libeay32:obj_dat.obj
 0002:00012fb4       ??_C@_0BA@KAKLKBBC@safeContentsBag?$AA@ 6107afb4     libeay32:obj_dat.obj
 0002:00012fc4       ??_C@_09DELDBPIE@secretBag?$AA@ 6107afc4     libeay32:obj_dat.obj
 0002:00012fd0       ??_C@_06JAFBIMLO@crlBag?$AA@ 6107afd0     libeay32:obj_dat.obj
 0002:00012fd8       ??_C@_07FDLMCII@certBag?$AA@ 6107afd8     libeay32:obj_dat.obj
 0002:00012fe0       ??_C@_0BE@ELJKIANF@pkcs8ShroudedKeyBag?$AA@ 6107afe0     libeay32:obj_dat.obj
 0002:00012ff4       ??_C@_06BFGNOIAI@keyBag?$AA@ 6107aff4     libeay32:obj_dat.obj
 0002:00012ffc       ??_C@_0BL@CKNKIMON@pbeWithSHA1And40BitRC2?9CBC?$AA@ 6107affc     libeay32:obj_dat.obj
 0002:00013018       ??_C@_0BA@MNBMNMAN@PBE?9SHA1?9RC2?940?$AA@ 6107b018     libeay32:obj_dat.obj
 0002:00013028       ??_C@_0BM@DOLDINME@pbeWithSHA1And128BitRC2?9CBC?$AA@ 6107b028     libeay32:obj_dat.obj
 0002:00013044       ??_C@_0BB@FNLJPIMG@PBE?9SHA1?9RC2?9128?$AA@ 6107b044     libeay32:obj_dat.obj
 0002:00013058       ??_C@_0CB@NCMPKEGH@pbeWithSHA1And2?9KeyTripleDES?9CBC@ 6107b058     libeay32:obj_dat.obj
 0002:0001307c       ??_C@_0O@HOHOOIGM@PBE?9SHA1?92DES?$AA@ 6107b07c     libeay32:obj_dat.obj
 0002:0001308c       ??_C@_0CB@FCNCEDP@pbeWithSHA1And3?9KeyTripleDES?9CBC@ 6107b08c     libeay32:obj_dat.obj
 0002:000130b0       ??_C@_0O@EDBOMBNM@PBE?9SHA1?93DES?$AA@ 6107b0b0     libeay32:obj_dat.obj
 0002:000130c0       ??_C@_0BH@OCAEJMIL@pbeWithSHA1And40BitRC4?$AA@ 6107b0c0     libeay32:obj_dat.obj
 0002:000130d8       ??_C@_0BA@ECFMCJKN@PBE?9SHA1?9RC4?940?$AA@ 6107b0d8     libeay32:obj_dat.obj
 0002:000130e8       ??_C@_0BI@LBIFCLPB@pbeWithSHA1And128BitRC4?$AA@ 6107b0e8     libeay32:obj_dat.obj
 0002:00013100       ??_C@_0BB@ILOABLNL@PBE?9SHA1?9RC4?9128?$AA@ 6107b100     libeay32:obj_dat.obj
 0002:00013114       ??_C@_0BD@PNDCMCDK@Strong?5Extranet?5ID?$AA@ 6107b114     libeay32:obj_dat.obj
 0002:00013128       ??_C@_07DKMNOLMH@SXNetID?$AA@ 6107b128     libeay32:obj_dat.obj
 0002:00013130       ??_C@_0BA@JDBEMONE@Invalidity?5Date?$AA@ 6107b130     libeay32:obj_dat.obj
 0002:00013140       ??_C@_0P@BKEGCOMO@invalidityDate?$AA@ 6107b140     libeay32:obj_dat.obj
 0002:00013150       ??_C@_0BH@GODIEFKG@X509v3?5CRL?5Reason?5Code?$AA@ 6107b150     libeay32:obj_dat.obj
 0002:00013168       ??_C@_09MCDAGILE@CRLReason?$AA@ 6107b168     libeay32:obj_dat.obj
 0002:00013174       ??_C@_0BL@HLNLPBHP@X509v3?5Delta?5CRL?5Indicator?$AA@ 6107b174     libeay32:obj_dat.obj
 0002:00013190       ??_C@_08ECNAKPJJ@deltaCRL?$AA@ 6107b190     libeay32:obj_dat.obj
 0002:0001319c       ??_C@_0BN@MDNLHLBL@Netscape?5Server?5Gated?5Crypto?$AA@ 6107b19c     libeay32:obj_dat.obj
 0002:000131bc       ??_C@_05LFIIINKG@nsSGC?$AA@ 6107b1bc     libeay32:obj_dat.obj
 0002:000131c4       ??_C@_0CA@IJODBCMB@Microsoft?5Encrypted?5File?5System?$AA@ 6107b1c4     libeay32:obj_dat.obj
 0002:000131e4       ??_C@_05NGOIPCN@msEFS?$AA@ 6107b1e4     libeay32:obj_dat.obj
 0002:000131ec       ??_C@_0BO@FBDDCLK@Microsoft?5Server?5Gated?5Crypto?$AA@ 6107b1ec     libeay32:obj_dat.obj
 0002:0001320c       ??_C@_05DDBMPPAI@msSGC?$AA@ 6107b20c     libeay32:obj_dat.obj
 0002:00013214       ??_C@_0BN@GNMCHNOI@Microsoft?5Trust?5List?5Signing?$AA@ 6107b214     libeay32:obj_dat.obj
 0002:00013234       ??_C@_09HGCLLDPK@msCTLSign?$AA@ 6107b234     libeay32:obj_dat.obj
 0002:00013240       ??_C@_0CC@GKFNEBFA@Microsoft?5Commercial?5Code?5Signin@ 6107b240     libeay32:obj_dat.obj
 0002:00013264       ??_C@_09PDGAMFAO@msCodeCom?$AA@ 6107b264     libeay32:obj_dat.obj
 0002:00013270       ??_C@_0CC@NDDHKAMP@Microsoft?5Individual?5Code?5Signin@ 6107b270     libeay32:obj_dat.obj
 0002:00013294       ??_C@_09EMNNPEBE@msCodeInd?$AA@ 6107b294     libeay32:obj_dat.obj
 0002:000132a0       ??_C@_0O@GMMBLMEE@Time?5Stamping?$AA@ 6107b2a0     libeay32:obj_dat.obj
 0002:000132b0       ??_C@_0N@LONEBHPN@timeStamping?$AA@ 6107b2b0     libeay32:obj_dat.obj
 0002:000132c0       ??_C@_0BC@BLBGFKKG@E?9mail?5Protection?$AA@ 6107b2c0     libeay32:obj_dat.obj
 0002:000132d4       ??_C@_0BA@NPCFDPCO@emailProtection?$AA@ 6107b2d4     libeay32:obj_dat.obj
 0002:000132e4       ??_C@_0N@CHJHLHFC@Code?5Signing?$AA@ 6107b2e4     libeay32:obj_dat.obj
 0002:000132f4       ??_C@_0M@OJNCNGJ@codeSigning?$AA@ 6107b2f4     libeay32:obj_dat.obj
 0002:00013300       ??_C@_0BO@FEMCBEOF@TLS?5Web?5Client?5Authentication?$AA@ 6107b300     libeay32:obj_dat.obj
 0002:00013320       ??_C@_0L@HCMKLLOP@clientAuth?$AA@ 6107b320     libeay32:obj_dat.obj
 0002:0001332c       ??_C@_0BO@HPFOJNNE@TLS?5Web?5Server?5Authentication?$AA@ 6107b32c     libeay32:obj_dat.obj
 0002:0001334c       ??_C@_0L@CINGAJGN@serverAuth?$AA@ 6107b34c     libeay32:obj_dat.obj
 0002:00013358       ??_C@_05DEJBPLJH@id?9kp?$AA@ 6107b358     libeay32:obj_dat.obj
 0002:00013360       ??_C@_04EAPCHJAG@PKIX?$AA@ 6107b360     libeay32:obj_dat.obj
 0002:00013368       ??_C@_0BK@KFMGFBEG@X509v3?5Extended?5Key?5Usage?$AA@ 6107b368     libeay32:obj_dat.obj
 0002:00013384       ??_C@_0BB@DGDLKPHD@extendedKeyUsage?$AA@ 6107b384     libeay32:obj_dat.obj
 0002:00013398       ??_C@_0BB@KGNEOBKL@zlib?5compression?$AA@ 6107b398     libeay32:obj_dat.obj
 0002:000133ac       ??_C@_04CHLIKDMF@ZLIB?$AA@ 6107b3ac     libeay32:obj_dat.obj
 0002:000133b4       ??_C@_0BH@CAEIMNHD@run?5length?5compression?$AA@ 6107b3b4     libeay32:obj_dat.obj
 0002:000133cc       ??_C@_03ELDBCICO@RLE?$AA@  6107b3cc     libeay32:obj_dat.obj
 0002:000133d0       ??_C@_07NLMEMEEK@rc5?9ofb?$AA@ 6107b3d0     libeay32:obj_dat.obj
 0002:000133d8       ??_C@_07OAPEFCPM@RC5?9OFB?$AA@ 6107b3d8     libeay32:obj_dat.obj
 0002:000133e0       ??_C@_07JBBCHLPC@rc5?9cfb?$AA@ 6107b3e0     libeay32:obj_dat.obj
 0002:000133e8       ??_C@_07KKCCONEE@RC5?9CFB?$AA@ 6107b3e8     libeay32:obj_dat.obj
 0002:000133f0       ??_C@_07LCLCOGMF@rc5?9ecb?$AA@ 6107b3f0     libeay32:obj_dat.obj
 0002:000133f8       ??_C@_07IJICHAHD@RC5?9ECB?$AA@ 6107b3f8     libeay32:obj_dat.obj
 0002:00013400       ??_C@_07IPAAOCGP@rc5?9cbc?$AA@ 6107b400     libeay32:obj_dat.obj
 0002:00013408       ??_C@_07LEDAHENJ@RC5?9CBC?$AA@ 6107b408     libeay32:obj_dat.obj
 0002:00013410       ??_C@_0BB@DCJDAKFH@ripemd160WithRSA?$AA@ 6107b410     libeay32:obj_dat.obj
 0002:00013424       ??_C@_0O@JPOIHGOH@RSA?9RIPEMD160?$AA@ 6107b424     libeay32:obj_dat.obj
 0002:00013434       ??_C@_09EDIPKBN@ripemd160?$AA@ 6107b434     libeay32:obj_dat.obj
 0002:00013440       ??_C@_09DJDCAKJG@RIPEMD160?$AA@ 6107b440     libeay32:obj_dat.obj
 0002:0001344c       ??_C@_0O@GMANLAEO@dsaEncryption?$AA@ 6107b44c     libeay32:obj_dat.obj
 0002:0001345c       ??_C@_03ENFFABCE@DSA?$AA@  6107b45c     libeay32:obj_dat.obj
 0002:00013460       ??_C@_0M@KECGAPAA@sha1WithRSA?$AA@ 6107b460     libeay32:obj_dat.obj
 0002:0001346c       ??_C@_0L@EMMEGDKK@RSA?9SHA1?92?$AA@ 6107b46c     libeay32:obj_dat.obj
 0002:00013478       ??_C@_08GOLKFMKI@md5?9sha1?$AA@ 6107b478     libeay32:obj_dat.obj
 0002:00013484       ??_C@_08EMIDHKIH@MD5?9SHA1?$AA@ 6107b484     libeay32:obj_dat.obj
 0002:00013490       ??_C@_0M@EFJKPOPH@dsaWithSHA1?$AA@ 6107b490     libeay32:obj_dat.obj
 0002:0001349c       ??_C@_08IOHJAANG@DSA?9SHA1?$AA@ 6107b49c     libeay32:obj_dat.obj
 0002:000134a8       ??_C@_0BG@JCFINJGL@pbeWithMD5AndCast5CBC?$AA@ 6107b4a8     libeay32:obj_dat.obj
 0002:000134c0       ??_C@_09ECHHPLBP@cast5?9ofb?$AA@ 6107b4c0     libeay32:obj_dat.obj
 0002:000134cc       ??_C@_09LEOLOMNK@CAST5?9OFB?$AA@ 6107b4cc     libeay32:obj_dat.obj
 0002:000134d8       ??_C@_09IKBEEKH@cast5?9cfb?$AA@ 6107b4d8     libeay32:obj_dat.obj
 0002:000134e4       ??_C@_09PODNFDGC@CAST5?9CFB?$AA@ 6107b4e4     libeay32:obj_dat.obj
 0002:000134f0       ??_C@_09CLABNJJA@cast5?9ecb?$AA@ 6107b4f0     libeay32:obj_dat.obj
 0002:000134fc       ??_C@_09NNJNMOFF@CAST5?9ECB?$AA@ 6107b4fc     libeay32:obj_dat.obj
 0002:00013508       ??_C@_09BGLDNNDK@cast5?9cbc?$AA@ 6107b508     libeay32:obj_dat.obj
 0002:00013514       ??_C@_09OACPMKPP@CAST5?9CBC?$AA@ 6107b514     libeay32:obj_dat.obj
 0002:00013520       ??_C@_0M@PPJNHBMP@description?$AA@ 6107b520     libeay32:obj_dat.obj
 0002:0001352c       ??_C@_05PHLGJONK@title?$AA@ 6107b52c     libeay32:obj_dat.obj
 0002:00013534       ??_C@_0N@OMOHFKCJ@serialNumber?$AA@ 6107b534     libeay32:obj_dat.obj
 0002:00013544       ??_C@_0L@CNDCBNIN@md5WithRSA?$AA@ 6107b544     libeay32:obj_dat.obj
 0002:00013550       ??_C@_0L@NACEPNFC@RSA?9NP?9MD5?$AA@ 6107b550     libeay32:obj_dat.obj
 0002:0001355c       ??_C@_0BP@EGHJGANM@X509v3?5CRL?5Distribution?5Points?$AA@ 6107b55c     libeay32:obj_dat.obj
 0002:0001357c       ??_C@_0BG@CCHGOEBE@crlDistributionPoints?$AA@ 6107b57c     libeay32:obj_dat.obj
 0002:00013594       ??_C@_08PAKNLFON@initials?$AA@ 6107b594     libeay32:obj_dat.obj
 0002:000135a0       ??_C@_07LNKFHLHI@surname?$AA@ 6107b5a0     libeay32:obj_dat.obj
 0002:000135a8       ??_C@_02LONEIP@SN?$AA@     6107b5a8     libeay32:obj_dat.obj
 0002:000135ac       ??_C@_09GCBNJLNP@givenName?$AA@ 6107b5ac     libeay32:obj_dat.obj
 0002:000135b8       ??_C@_02BLJBNPCD@GN?$AA@   6107b5b8     libeay32:obj_dat.obj
 0002:000135bc       ??_C@_0L@CHEFJHBP@rc2?940?9cbc?$AA@ 6107b5bc     libeay32:obj_dat.obj
 0002:000135c8       ??_C@_0L@ODHPNGGE@RC2?940?9CBC?$AA@ 6107b5c8     libeay32:obj_dat.obj
 0002:000135d4       ??_C@_06GNNJIOGN@rc4?940?$AA@ 6107b5d4     libeay32:obj_dat.obj
 0002:000135dc       ??_C@_06KFMILCMH@RC4?940?$AA@ 6107b5dc     libeay32:obj_dat.obj
 0002:000135e4       ??_C@_0M@HGGNEPNN@mdc2WithRSA?$AA@ 6107b5e4     libeay32:obj_dat.obj
 0002:000135f0       ??_C@_08OMAMCKNL@RSA?9MDC2?$AA@ 6107b5f0     libeay32:obj_dat.obj
 0002:000135fc       ??_C@_04ELNKPKEC@mdc2?$AA@ 6107b5fc     libeay32:obj_dat.obj
 0002:00013604       ??_C@_04BCGEDMJI@MDC2?$AA@ 6107b604     libeay32:obj_dat.obj
 0002:0001360c       ??_C@_06OBJCCDFN@bf?9ofb?$AA@ 6107b60c     libeay32:obj_dat.obj
 0002:00013614       ??_C@_06CEHINCIL@BF?9OFB?$AA@ 6107b614     libeay32:obj_dat.obj
 0002:0001361c       ??_C@_06KLEEJMOF@bf?9cfb?$AA@ 6107b61c     libeay32:obj_dat.obj
 0002:00013624       ??_C@_06GOKOGNDD@BF?9CFB?$AA@ 6107b624     libeay32:obj_dat.obj
 0002:0001362c       ??_C@_06IIOEABNC@bf?9ecb?$AA@ 6107b62c     libeay32:obj_dat.obj
 0002:00013634       ??_C@_06ENAOPAAE@BF?9ECB?$AA@ 6107b634     libeay32:obj_dat.obj
 0002:0001363c       ??_C@_06LFFGAFHI@bf?9cbc?$AA@ 6107b63c     libeay32:obj_dat.obj
 0002:00013644       ??_C@_06HALMPEKO@BF?9CBC?$AA@ 6107b644     libeay32:obj_dat.obj
 0002:0001364c       ??_C@_0CA@GODCHEHD@X509v3?5Authority?5Key?5Identifier?$AA@ 6107b64c     libeay32:obj_dat.obj
 0002:0001366c       ??_C@_0BH@ICHFALGD@authorityKeyIdentifier?$AA@ 6107b66c     libeay32:obj_dat.obj
 0002:00013684       ??_C@_0BM@OOFGKLPK@X509v3?5Certificate?5Policies?$AA@ 6107b684     libeay32:obj_dat.obj
 0002:000136a0       ??_C@_0BE@OLMJNPEP@certificatePolicies?$AA@ 6107b6a0     libeay32:obj_dat.obj
 0002:000136b4       ??_C@_0BC@PCPNBDDJ@X509v3?5CRL?5Number?$AA@ 6107b6b4     libeay32:obj_dat.obj
 0002:000136c8       ??_C@_09JDPHHKMA@crlNumber?$AA@ 6107b6c8     libeay32:obj_dat.obj
 0002:000136d4       ??_C@_0BJ@FBHDAJML@X509v3?5Basic?5Constraints?$AA@ 6107b6d4     libeay32:obj_dat.obj
 0002:000136f0       ??_C@_0BB@IKNGJCLO@basicConstraints?$AA@ 6107b6f0     libeay32:obj_dat.obj
 0002:00013704       ??_C@_0BP@FMJCGPCG@X509v3?5Issuer?5Alternative?5Name?$AA@ 6107b704     libeay32:obj_dat.obj
 0002:00013724       ??_C@_0O@DLIFHFCD@issuerAltName?$AA@ 6107b724     libeay32:obj_dat.obj
 0002:00013734       ??_C@_0CA@OPCJJLNF@X509v3?5Subject?5Alternative?5Name?$AA@ 6107b734     libeay32:obj_dat.obj
 0002:00013754       ??_C@_0P@EOFJHHKD@subjectAltName?$AA@ 6107b754     libeay32:obj_dat.obj
 0002:00013764       ??_C@_0CA@CLGHAMIP@X509v3?5Private?5Key?5Usage?5Period?$AA@ 6107b764     libeay32:obj_dat.obj
 0002:00013784       ??_C@_0BG@JOIAJOMN@privateKeyUsagePeriod?$AA@ 6107b784     libeay32:obj_dat.obj
 0002:0001379c       ??_C@_0BB@BPPOKNBO@X509v3?5Key?5Usage?$AA@ 6107b79c     libeay32:obj_dat.obj
 0002:000137b0       ??_C@_08BCICBOHF@keyUsage?$AA@ 6107b7b0     libeay32:obj_dat.obj
 0002:000137bc       ??_C@_0BO@ILPNOINJ@X509v3?5Subject?5Key?5Identifier?$AA@ 6107b7bc     libeay32:obj_dat.obj
 0002:000137dc       ??_C@_0BF@MOEDIMBI@subjectKeyIdentifier?$AA@ 6107b7dc     libeay32:obj_dat.obj
 0002:000137f4       ??_C@_05NDHEMDL@id?9ce?$AA@ 6107b7f4     libeay32:obj_dat.obj
 0002:000137fc       ??_C@_08KPMCEEEO@desx?9cbc?$AA@ 6107b7fc     libeay32:obj_dat.obj
 0002:00013808       ??_C@_08BBKPFFGN@DESX?9CBC?$AA@ 6107b808     libeay32:obj_dat.obj
 0002:00013814       ??_C@_0BO@KKKBMKBD@Netscape?5Certificate?5Sequence?$AA@ 6107b814     libeay32:obj_dat.obj
 0002:00013834       ??_C@_0P@OCCBBJKK@nsCertSequence?$AA@ 6107b834     libeay32:obj_dat.obj
 0002:00013844       ??_C@_0BB@DCFBGIOA@Netscape?5Comment?$AA@ 6107b844     libeay32:obj_dat.obj
 0002:00013858       ??_C@_09BALDFHMJ@nsComment?$AA@ 6107b858     libeay32:obj_dat.obj
 0002:00013864       ??_C@_0BJ@GMBLEMAL@Netscape?5SSL?5Server?5Name?$AA@ 6107b864     libeay32:obj_dat.obj
 0002:00013880       ??_C@_0BA@KNOKNJNE@nsSslServerName?$AA@ 6107b880     libeay32:obj_dat.obj
 0002:00013890       ??_C@_0BH@EMEFHLC@Netscape?5CA?5Policy?5Url?$AA@ 6107b890     libeay32:obj_dat.obj
 0002:000138a8       ??_C@_0O@DHDIMJD@nsCaPolicyUrl?$AA@ 6107b8a8     libeay32:obj_dat.obj
 0002:000138b8       ??_C@_0BF@FKENIIHB@Netscape?5Renewal?5Url?$AA@ 6107b8b8     libeay32:obj_dat.obj
 0002:000138d0       ??_C@_0N@JILHKMLM@nsRenewalUrl?$AA@ 6107b8d0     libeay32:obj_dat.obj
 0002:000138e0       ??_C@_0BL@EMOMOFDB@Netscape?5CA?5Revocation?5Url?$AA@ 6107b8e0     libeay32:obj_dat.obj
 0002:000138fc       ??_C@_0BC@IKAPCMGG@nsCaRevocationUrl?$AA@ 6107b8fc     libeay32:obj_dat.obj
 0002:00013910       ??_C@_0BI@BCDINENC@Netscape?5Revocation?5Url?$AA@ 6107b910     libeay32:obj_dat.obj
 0002:00013928       ??_C@_0BA@DKPGPAKK@nsRevocationUrl?$AA@ 6107b928     libeay32:obj_dat.obj
 0002:00013938       ??_C@_0BC@DIHCABP@Netscape?5Base?5Url?$AA@ 6107b938     libeay32:obj_dat.obj
 0002:0001394c       ??_C@_09OCIGDOMM@nsBaseUrl?$AA@ 6107b94c     libeay32:obj_dat.obj
 0002:00013958       ??_C@_0BD@NFPBEMEE@Netscape?5Cert?5Type?$AA@ 6107b958     libeay32:obj_dat.obj
 0002:0001396c       ??_C@_0L@IICLKDNB@nsCertType?$AA@ 6107b96c     libeay32:obj_dat.obj
 0002:00013978       ??_C@_0BA@DDLLDHEM@dsaWithSHA1?9old?$AA@ 6107b978     libeay32:obj_dat.obj
 0002:00013988       ??_C@_0N@ONIKBKNK@DSA?9SHA1?9old?$AA@ 6107b988     libeay32:obj_dat.obj
 0002:00013998       ??_C@_06KBOEGBGA@PBKDF2?$AA@ 6107b998     libeay32:obj_dat.obj
 0002:000139a0       ??_C@_0BG@IBNNJING@pbeWithSHA1AndRC2?9CBC?$AA@ 6107b9a0     libeay32:obj_dat.obj
 0002:000139b8       ??_C@_0BA@KKPEMNGH@PBE?9SHA1?9RC2?964?$AA@ 6107b9b8     libeay32:obj_dat.obj
 0002:000139c8       ??_C@_0BC@FFHHBCCH@dsaEncryption?9old?$AA@ 6107b9c8     libeay32:obj_dat.obj
 0002:000139dc       ??_C@_07PLHLFGGF@DSA?9old?$AA@ 6107b9dc     libeay32:obj_dat.obj
 0002:000139e4       ??_C@_0L@BEHMICBH@dsaWithSHA?$AA@ 6107b9e4     libeay32:obj_dat.obj
 0002:000139f0       ??_C@_07JGDBCPKH@DSA?9SHA?$AA@ 6107b9f0     libeay32:obj_dat.obj
 0002:000139f8       ??_C@_0BG@DALFFFBE@sha1WithRSAEncryption?$AA@ 6107b9f8     libeay32:obj_dat.obj
 0002:00013a10       ??_C@_08FBKDDLCN@RSA?9SHA1?$AA@ 6107ba10     libeay32:obj_dat.obj
 0002:00013a1c       ??_C@_04PGHFOLLE@sha1?$AA@ 6107ba1c     libeay32:obj_dat.obj
 0002:00013a24       ??_C@_04KPMLCNGO@SHA1?$AA@ 6107ba24     libeay32:obj_dat.obj
 0002:00013a2c       ??_C@_0N@LODGAID@des?9ede3?9ofb?$AA@ 6107ba2c     libeay32:obj_dat.obj
 0002:00013a3c       ??_C@_0N@JPPBGLEM@DES?9EDE3?9OFB?$AA@ 6107ba3c     libeay32:obj_dat.obj
 0002:00013a4c       ??_C@_0M@BOHDOFGF@des?9ede?9ofb?$AA@ 6107ba4c     libeay32:obj_dat.obj
 0002:00013a58       ??_C@_0M@PDBPCBBK@DES?9EDE?9OFB?$AA@ 6107ba58     libeay32:obj_dat.obj
 0002:00013a64       ??_C@_0N@EBDFNPDL@des?9ede3?9cfb?$AA@ 6107ba64     libeay32:obj_dat.obj
 0002:00013a74       ??_C@_0N@NFCHNEPE@DES?9EDE3?9CFB?$AA@ 6107ba74     libeay32:obj_dat.obj
 0002:00013a84       ??_C@_0M@FEKFFKNN@des?9ede?9cfb?$AA@ 6107ba84     libeay32:obj_dat.obj
 0002:00013a90       ??_C@_0M@LJMJJOKC@DES?9EDE?9CFB?$AA@ 6107ba90     libeay32:obj_dat.obj
 0002:00013a9c       ??_C@_0BD@JJEILMNP@Netscape?5Data?5Type?$AA@ 6107ba9c     libeay32:obj_dat.obj
 0002:00013ab0       ??_C@_0L@FIMLGGPA@nsDataType?$AA@ 6107bab0     libeay32:obj_dat.obj
 0002:00013abc       ??_C@_0BP@LHPGKGFM@Netscape?5Certificate?5Extension?$AA@ 6107babc     libeay32:obj_dat.obj
 0002:00013adc       ??_C@_09JDCKDNMG@nsCertExt?$AA@ 6107badc     libeay32:obj_dat.obj
 0002:00013ae8       ??_C@_0BO@IAIBEBGO@Netscape?5Communications?5Corp?4?$AA@ 6107bae8     libeay32:obj_dat.obj
 0002:00013b08       ??_C@_08BDEPHMAF@Netscape?$AA@ 6107bb08     libeay32:obj_dat.obj
 0002:00013b14       ??_C@_0BO@LDCCNBPE@extendedCertificateAttributes?$AA@ 6107bb14     libeay32:obj_dat.obj
 0002:00013b34       ??_C@_0BE@MACPCAPF@unstructuredAddress?$AA@ 6107bb34     libeay32:obj_dat.obj
 0002:00013b48       ??_C@_0BC@OKHONEEM@challengePassword?$AA@ 6107bb48     libeay32:obj_dat.obj
 0002:00013b5c       ??_C@_0BB@IPFGMODP@countersignature?$AA@ 6107bb5c     libeay32:obj_dat.obj
 0002:00013b70       ??_C@_0M@IJBJCCMP@signingTime?$AA@ 6107bb70     libeay32:obj_dat.obj
 0002:00013b7c       ??_C@_0O@JDGJDGC@messageDigest?$AA@ 6107bb7c     libeay32:obj_dat.obj
 0002:00013b8c       ??_C@_0M@DOEFOEJD@contentType?$AA@ 6107bb8c     libeay32:obj_dat.obj
 0002:00013b98       ??_C@_0BB@CJIILOEM@unstructuredName?$AA@ 6107bb98     libeay32:obj_dat.obj
 0002:00013bac       ??_C@_0N@IHLBAGEP@emailAddress?$AA@ 6107bbac     libeay32:obj_dat.obj
 0002:00013bbc       ??_C@_05NKFNBGJP@pkcs9?$AA@ 6107bbbc     libeay32:obj_dat.obj
 0002:00013bc4       ??_C@_08OGDEHPAF@idea?9ofb?$AA@ 6107bbc4     libeay32:obj_dat.obj
 0002:00013bd0       ??_C@_08FIFJGOCG@IDEA?9OFB?$AA@ 6107bbd0     libeay32:obj_dat.obj
 0002:00013bdc       ??_C@_07NLMBCAKN@des?9ofb?$AA@ 6107bbdc     libeay32:obj_dat.obj
 0002:00013be4       ??_C@_07OHFNLDCN@DES?9OFB?$AA@ 6107bbe4     libeay32:obj_dat.obj
 0002:00013bec       ??_C@_0N@FPCHEGKG@des?9ede3?9cbc?$AA@ 6107bbec     libeay32:obj_dat.obj
 0002:00013bfc       ??_C@_0N@MLDFENGJ@DES?9EDE3?9CBC?$AA@ 6107bbfc     libeay32:obj_dat.obj
 0002:00013c0c       ??_C@_0M@EKLHMDEA@des?9ede?9cbc?$AA@ 6107bc0c     libeay32:obj_dat.obj
 0002:00013c18       ??_C@_0M@KHNLAHDP@DES?9EDE?9CBC?$AA@ 6107bc18     libeay32:obj_dat.obj
 0002:00013c24       ??_C@_0BF@LIDINENF@shaWithRSAEncryption?$AA@ 6107bc24     libeay32:obj_dat.obj
 0002:00013c3c       ??_C@_07CMOFBHAL@RSA?9SHA?$AA@ 6107bc3c     libeay32:obj_dat.obj
 0002:00013c44       ??_C@_03JNBDOPOP@sha?$AA@  6107bc44     libeay32:obj_dat.obj
 0002:00013c48       ??_C@_03JAOICCJD@SHA?$AA@  6107bc48     libeay32:obj_dat.obj
 0002:00013c4c       ??_C@_07MGMBPEPC@rc2?9ofb?$AA@ 6107bc4c     libeay32:obj_dat.obj
 0002:00013c54       ??_C@_07PNPBGCEE@RC2?9OFB?$AA@ 6107bc54     libeay32:obj_dat.obj
 0002:00013c5c       ??_C@_07IMBHELEK@rc2?9cfb?$AA@ 6107bc5c     libeay32:obj_dat.obj
 0002:00013c64       ??_C@_07LHCHNNPM@RC2?9CFB?$AA@ 6107bc64     libeay32:obj_dat.obj
 0002:00013c6c       ??_C@_07KPLHNGHN@rc2?9ecb?$AA@ 6107bc6c     libeay32:obj_dat.obj
 0002:00013c74       ??_C@_07JEIHEAML@RC2?9ECB?$AA@ 6107bc74     libeay32:obj_dat.obj
 0002:00013c7c       ??_C@_07JCAFNCNH@rc2?9cbc?$AA@ 6107bc7c     libeay32:obj_dat.obj
 0002:00013c84       ??_C@_07KJDFEEGB@RC2?9CBC?$AA@ 6107bc84     libeay32:obj_dat.obj
 0002:00013c8c       ??_C@_08IPECFNIK@idea?9ecb?$AA@ 6107bc8c     libeay32:obj_dat.obj
 0002:00013c98       ??_C@_08DBCPEMKJ@IDEA?9ECB?$AA@ 6107bc98     libeay32:obj_dat.obj
 0002:00013ca4       ??_C@_08KMOCMALN@idea?9cfb?$AA@ 6107bca4     libeay32:obj_dat.obj
 0002:00013cb0       ??_C@_08BCIPNBJO@IDEA?9CFB?$AA@ 6107bcb0     libeay32:obj_dat.obj
 0002:00013cbc       ??_C@_08LCPAFJCA@idea?9cbc?$AA@ 6107bcbc     libeay32:obj_dat.obj
 0002:00013cc8       ??_C@_08MJNEIAD@IDEA?9CBC?$AA@ 6107bcc8     libeay32:obj_dat.obj
 0002:00013cd4       ??_C@_08LJCBLNOK@des?9ede3?$AA@ 6107bcd4     libeay32:obj_dat.obj
 0002:00013ce0       ??_C@_08FEKFKCFJ@DES?9EDE3?$AA@ 6107bce0     libeay32:obj_dat.obj
 0002:00013cec       ??_C@_07PILJICGA@des?9ede?$AA@ 6107bcec     libeay32:obj_dat.obj
 0002:00013cf4       ??_C@_07MECFBBOA@DES?9EDE?$AA@ 6107bcf4     libeay32:obj_dat.obj
 0002:00013cfc       ??_C@_07IPAFAGII@des?9cbc?$AA@ 6107bcfc     libeay32:obj_dat.obj
 0002:00013d04       ??_C@_07LDJJJFAI@DES?9CBC?$AA@ 6107bd04     libeay32:obj_dat.obj
 0002:00013d0c       ??_C@_07JBBHJPBF@des?9cfb?$AA@ 6107bd0c     libeay32:obj_dat.obj
 0002:00013d14       ??_C@_07KNILAMJF@DES?9CFB?$AA@ 6107bd14     libeay32:obj_dat.obj
 0002:00013d1c       ??_C@_07LCLHACCC@des?9ecb?$AA@ 6107bd1c     libeay32:obj_dat.obj
 0002:00013d24       ??_C@_07IOCLJBKC@DES?9ECB?$AA@ 6107bd24     libeay32:obj_dat.obj
 0002:00013d2c       ??_C@_0P@HCMIBBEB@dhKeyAgreement?$AA@ 6107bd2c     libeay32:obj_dat.obj
 0002:00013d3c       ??_C@_05CALCPOBF@pkcs3?$AA@ 6107bd3c     libeay32:obj_dat.obj
 0002:00013d44       ??_C@_0BE@CAMKAFJN@pkcs7?9encryptedData?$AA@ 6107bd44     libeay32:obj_dat.obj
 0002:00013d58       ??_C@_0BB@CJNFBHDI@pkcs7?9digestData?$AA@ 6107bd58     libeay32:obj_dat.obj
 0002:00013d6c       ??_C@_0BN@LMEEMCPG@pkcs7?9signedAndEnvelopedData?$AA@ 6107bd6c     libeay32:obj_dat.obj
 0002:00013d8c       ??_C@_0BE@FAIIHMP@pkcs7?9envelopedData?$AA@ 6107bd8c     libeay32:obj_dat.obj
 0002:00013da0       ??_C@_0BB@PEKKHBEJ@pkcs7?9signedData?$AA@ 6107bda0     libeay32:obj_dat.obj
 0002:00013db4       ??_C@_0L@BCKMJOMA@pkcs7?9data?$AA@ 6107bdb4     libeay32:obj_dat.obj
 0002:00013dc0       ??_C@_05EENODLBB@pkcs7?$AA@ 6107bdc0     libeay32:obj_dat.obj
 0002:00013dc8       ??_C@_03DICHAJGH@RSA?$AA@  6107bdc8     libeay32:obj_dat.obj
 0002:00013dcc       ??_C@_0BH@LAMMAAM@organizationalUnitName?$AA@ 6107bdcc     libeay32:obj_dat.obj
 0002:00013de4       ??_C@_02LMLEEFAB@OU?$AA@   6107bde4     libeay32:obj_dat.obj
 0002:00013de8       ??_C@_0BB@GBCNPHLL@organizationName?$AA@ 6107bde8     libeay32:obj_dat.obj
 0002:00013dfc       ??_C@_01MJMHLOMK@O?$AA@    6107bdfc     libeay32:obj_dat.obj
 0002:00013e00       ??_C@_0BE@NKDCJFMD@stateOrProvinceName?$AA@ 6107be00     libeay32:obj_dat.obj
 0002:00013e14       ??_C@_02LAJDCOFE@ST?$AA@   6107be14     libeay32:obj_dat.obj
 0002:00013e18       ??_C@_0N@LEDCGGBI@localityName?$AA@ 6107be18     libeay32:obj_dat.obj
 0002:00013e28       ??_C@_01OCOKONAJ@L?$AA@    6107be28     libeay32:obj_dat.obj
 0002:00013e2c       ??_C@_0M@NPBHECMC@countryName?$AA@ 6107be2c     libeay32:obj_dat.obj
 0002:00013e38       ??_C@_01GFHCPBMG@C?$AA@    6107be38     libeay32:obj_dat.obj
 0002:00013e3c       ??_C@_0L@OILMNBLH@commonName?$AA@ 6107be3c     libeay32:obj_dat.obj
 0002:00013e48       ??_C@_02BMJIHHPP@CN?$AA@   6107be48     libeay32:obj_dat.obj
 0002:00013e4c       ??_C@_04NMKEOMFB@X509?$AA@ 6107be4c     libeay32:obj_dat.obj
 0002:00013e54       ??_C@_0BL@NJHHPHOL@directory?5services?5?$CIX?4500?$CJ?$AA@ 6107be54     libeay32:obj_dat.obj
 0002:00013e70       ??_C@_04NGGFHBI@X500?$AA@  6107be70     libeay32:obj_dat.obj
 0002:00013e78       ??_C@_0BF@DAJHPIMK@pbeWithMD5AndDES?9CBC?$AA@ 6107be78     libeay32:obj_dat.obj
 0002:00013e90       ??_C@_0M@KBNDBPIJ@PBE?9MD5?9DES?$AA@ 6107be90     libeay32:obj_dat.obj
 0002:00013e9c       ??_C@_0BF@EEAPBBEF@pbeWithMD2AndDES?9CBC?$AA@ 6107be9c     libeay32:obj_dat.obj
 0002:00013eb4       ??_C@_0M@LMNGCPDB@PBE?9MD2?9DES?$AA@ 6107beb4     libeay32:obj_dat.obj
 0002:00013ec0       ??_C@_0BF@EEAHCNKC@md5WithRSAEncryption?$AA@ 6107bec0     libeay32:obj_dat.obj
 0002:00013ed8       ??_C@_07NOGKHCDB@RSA?9MD5?$AA@ 6107bed8     libeay32:obj_dat.obj
 0002:00013ee0       ??_C@_0BF@ODJKGOJ@md2WithRSAEncryption?$AA@ 6107bee0     libeay32:obj_dat.obj
 0002:00013ef8       ??_C@_07JBCLOEPG@RSA?9MD2?$AA@ 6107bef8     libeay32:obj_dat.obj
 0002:00013f00       ??_C@_0O@PCHNMHJE@rsaEncryption?$AA@ 6107bf00     libeay32:obj_dat.obj
 0002:00013f10       ??_C@_03OODGMOHK@rc4?$AA@  6107bf10     libeay32:obj_dat.obj
 0002:00013f14       ??_C@_03HGEJCHKE@RC4?$AA@  6107bf14     libeay32:obj_dat.obj
 0002:00013f18       ??_C@_03PKBIKOHH@md5?$AA@  6107bf18     libeay32:obj_dat.obj
 0002:00013f1c       ??_C@_03GCGHEHKJ@MD5?$AA@  6107bf1c     libeay32:obj_dat.obj
 0002:00013f20       ??_C@_03LFFJDILA@md2?$AA@  6107bf20     libeay32:obj_dat.obj
 0002:00013f24       ??_C@_03CNCGNBGO@MD2?$AA@  6107bf24     libeay32:obj_dat.obj
 0002:00013f28       ??_C@_0BN@EBHJCEC@RSA?5Data?5Security?0?5Inc?4?5PKCS?$AA@ 6107bf28     libeay32:obj_dat.obj
 0002:00013f48       ??_C@_04GCKLMHGD@pkcs?$AA@ 6107bf48     libeay32:obj_dat.obj
 0002:00013f50       ??_C@_0BI@MPBNCOIB@RSA?5Data?5Security?0?5Inc?4?$AA@ 6107bf50     libeay32:obj_dat.obj
 0002:00013f68       ??_C@_06GGEMKGKC@rsadsi?$AA@ 6107bf68     libeay32:obj_dat.obj
 0002:00013f70       ??_C@_09MLGAJAED@undefined?$AA@ 6107bf70     libeay32:obj_dat.obj
 0002:00013f7c       ??_C@_05DBLJEJPC@UNDEF?$AA@ 6107bf7c     libeay32:obj_dat.obj
 0002:00013f84       ??_C@_0BH@ENNIJDED@?4?2crypto?2lhash?2lhash?4c?$AA@ 6107bf84     libeay32:lhash.obj
 0002:00013f9c       ??_C@_0BD@KJPFNPNE@?4?2crypto?2mem_dbg?4c?$AA@ 6107bf9c     libeay32:mem_dbg.obj
 0002:00013fb0       ??_C@_01JOAMLHOP@?9?$AA@   6107bfb0     libeay32:bn_print.obj
 0002:00013fb4       ??_C@_0N@JAGKAFD@FILE?5pointer?$AA@ 6107bfb4     libeay32:bss_file.obj
 0002:00013fc4       ??_C@_0BI@EHMCOOOG@?4?2crypto?2bio?2bss_file?4c?$AA@ 6107bfc4     libeay32:bss_file.obj
 0002:00013fdc       ??_C@_02HJPKOJGD@?8?$CJ?$AA@ 6107bfdc     libeay32:bss_file.obj
 0002:00013fe0       ??_C@_03IMMLKIF@?8?0?8?$AA@ 6107bfe0     libeay32:bss_file.obj
 0002:00013fe4       ??_C@_07JMDFGFFH@fopen?$CI?8?$AA@ 6107bfe4     libeay32:bss_file.obj
 0002:00013fec       ??_C@_02DPNLHKJD@a?$CL?$AA@ 6107bfec     libeay32:bss_file.obj
 0002:00013ff0       ??_C@_01MCMALHOG@a?$AA@    6107bff0     libeay32:bss_file.obj
 0002:00013ff4       ??_C@_02CBLLGHLK@r?$CL?$AA@ 6107bff4     libeay32:bss_file.obj
 0002:00013ff8       ??_C@_01NOFIACDB@w?$AA@    6107bff8     libeay32:bss_file.obj
 0002:00013ffc       ??_C@_01KDCPPGHE@r?$AA@    6107bffc     libeay32:bss_file.obj
 0002:00014000       ??_C@_01OJONOECF@b?$AA@    6107c000     libeay32:bss_file.obj
 0002:00014004       ??_C@_01PFHFFBPC@t?$AA@    6107c004     libeay32:bss_file.obj
 0002:00014008       ??_C@_0BD@BACHDDOD@?4?2crypto?2ex_data?4c?$AA@ 6107c008     libeay32:ex_data.obj
 0002:00014020       __real@3fe0000000000000    6107c020      CIL library: CIL module
 0002:00014028       __real@41f0000000000000    6107c028      CIL library: CIL module
 0002:00014030       __real@404e000000000000    6107c030      CIL library: CIL module
 0002:00014038       __real@4059000000000000    6107c038      CIL library: CIL module
 0002:00014040       __pDestructExceptionObject 6107c040     LIBCMT:frame.obj
 0002:00014048       ??_7bad_exception@std@@6B@ 6107c048     LIBCMT:frame.obj
 0002:00014050       ??_C@_0O@DPKOEFFH@bad?5exception?$AA@ 6107c050     LIBCMT:frame.obj
 0002:00014060       __load_config_used         6107c060     LIBCMT:loadcfg.obj
 0002:000140f4       ??_R4logic_error@std@@6B@  6107c0f4     libcpmt:xthrow.obj
 0002:00014108       ??_R3logic_error@std@@8    6107c108     libcpmt:xthrow.obj
 0002:00014118       ??_R2logic_error@std@@8    6107c118     libcpmt:xthrow.obj
 0002:00014124       ??_R1A@?0A@EA@logic_error@std@@8 6107c124     libcpmt:xthrow.obj
 0002:00014140       ??_R4length_error@std@@6B@ 6107c140     libcpmt:xthrow.obj
 0002:00014154       ??_R3length_error@std@@8   6107c154     libcpmt:xthrow.obj
 0002:00014164       ??_R2length_error@std@@8   6107c164     libcpmt:xthrow.obj
 0002:00014174       ??_R1A@?0A@EA@length_error@std@@8 6107c174     libcpmt:xthrow.obj
 0002:00014190       ??_R4out_of_range@std@@6B@ 6107c190     libcpmt:xthrow.obj
 0002:000141a4       ??_R3out_of_range@std@@8   6107c1a4     libcpmt:xthrow.obj
 0002:000141b4       ??_R2out_of_range@std@@8   6107c1b4     libcpmt:xthrow.obj
 0002:000141c4       ??_R1A@?0A@EA@out_of_range@std@@8 6107c1c4     libcpmt:xthrow.obj
 0002:000141e0       ??_R4exception@std@@6B@    6107c1e0     LIBCMT:stdexcpt.obj
 0002:000141f4       ??_R4type_info@@6B@        6107c1f4     LIBCMT:typinfo.obj
 0002:00014208       ??_R3type_info@@8          6107c208     LIBCMT:typinfo.obj
 0002:00014218       ??_R2type_info@@8          6107c218     LIBCMT:typinfo.obj
 0002:00014220       ??_R1A@?0A@EA@type_info@@8 6107c220     LIBCMT:typinfo.obj
 0002:0001423c       ??_R4bad_alloc@std@@6B@    6107c23c     main.obj
 0002:00014250       ??_R3bad_alloc@std@@8      6107c250     main.obj
 0002:00014260       ??_R2bad_alloc@std@@8      6107c260     main.obj
 0002:0001426c       ??_R1A@?0A@EA@exception@std@@8 6107c26c     main.obj
 0002:00014288       ??_R3exception@std@@8      6107c288     main.obj
 0002:00014298       ??_R2exception@std@@8      6107c298     main.obj
 0002:000142a0       ??_R1A@?0A@EA@bad_alloc@std@@8 6107c2a0     main.obj
 0002:000142bc       ??_R4SystemError@@6B@      6107c2bc     main.obj
 0002:000142d0       ??_R3SystemError@@8        6107c2d0     main.obj
 0002:000142e0       ??_R2SystemError@@8        6107c2e0     main.obj
 0002:000142ec       ??_R1A@?0A@EA@SystemError@@8 6107c2ec     main.obj
 0002:00014308       ??_R4MsgError@@6B@         6107c308     main.obj
 0002:0001431c       ??_R3MsgError@@8           6107c31c     main.obj
 0002:0001432c       ??_R2MsgError@@8           6107c32c     main.obj
 0002:00014338       ??_R1A@?0A@EA@MsgError@@8  6107c338     main.obj
 0002:00014354       ??_R4Error@@6B@            6107c354     main.obj
 0002:00014368       ??_R3Error@@8              6107c368     main.obj
 0002:00014378       ??_R2Error@@8              6107c378     main.obj
 0002:00014380       ??_R1A@?0A@EA@Error@@8     6107c380     main.obj
 0002:0001439c       ??_R4EstimationProgress@@6B@ 6107c39c     content.obj
 0002:000143b0       ??_R3EstimationProgress@@8 6107c3b0     content.obj
 0002:000143c0       ??_R2EstimationProgress@@8 6107c3c0     content.obj
 0002:000143cc       ??_R1A@?0A@EA@EstimationProgress@@8 6107c3cc     content.obj
 0002:000143e8       ??_R4CompressFilesProgress@@6B@ 6107c3e8     content.obj
 0002:000143fc       ??_R3CompressFilesProgress@@8 6107c3fc     content.obj
 0002:0001440c       ??_R2CompressFilesProgress@@8 6107c40c     content.obj
 0002:00014418       ??_R1A@?0A@EA@CompressFilesProgress@@8 6107c418     content.obj
 0002:00014434       ??_R4ProcessFileProgress@@6B@ 6107c434     content.obj
 0002:00014448       ??_R3ProcessFileProgress@@8 6107c448     content.obj
 0002:00014458       ??_R2ProcessFileProgress@@8 6107c458     content.obj
 0002:00014464       ??_R1A@?0A@EA@ProgressMonitor@@8 6107c464     content.obj
 0002:00014480       ??_R3ProgressMonitor@@8    6107c480     content.obj
 0002:00014490       ??_R2ProgressMonitor@@8    6107c490     content.obj
 0002:00014498       ??_R1A@?0A@EA@ProcessFileProgress@@8 6107c498     content.obj
 0002:000144b4       ??_R4LzoError@@6B@         6107c4b4     content.obj
 0002:000144c8       ??_R3LzoError@@8           6107c4c8     content.obj
 0002:000144d8       ??_R2LzoError@@8           6107c4d8     content.obj
 0002:000144e4       ??_R1A@?0A@EA@LzoError@@8  6107c4e4     content.obj
 0002:00014500       ??_R4FileListProgress@@6B@ 6107c500     file_panel.obj
 0002:00014514       ??_R3FileListProgress@@8   6107c514     file_panel.obj
 0002:00014524       ??_R2FileListProgress@@8   6107c524     file_panel.obj
 0002:00014530       ??_R1A@?0A@EA@FileListProgress@@8 6107c530     file_panel.obj
 0002:0001454c       ??_R4ProgressMonitor@@6B@  6107c54c     utils.obj
 0002:00014560       ??_R4DefragProgress@@6BIDefragProgress@@@ 6107c560     defragment.obj
 0002:00014574       ??_R4DefragProgress@@6BProgressMonitor@@@ 6107c574     defragment.obj
 0002:00014588       ??_R3DefragProgress@@8     6107c588     defragment.obj
 0002:00014598       ??_R2DefragProgress@@8     6107c598     defragment.obj
 0002:000145a8       ??_R1DA@?0A@EA@IDefragProgress@@8 6107c5a8     defragment.obj
 0002:000145c4       ??_R1A@?0A@EA@DefragProgress@@8 6107c5c4     defragment.obj
 0002:000145e0       ??_R4IDefragProgress@@6B@  6107c5e0     defragment.obj
 0002:000145f4       ??_R3IDefragProgress@@8    6107c5f4     defragment.obj
 0002:00014604       ??_R2IDefragProgress@@8    6107c604     defragment.obj
 0002:0001460c       ??_R1A@?0A@EA@IDefragProgress@@8 6107c60c     defragment.obj
 0002:00014628       ??_R4Progress@?1??load_mft_index@FilePanel@@AAEXXZ@6B@ 6107c628     mftindex.obj
 0002:0001463c       ??_R3Progress@?1??load_mft_index@FilePanel@@AAEXXZ@8 6107c63c     mftindex.obj
 0002:0001464c       ??_R2Progress@?1??load_mft_index@FilePanel@@AAEXXZ@8 6107c64c     mftindex.obj
 0002:00014658       ??_R1A@?0A@EA@Progress@?1??load_mft_index@FilePanel@@AAEXXZ@8 6107c658     mftindex.obj
 0002:00014674       ??_R4Progress@?3??store_mft_index@FilePanel@@AAEXXZ@6B@ 6107c674     mftindex.obj
 0002:00014688       ??_R3Progress@?3??store_mft_index@FilePanel@@AAEXXZ@8 6107c688     mftindex.obj
 0002:00014698       ??_R2Progress@?3??store_mft_index@FilePanel@@AAEXXZ@8 6107c698     mftindex.obj
 0002:000146a4       ??_R1A@?0A@EA@Progress@?3??store_mft_index@FilePanel@@AAEXXZ@8 6107c6a4     mftindex.obj
 0002:000146c0       ??_R4Progress@?1??update_mft_index_from_usn@FilePanel@@AAEXXZ@6B@ 6107c6c0     mftindex.obj
 0002:000146d4       ??_R3Progress@?1??update_mft_index_from_usn@FilePanel@@AAEXXZ@8 6107c6d4     mftindex.obj
 0002:000146e4       ??_R2Progress@?1??update_mft_index_from_usn@FilePanel@@AAEXXZ@8 6107c6e4     mftindex.obj
 0002:000146f0       ??_R1A@?0A@EA@Progress@?1??update_mft_index_from_usn@FilePanel@@AAEXXZ@8 6107c6f0     mftindex.obj
 0002:0001470c       ??_R4VolumeListProgress@?1??create_mft_index@FilePanel@@AAEXXZ@6B@ 6107c70c     mftindex.obj
 0002:00014720       ??_R3VolumeListProgress@?1??create_mft_index@FilePanel@@AAEXXZ@8 6107c720     mftindex.obj
 0002:00014730       ??_R2VolumeListProgress@?1??create_mft_index@FilePanel@@AAEXXZ@8 6107c730     mftindex.obj
 0002:0001473c       ??_R1A@?0A@EA@VolumeListProgress@?1??create_mft_index@FilePanel@@AAEXXZ@8 6107c73c     mftindex.obj
 0002:00014758       ??_R4CompressFiles@@6BIDefragProgress@@@ 6107c758     compress_files.obj
 0002:0001476c       ??_R4CompressFiles@@6BProgressMonitor@@@ 6107c76c     compress_files.obj
 0002:00014780       ??_R3CompressFiles@@8      6107c780     compress_files.obj
 0002:00014790       ??_R2CompressFiles@@8      6107c790     compress_files.obj
 0002:000147a4       ??_R1A@?0A@EN@ProgressMonitor@@8 6107c7a4     compress_files.obj
 0002:000147c0       ??_R1FA@?0A@EN@NonCopyable@@8 6107c7c0     compress_files.obj
 0002:000147dc       ??_R1A@?0A@EA@CompressFiles@@8 6107c7dc     compress_files.obj
 0002:000147f8       ??_R4CriticalSection@@6B@  6107c7f8     compress_files.obj
 0002:0001480c       ??_R3CriticalSection@@8    6107c80c     compress_files.obj
 0002:0001481c       ??_R2CriticalSection@@8    6107c81c     compress_files.obj
 0002:0001482c       ??_R13?0A@EN@_RTL_CRITICAL_SECTION@@8 6107c82c     compress_files.obj
 0002:00014848       ??_R3_RTL_CRITICAL_SECTION@@8 6107c848     compress_files.obj
 0002:00014858       ??_R2_RTL_CRITICAL_SECTION@@8 6107c858     compress_files.obj
 0002:00014860       ??_R1A@?0A@EA@_RTL_CRITICAL_SECTION@@8 6107c860     compress_files.obj
 0002:0001487c       ??_R13?0A@EN@NonCopyable@@8 6107c87c     compress_files.obj
 0002:00014898       ??_R3NonCopyable@@8        6107c898     compress_files.obj
 0002:000148a8       ??_R2NonCopyable@@8        6107c8a8     compress_files.obj
 0002:000148b0       ??_R1A@?0A@EA@NonCopyable@@8 6107c8b0     compress_files.obj
 0002:000148cc       ??_R1A@?0A@EA@CriticalSection@@8 6107c8cc     compress_files.obj
 0002:000148e8       ??_R4bad_exception@std@@6B@ 6107c8e8     LIBCMT:frame.obj
 0002:000148fc       ??_R3bad_exception@std@@8  6107c8fc     LIBCMT:frame.obj
 0002:0001490c       ??_R2bad_exception@std@@8  6107c90c     LIBCMT:frame.obj
 0002:00014918       ??_R1A@?0A@EA@bad_exception@std@@8 6107c918     LIBCMT:frame.obj
 0002:00014940       ___safe_se_handler_table   6107c940     <linker-defined>
 0002:00014c84       ___rtc_iaa                 6107cc84     LIBCMT:_initsect_.obj
 0002:00014c88       ___rtc_izz                 6107cc88     LIBCMT:_initsect_.obj
 0002:00014c8c       ___rtc_taa                 6107cc8c     LIBCMT:_initsect_.obj
 0002:00014c90       ___rtc_tzz                 6107cc90     LIBCMT:_initsect_.obj
 0002:00014c98       __TI1?AV_com_error@@       6107cc98     comsuppw:comraise.obj
 0002:00014ca8       __CTA1?AV_com_error@@      6107cca8     comsuppw:comraise.obj
 0002:00014cb0       __CT??_R0?AV_com_error@@@8??0_com_error@@QAE@ABV0@@Z16 6107ccb0     comsuppw:comraise.obj
 0002:00014ccc       __CT??_R0?AVlogic_error@std@@@8??0logic_error@std@@QAE@ABV01@@Z12 6107cccc     libcpmt:xthrow.obj
 0002:00014ce8       __TI3?AVlength_error@std@@ 6107cce8     libcpmt:xthrow.obj
 0002:00014cf8       __CTA3?AVlength_error@std@@ 6107ccf8     libcpmt:xthrow.obj
 0002:00014d08       __CT??_R0?AVlength_error@std@@@8??0length_error@std@@QAE@ABV01@@Z12 6107cd08     libcpmt:xthrow.obj
 0002:00014d24       __TI3?AVout_of_range@std@@ 6107cd24     libcpmt:xthrow.obj
 0002:00014d34       __CTA3?AVout_of_range@std@@ 6107cd34     libcpmt:xthrow.obj
 0002:00014d44       __CT??_R0?AVout_of_range@std@@@8??0out_of_range@std@@QAE@ABV01@@Z12 6107cd44     libcpmt:xthrow.obj
 0002:000152bc       __CT??_R0?AVSystemError@@@8??0SystemError@@QAE@ABV0@@Z16 6107d2bc     main.obj
 0002:000152d8       __CT??_R0?AVError@@@8??0Error@@QAE@ABV0@@Z12 6107d2d8     main.obj
 0002:000152f4       __CTA2?AVSystemError@@     6107d2f4     main.obj
 0002:00015300       __TI2?AVSystemError@@      6107d300     main.obj
 0002:00015310       __CT??_R0?AVMsgError@@@8??0MsgError@@QAE@ABV0@@Z16 6107d310     main.obj
 0002:0001532c       __CTA2?AVMsgError@@        6107d32c     main.obj
 0002:00015338       __TI2?AVMsgError@@         6107d338     main.obj
 0002:00015348       __CT??_R0?AVBreak@@@81     6107d348     main.obj
 0002:00015364       __CTA1?AVBreak@@           6107d364     main.obj
 0002:0001536c       __TI1?AVBreak@@            6107d36c     main.obj
 0002:0001537c       __CT??_R0?AVexception@std@@@8??0exception@std@@QAE@ABV01@@Z12 6107d37c     main.obj
 0002:00015398       __CT??_R0?AVbad_alloc@std@@@8??0bad_alloc@std@@QAE@ABV01@@Z12 6107d398     main.obj
 0002:000153b4       __CTA2?AVbad_alloc@std@@   6107d3b4     main.obj
 0002:000153c0       __TI2?AVbad_alloc@std@@    6107d3c0     main.obj
 0002:000153d0       __CT??_R0?AVLzoError@@@8??0LzoError@@QAE@ABV0@@Z16 6107d3d0     content.obj
 0002:000153ec       __CTA2?AVLzoError@@        6107d3ec     content.obj
 0002:000153f8       __TI2?AVLzoError@@         6107d3f8     content.obj
 0002:0001deac       __TI2?AVbad_exception@std@@ 61085eac     LIBCMT:frame.obj
 0002:0001debc       __CTA2?AVbad_exception@std@@ 61085ebc     LIBCMT:frame.obj
 0002:0001dec8       __CT??_R0?AVbad_exception@std@@@8??0bad_exception@std@@QAE@ABV01@@Z12 61085ec8     LIBCMT:frame.obj
 0002:0001dee4       __IMPORT_DESCRIPTOR_VERSION 61085ee4     version:VERSION.dll
 0002:0001def8       __IMPORT_DESCRIPTOR_imagehlp 61085ef8     imagehlp:imagehlp.dll
 0002:0001df0c       __IMPORT_DESCRIPTOR_CRYPT32 61085f0c     crypt32:CRYPT32.dll
 0002:0001df20       __IMPORT_DESCRIPTOR_WINTRUST 61085f20     wintrust:WINTRUST.dll
 0002:0001df34       __IMPORT_DESCRIPTOR_ole32  61085f34     ole32:ole32.dll
 0002:0001df48       __IMPORT_DESCRIPTOR_KERNEL32 61085f48     kernel32:KERNEL32.dll
 0002:0001df5c       __NULL_IMPORT_DESCRIPTOR   61085f5c     advapi32:ADVAPI32.dll
 0003:00000000       ?__errorPfn@@3P6GXJPAUIErrorInfo@@@ZA 61087000     comsuppw:comsupp.obj
 0003:00000004       ??_R0?AV_com_error@@@8     61087004     comsuppw:comraise.obj
 0003:00000020       ??_R0?AVlogic_error@std@@@8 61087020     libcpmt:xthrow.obj
 0003:00000040       ??_R0?AVlength_error@std@@@8 61087040     libcpmt:xthrow.obj
 0003:00000060       ??_R0?AVout_of_range@std@@@8 61087060     libcpmt:xthrow.obj
 0003:00000080       ??_R0?AVtype_info@@@8      61087080     LIBCMT:typinfo.obj
 0003:000000a0       __iob                      610870a0     LIBCMT:_file.obj
 0003:00000490       ___security_cookie         61087490     LIBCMT:gs_cookie.obj
 0003:00000494       ___security_cookie_complement 61087494     LIBCMT:gs_cookie.obj
 0003:00000498       __fltused                  61087498     LIBCMT:_fpinit_.obj
 0003:0000049c       __ldused                   6108749c     LIBCMT:_fpinit_.obj
 0003:000004a0       ___flsindex                610874a0     LIBCMT:tidtable.obj
 0003:000004a4       ___getvalueindex           610874a4     LIBCMT:tidtable.obj
 0003:000004a8       ___abort_behavior          610874a8     LIBCMT:abort.obj
 0003:000004b0       ___initialmbcinfo          610874b0     LIBCMT:mbctype.obj
 0003:000006d0       __mbctype                  610876d0     LIBCMT:mbctype.obj
 0003:000007d8       __mbcasemap                610877d8     LIBCMT:mbctype.obj
 0003:000008d8       ___ptmbcinfo               610878d8     LIBCMT:mbctype.obj
 0003:000009d0       ___globallocalestatus      610879d0     LIBCMT:glstatus.obj
 0003:000009d4       ___clocalestr              610879d4     LIBCMT:nlsdata2.obj
 0003:000009d8       ___lc_time_c               610879d8     LIBCMT:nlsdata2.obj
 0003:00000b40       ___initiallocinfo          61087b40     LIBCMT:nlsdata2.obj
 0003:00000c18       ___ptlocinfo               61087c18     LIBCMT:nlsdata2.obj
 0003:00000c1c       ___initiallocalestructinfo 61087c1c     LIBCMT:nlsdata2.obj
 0003:00000c30       ___badioinfo               61087c30     LIBCMT:ioinit.obj
 0003:00000d90       __cfltcvt_tab              61087d90     LIBCMT:cmiscdat.obj
 0003:00000db8       ___nullstring              61087db8     LIBCMT:output.obj
 0003:00000dbc       ___wnullstring             61087dbc     LIBCMT:output.obj
 0003:00000dc0       __sys_errlist              61087dc0     LIBCMT:syserr.obj
 0003:00000e70       __sys_nerr                 61087e70     LIBCMT:syserr.obj
 0003:00000e90       __timezone                 61087e90     LIBCMT:timeset.obj
 0003:00000e94       __daylight                 61087e94     LIBCMT:timeset.obj
 0003:00000e98       __dstbias                  61087e98     LIBCMT:timeset.obj
 0003:00000f20       __tzname                   61087f20     LIBCMT:timeset.obj
 0003:00000f30       __lookuptrailbytes         61087f30     LIBCMT:read.obj
 0003:00001030       ___lconv_static_decimal    61088030     LIBCMT:lconv.obj
 0003:00001034       ___lconv_static_W_decimal  61088034     LIBCMT:lconv.obj
 0003:00001038       ___lconv_c                 61088038     LIBCMT:lconv.obj
 0003:00001088       ___lconv                   61088088     LIBCMT:lconv.obj
 0003:0000108c       __pctype                   6108808c     LIBCMT:ctype.obj
 0003:00001090       __pwctype                  61088090     LIBCMT:ctype.obj
 0003:00001094       ___mb_cur_max              61088094     LIBCMT:nlsdata1.obj
 0003:00001098       ___decimal_point           61088098     LIBCMT:nlsdata1.obj
 0003:0000109c       ___decimal_point_length    6108809c     LIBCMT:nlsdata1.obj
 0003:000010a0       __lpdays                   610880a0     LIBCMT:days.obj
 0003:000010d4       __days                     610880d4     LIBCMT:days.obj
 0003:00001110       __NLG_Destination          61088110     LIBCMT:exsup.obj
 0003:00001120       __confh                    61088120     LIBCMT:initcon.obj
 0003:00001160       __pow10pos                 61088160     LIBCMT:_constpow_.obj
 0003:000012c0       __pow10neg                 610882c0     LIBCMT:_constpow_.obj
 0003:00001438       ??_R0?AVSystemError@@@8    61088438     main.obj
 0003:00001454       ??_R0?AVError@@@8          61088454     main.obj
 0003:00001468       ??_R0?AVMsgError@@@8       61088468     main.obj
 0003:0000175c       ?c_command_prefix@@3PB_WB  6108875c     main.obj
 0003:00001760       ?g_compress_files_params@@3UCompressFilesParams@@A 61088760     compress_files.obj
 0003:00001768       ??_R0?AVBreak@@@8          61088768     main.obj
 0003:0000177c       ??_R0?AVexception@std@@@8  6108877c     main.obj
 0003:00001798       ??_R0?AVbad_alloc@std@@@8  61088798     main.obj
 0003:000017b4       ??_R0?AVEstimationProgress@@@8 610887b4     content.obj
 0003:000017d8       ??_R0?AVCompressFilesProgress@@@8 610887d8     content.obj
 0003:000017fc       ??_R0?AVProgressMonitor@@@8 610887fc     content.obj
 0003:0000181c       ??_R0?AVProcessFileProgress@@@8 6108881c     content.obj
 0003:00001840       ??_R0?AVLzoError@@@8       61088840     content.obj
 0003:00001858       ??_R0?AVFileListProgress@@@8 61088858     file_panel.obj
 0003:00001878       ??_R0?AVDefragProgress@@@8 61088878     defragment.obj
 0003:00001898       ??_R0?AVIDefragProgress@@@8 61088898     defragment.obj
 0003:000018b8       ??_R0?AVProgress@?1??load_mft_index@FilePanel@@AAEXXZ@@8 610888b8     mftindex.obj
 0003:000018f4       ??_R0?AVProgress@?3??store_mft_index@FilePanel@@AAEXXZ@@8 610888f4     mftindex.obj
 0003:00001930       ??_R0?AVProgress@?1??update_mft_index_from_usn@FilePanel@@AAEXXZ@@8 61088930     mftindex.obj
 0003:00001978       ??_R0?AVVolumeListProgress@?1??create_mft_index@FilePanel@@AAEXXZ@@8 61088978     mftindex.obj
 0003:000019c0       ??_R0?AUCompressFiles@@@8  610889c0     compress_files.obj
 0003:000019dc       ??_R0?AU_RTL_CRITICAL_SECTION@@@8 610889dc     compress_files.obj
 0003:00001a00       ??_R0?AVNonCopyable@@@8    61088a00     compress_files.obj
 0003:00001a1c       ??_R0?AVCriticalSection@@@8 61088a1c     compress_files.obj
 0003:00001a40       ??_R0?AVbad_exception@std@@@8 61088a40     LIBCMT:frame.obj
 0003:00001a70       __crtheap                  61088a70     LIBCMT:heapinit.obj
 0003:00001a78       __aenvptr                  61088a78     LIBCMT:dllcrt0.obj
 0003:00001a7c       __wenvptr                  61088a7c     LIBCMT:dllcrt0.obj
 0003:00001a80       ___error_mode              61088a80     LIBCMT:dllcrt0.obj
 0003:00001a84       ___app_type                61088a84     LIBCMT:dllcrt0.obj
 0003:00001a9c       __cflush                   61088a9c     LIBCMT:_file.obj
 0003:00001aa0       __umaskval                 61088aa0     LIBCMT:crt0dat.obj
 0003:00001aa4       ___argc                    61088aa4     LIBCMT:crt0dat.obj
 0003:00001aa8       ___argv                    61088aa8     LIBCMT:crt0dat.obj
 0003:00001aac       ___wargv                   61088aac     LIBCMT:crt0dat.obj
 0003:00001ab0       __environ                  61088ab0     LIBCMT:crt0dat.obj
 0003:00001ab4       ___initenv                 61088ab4     LIBCMT:crt0dat.obj
 0003:00001ab8       __wenviron                 61088ab8     LIBCMT:crt0dat.obj
 0003:00001abc       ___winitenv                61088abc     LIBCMT:crt0dat.obj
 0003:00001ac0       __pgmptr                   61088ac0     LIBCMT:crt0dat.obj
 0003:00001ac4       __wpgmptr                  61088ac4     LIBCMT:crt0dat.obj
 0003:00001ac8       __exitflag                 61088ac8     LIBCMT:crt0dat.obj
 0003:00001acc       __C_Termination_Done       61088acc     LIBCMT:crt0dat.obj
 0003:00001ad0       __C_Exit_Done              61088ad0     LIBCMT:crt0dat.obj
 0003:00001ad4       ___fastflag                61088ad4     LIBCMT:_fpinit_.obj
 0003:00002430       ?_pnhHeap@@3P6AHI@ZA       61089430     LIBCMT:handler.obj
 0003:00002434       __newmode                  61089434     LIBCMT:_newmode.obj
 0003:00002438       __maxwait                  61089438     LIBCMT:crtheap.obj
 0003:0000243c       _gpFlsAlloc                6108943c     LIBCMT:tidtable.obj
 0003:00002440       _gpFlsGetValue             61089440     LIBCMT:tidtable.obj
 0003:00002444       _gpFlsSetValue             61089444     LIBCMT:tidtable.obj
 0003:00002448       _gpFlsFree                 61089448     LIBCMT:tidtable.obj
 0003:0000244c       ___pInvalidArgHandler      6108944c     LIBCMT:invarg.obj
 0003:00002450       ___pPurecall               61089450     LIBCMT:inithelp.obj
 0003:00002458       ___mbulinfo                61089458     LIBCMT:mbctype.obj
 0003:00002464       ___mbcodepage              61089464     LIBCMT:mbctype.obj
 0003:00002468       ___ismbcodepage            61089468     LIBCMT:mbctype.obj
 0003:0000246c       ___mblcid                  6108946c     LIBCMT:mbctype.obj
 0003:00002470       ___locale_changed          61089470     LIBCMT:setlocal.obj
 0003:00002474       ?__pInconsistency@@3P6AXXZA 61089474     LIBCMT:hooks.obj
 0003:000026d4       __stdbuf                   610896d4     LIBCMT:_sftbuf.obj
 0003:00002798       __fmode                    61089798     LIBCMT:txtmode.obj
 0003:000027b0       ?pArgList@UnDecorator@@0PAVReplicator@@A 610897b0     LIBCMT:undname.obj
 0003:000027b4       ?pZNameList@UnDecorator@@0PAVReplicator@@A 610897b4     LIBCMT:undname.obj
 0003:000027b8       ?pTemplateArgList@UnDecorator@@0PAVReplicator@@A 610897b8     LIBCMT:undname.obj
 0003:000027bc       ?gName@UnDecorator@@0PBDB  610897bc     LIBCMT:undname.obj
 0003:000027c0       ?name@UnDecorator@@0PBDB   610897c0     LIBCMT:undname.obj
 0003:000027c4       ?outputString@UnDecorator@@0PADA 610897c4     LIBCMT:undname.obj
 0003:000027c8       ?maxStringLength@UnDecorator@@0HA 610897c8     LIBCMT:undname.obj
 0003:000027cc       ?disableFlags@UnDecorator@@0KA 610897cc     LIBCMT:undname.obj
 0003:000027d0       ?m_pGetParameter@UnDecorator@@0P6APADJ@ZA 610897d0     LIBCMT:undname.obj
 0003:000027d4       ?fExplicitTemplateParams@UnDecorator@@0_NA 610897d4     LIBCMT:undname.obj
 0003:000027d5       ?fGetTemplateArgumentList@UnDecorator@@0_NA 610897d5     LIBCMT:undname.obj
 0003:000027ec       ___lconv_static_null       610897ec     LIBCMT:lconv.obj
 0003:000027f0       ___lconv_static_W_null     610897f0     LIBCMT:lconv.obj
 0003:000027f8       __commode                  610897f8     LIBCMT:ncommode.obj
 0003:000027fc       __outputformat             610897fc     LIBCMT:outputformat.obj
 0003:00002800       ?g_h_module@@3PAUHINSTANCE__@@A 61089800     main.obj
 0003:00002804       ?g_use_standard_inf_units@@3_NA 61089804     options.obj
 0003:00002808       ?g_fsf@@3UFarStandardFunctions@@A 61089808     main.obj
 0003:000028c4       ?RtlGetCompressionWorkSpaceSize@@3P6GJGPAK0@ZA 610898c4     compress_files.obj
 0003:000028c8       ?g_far@@3UPluginStartupInfo@@A 610898c8     main.obj
 0003:0000294c       ?g_version@@3UModuleVersion@@A 6108994c     utils.obj
 0003:0000295c       ?RtlCompressBuffer@@3P6GJGPAEK0KKPAKPAX@ZA 6108995c     compress_files.obj
 0003:00002960       ___@@_PchSym_@00@UwvevoUuzikoftUmguhurovUivovzhvOcIGUsvzwvihOlyq@ 61089960     headers.obj
 0003:00004044       _OPENSSL_ia32cap_P         6108b044     libeay32:cryptlib.obj
 0003:00004088       ?g_colors@@3V?$Array@UFarColor@@@col@@A 6108b088     main.obj
 0003:0000408c       ?g_file_panel_mode@@3UFilePanelMode@@A 6108b08c     file_panel.obj
 0003:000040c4       ?g_file_panels@FilePanel@@0V?$Array@PAVFilePanel@@@col@@A 6108b0c4     file_panel.obj
 0003:000040c8       ?g_content_options@@3UContentOptions@@A 6108b0c8     options.obj
 0003:000040d0       ?size_suffixes@@3V?$ObjectArray@VUnicodeString@col@@@col@@A 6108b0d0     utils.obj
 0003:000040d4       ?speed_suffixes@@3V?$ObjectArray@VUnicodeString@col@@@col@@A 6108b0d4     utils.obj
 0003:000040d8       ?short_size_suffixes@@3V?$ObjectArray@VUnicodeString@col@@@col@@A 6108b0d8     utils.obj
 0003:000040f0       __debugger_hook_dummy      6108b0f0     <common>
 0003:000040f4       __nhandle                  6108b0f4     <common>
 0003:00004100       ___pioinfo                 6108b100     <common>
 0003:00004200       ___sse2_available          6108b200     <common>
 0003:00004204       ___env_initialized         6108b204     <common>
 0003:00004208       ___onexitend               6108b208     <common>
 0003:0000420c       ___onexitbegin             6108b20c     <common>
 0003:00004210       ___mbctype_initialized     6108b210     <common>
 0003:00004214       ___dyn_tls_init_callback   6108b214     <common>
 0003:00004218       ___piob                    6108b218     <common>
 0003:00004220       __bufin                    6108b220     <common>
 0003:00005220       __nstream                  6108c220     <common>
 0003:00005224       __acmdln                   6108c224     <common>

 entry point at        0001:00051a1e

 Static symbols

 0001:00000124       __catch$?get_system_message@@YA?AVUnicodeString@col@@K@Z$0 61001124 f i  CIL library: CIL module
 0001:00000249       __catch$?close@NtfsVolume@@QAEXXZ$0 61001249 f i  CIL library: CIL module
 0001:00000aca       __catch$?display_file_info@FileAnalyzer@@QAEX_N@Z$0 61001aca f    CIL library: CIL module
 0001:00000cbf       __catch$?display_file_info@FileAnalyzer@@QAEX_N@Z$2 61001cbf f    CIL library: CIL module
 0001:0000abfc       __catch$?process_file@FileAnalyzer@@QAEXAAVFileInfo@@_N@Z$0 6100bbfc f    CIL library: CIL module
 0001:0000ac54       __catch$?process_file@FileAnalyzer@@QAEXAAVFileInfo@@_N@Z$2 6100bc54 f    CIL library: CIL module
 0001:0000ac6e       __catch$?process_file@FileAnalyzer@@QAEXAAVFileInfo@@_N@Z$4 6100bc6e f    CIL library: CIL module
 0001:0000afe3       __catch$?process_recursive@FileAnalyzer@@QAEXABVUnicodeString@col@@@Z$0 6100bfe3 f    CIL library: CIL module
 0001:0000b07a       __catch$?process_recursive@FileAnalyzer@@QAEXABVUnicodeString@col@@@Z$2 6100c07a f    CIL library: CIL module
 0001:0000b1ea       __catch$?process_recursive@FileAnalyzer@@QAEXABVUnicodeString@col@@@Z$4 6100c1ea f    CIL library: CIL module
 0001:0000b259       __catch$?process_recursive@FileAnalyzer@@QAEXABVUnicodeString@col@@@Z$6 6100c259 f    CIL library: CIL module
 0001:0000b26c       __catch$?process_recursive@FileAnalyzer@@QAEXABVUnicodeString@col@@@Z$8 6100c26c f    CIL library: CIL module
 0001:0000b8e3       __catch$?process@FileAnalyzer@@QAEXXZ$0 6100c8e3 f    CIL library: CIL module
 0001:0000babb       __catch$?th_proc@FileAnalyzer@@SGIPAX@Z$0 6100cabb f    CIL library: CIL module
 0001:0000bb5c       __catch$?dialog_handler@FileAnalyzer@@QAEHHHPAX@Z$0 6100cb5c f    CIL library: CIL module
 0001:0000bbb4       __catch$?dialog_handler@FileAnalyzer@@QAEHHHPAX@Z$2 6100cbb4 f    CIL library: CIL module
 0001:0000bc15       __catch$?dialog_handler@FileAnalyzer@@QAEHHHPAX@Z$4 6100cc15 f    CIL library: CIL module
 0001:0000bd22       __catch$?dialog_handler@FileAnalyzer@@QAEHHHPAX@Z$6 6100cd22 f    CIL library: CIL module
 0001:0000bd8d       __catch$?dialog_handler@FileAnalyzer@@QAEHHHPAX@Z$8 6100cd8d f    CIL library: CIL module
 0001:0000bdbd       __catch$?dialog_handler@FileAnalyzer@@QAEHHHPAX@Z$10 6100cdbd f    CIL library: CIL module
 0001:0000be64       __catch$?dlg_proc@FileAnalyzer@@SGHPAXHH0@Z$0 6100ce64 f    CIL library: CIL module
 0001:0000be9b       __catch$?dlg_proc@FileAnalyzer@@SGHPAXHH0@Z$1 6100ce9b f    CIL library: CIL module
 0001:0000beb2       __catch$?dlg_proc@FileAnalyzer@@SGHPAXHH0@Z$2 6100ceb2 f    CIL library: CIL module
 0001:0000bec9       __catch$?dlg_proc@FileAnalyzer@@SGHPAXHH0@Z$3 6100cec9 f    CIL library: CIL module
 0001:0000ce68       __catch$_OpenW@4$0         6100de68 f    CIL library: CIL module
 0001:0000d676       __catch$_OpenW@4$2         6100e676 f    CIL library: CIL module
 0001:0000d681       __catch$_OpenW@4$3         6100e681 f    CIL library: CIL module
 0001:0000d694       __catch$_OpenW@4$4         6100e694 f    CIL library: CIL module
 0001:0000d6a7       __catch$_OpenW@4$5         6100e6a7 f    CIL library: CIL module
 0001:0000d749       __catch$_ClosePanelW@4$0   6100e749 f    CIL library: CIL module
 0001:0000d763       __catch$_ClosePanelW@4$1   6100e763 f    CIL library: CIL module
 0001:0000d785       __catch$_ClosePanelW@4$2   6100e785 f    CIL library: CIL module
 0001:0000d7a7       __catch$_ClosePanelW@4$3   6100e7a7 f    CIL library: CIL module
 0001:0000d83b       __catch$_GetOpenPanelInfoW@4$0 6100e83b f    CIL library: CIL module
 0001:0000d855       __catch$_GetOpenPanelInfoW@4$1 6100e855 f    CIL library: CIL module
 0001:0000d877       __catch$_GetOpenPanelInfoW@4$2 6100e877 f    CIL library: CIL module
 0001:0000d899       __catch$_GetOpenPanelInfoW@4$3 6100e899 f    CIL library: CIL module
 0001:0000d95e       __catch$_GetFindDataW@4$0  6100e95e f    CIL library: CIL module
 0001:0000d987       __catch$_GetFindDataW@4$1  6100e987 f    CIL library: CIL module
 0001:0000d9a1       __catch$_GetFindDataW@4$4  6100e9a1 f    CIL library: CIL module
 0001:0000d9bd       __catch$_GetFindDataW@4$5  6100e9bd f    CIL library: CIL module
 0001:0000d9cd       __catch$_GetFindDataW@4$6  6100e9cd f    CIL library: CIL module
 0001:0000d9dd       __catch$_GetFindDataW@4$7  6100e9dd f    CIL library: CIL module
 0001:0000daa3       __catch$_FreeFindDataW@4$0 6100eaa3 f    CIL library: CIL module
 0001:0000dabd       __catch$_FreeFindDataW@4$1 6100eabd f    CIL library: CIL module
 0001:0000dadf       __catch$_FreeFindDataW@4$2 6100eadf f    CIL library: CIL module
 0001:0000db01       __catch$_FreeFindDataW@4$3 6100eb01 f    CIL library: CIL module
 0001:0000dc36       __catch$_SetDirectoryW@4$0 6100ec36 f    CIL library: CIL module
 0001:0000dc5f       __catch$_SetDirectoryW@4$1 6100ec5f f    CIL library: CIL module
 0001:0000dc79       __catch$_SetDirectoryW@4$4 6100ec79 f    CIL library: CIL module
 0001:0000dc95       __catch$_SetDirectoryW@4$5 6100ec95 f    CIL library: CIL module
 0001:0000dca5       __catch$_SetDirectoryW@4$6 6100eca5 f    CIL library: CIL module
 0001:0000dcb5       __catch$_SetDirectoryW@4$7 6100ecb5 f    CIL library: CIL module
 0001:0000ddc7       __catch$_ConfigureW@4$0    6100edc7 f    CIL library: CIL module
 0001:0000ddcf       __catch$_ConfigureW@4$1    6100edcf f    CIL library: CIL module
 0001:0000dddf       __catch$_ConfigureW@4$2    6100eddf f    CIL library: CIL module
 0001:0000ddef       __catch$_ConfigureW@4$3    6100edef f    CIL library: CIL module
 0001:0000e132       __catch$_ProcessPanelInputW@4$0 6100f132 f    CIL library: CIL module
 0001:0000e151       __catch$_ProcessPanelInputW@4$1 6100f151 f    CIL library: CIL module
 0001:0000e15f       __catch$_ProcessPanelInputW@4$2 6100f15f f    CIL library: CIL module
 0001:0000e16d       __catch$_ProcessPanelInputW@4$3 6100f16d f    CIL library: CIL module
 0001:0000e211       __catch$_ProcessSynchroEventW@4$0 6100f211 f    CIL library: CIL module
 0001:0000e217       __catch$_ProcessSynchroEventW@4$1 6100f217 f    CIL library: CIL module
 0001:0000e225       __catch$_ProcessSynchroEventW@4$2 6100f225 f    CIL library: CIL module
 0001:0000e233       __catch$_ProcessSynchroEventW@4$3 6100f233 f    CIL library: CIL module
 0001:000117b6       __catch$?options_dlg_proc@@YGHPAXHH0@Z$0 610127b6 f    CIL library: CIL module
 0001:000117c8       __catch$?options_dlg_proc@@YGHPAXHH0@Z$1 610127c8 f    CIL library: CIL module
 0001:000117e2       __catch$?options_dlg_proc@@YGHPAXHH0@Z$2 610127e2 f    CIL library: CIL module
 0001:000117fc       __catch$?options_dlg_proc@@YGHPAXHH0@Z$3 610127fc f    CIL library: CIL module
 0001:000121c4       __catch$?save_hashes_to_file@@YAXABVUnicodeString@col@@ABUContentOptions@@ABUContentInfo@@@Z$0 610131c4 f    CIL library: CIL module
 0001:000122cc       __catch$?save_hashes_to_file@@YAXABVUnicodeString@col@@ABUContentOptions@@ABUContentInfo@@@Z$2 610132cc f    CIL library: CIL module
 0001:000123df       __catch$?save_hashes_to_file@@YAXABVUnicodeString@col@@ABUContentOptions@@ABUContentInfo@@@Z$4 610133df f    CIL library: CIL module
 0001:000124f2       __catch$?save_hashes_to_file@@YAXABVUnicodeString@col@@ABUContentOptions@@ABUContentInfo@@@Z$6 610134f2 f    CIL library: CIL module
 0001:00012605       __catch$?save_hashes_to_file@@YAXABVUnicodeString@col@@ABUContentOptions@@ABUContentInfo@@@Z$8 61013605 f    CIL library: CIL module
 0001:00012718       __catch$?save_hashes_to_file@@YAXABVUnicodeString@col@@ABUContentOptions@@ABUContentInfo@@@Z$10 61013718 f    CIL library: CIL module
 0001:00012820       __catch$?save_hashes_to_file@@YAXABVUnicodeString@col@@ABUContentOptions@@ABUContentInfo@@@Z$12 61013820 f    CIL library: CIL module
 0001:00012e54       __catch$?result_dlg_proc@@YGHPAXHH0@Z$0 61013e54 f    CIL library: CIL module
 0001:00012e63       __catch$?result_dlg_proc@@YGHPAXHH0@Z$1 61013e63 f    CIL library: CIL module
 0001:00012e7a       __catch$?result_dlg_proc@@YGHPAXHH0@Z$2 61013e7a f    CIL library: CIL module
 0001:00012e91       __catch$?result_dlg_proc@@YGHPAXHH0@Z$3 61013e91 f    CIL library: CIL module
 0001:000190d4       __catch$?process_file_content@@YAXABVUnicodeString@col@@ABUContentOptions@@AAUContentInfo@@@Z$0 6101a0d4 f    CIL library: CIL module
 0001:00019165       __catch$?process_file_content@@YAXABVUnicodeString@col@@ABUContentOptions@@AAUContentInfo@@@Z$2 6101a165 f    CIL library: CIL module
 0001:000191dd       __catch$?process_file_content@@YAXABVUnicodeString@col@@ABUContentOptions@@AAUContentInfo@@@Z$4 6101a1dd f    CIL library: CIL module
 0001:00019248       __catch$?process_file_content@@YAXABVUnicodeString@col@@ABUContentOptions@@AAUContentInfo@@@Z$6 6101a248 f    CIL library: CIL module
 0001:000192c4       __catch$?process_file_content@@YAXABVUnicodeString@col@@ABUContentOptions@@AAUContentInfo@@@Z$8 6101a2c4 f    CIL library: CIL module
 0001:0001959c       __catch$?process_file_content@@YAXABVUnicodeString@col@@ABUContentOptions@@AAUContentInfo@@@Z$10 6101a59c f    CIL library: CIL module
 0001:00019638       __catch$?process_file_content@@YAXABVUnicodeString@col@@ABUContentOptions@@AAUContentInfo@@@Z$12 6101a638 f    CIL library: CIL module
 0001:000196e9       __catch$?process_file_content@@YAXABVUnicodeString@col@@ABUContentOptions@@AAUContentInfo@@@Z$14 6101a6e9 f    CIL library: CIL module
 0001:0001975c       __catch$?process_file_content@@YAXABVUnicodeString@col@@ABUContentOptions@@AAUContentInfo@@@Z$16 6101a75c f    CIL library: CIL module
 0001:00019830       __catch$?process_file_content@@YAXABVUnicodeString@col@@ABUContentOptions@@AAUContentInfo@@@Z$18 6101a830 f    CIL library: CIL module
 0001:0001989a       __catch$?process_file_content@@YAXABVUnicodeString@col@@ABUContentOptions@@AAUContentInfo@@@Z$20 6101a89a f    CIL library: CIL module
 0001:00019966       __catch$?process_file_content@@YAXABVUnicodeString@col@@ABUContentOptions@@AAUContentInfo@@@Z$22 6101a966 f    CIL library: CIL module
 0001:00019a2d       __catch$?process_file_content@@YAXABVUnicodeString@col@@ABUContentOptions@@AAUContentInfo@@@Z$24 6101aa2d f    CIL library: CIL module
 0001:00019ae5       __catch$?process_file_content@@YAXABVUnicodeString@col@@ABUContentOptions@@AAUContentInfo@@@Z$26 6101aae5 f    CIL library: CIL module
 0001:00019dd9       __catch$?process_file_content@@YAXABVUnicodeString@col@@ABUContentOptions@@AAUContentInfo@@@Z$28 6101add9 f    CIL library: CIL module
 0001:00019df6       __catch$?process_file_content@@YAXABVUnicodeString@col@@ABUContentOptions@@AAUContentInfo@@@Z$32 6101adf6 f    CIL library: CIL module
 0001:00019e13       __catch$?process_file_content@@YAXABVUnicodeString@col@@ABUContentOptions@@AAUContentInfo@@@Z$30 6101ae13 f    CIL library: CIL module
 0001:0001a2d4       __catch$?process_file_content@@YAXABVUnicodeString@col@@ABUContentOptions@@AAUContentInfo@@@Z$34 6101b2d4 f    CIL library: CIL module
 0001:0001a2ea       __catch$?process_file_content@@YAXABVUnicodeString@col@@ABUContentOptions@@AAUContentInfo@@@Z$36 6101b2ea f    CIL library: CIL module
 0001:0001a320       __catch$?process_file_content@@YAXABVUnicodeString@col@@ABUContentOptions@@AAUContentInfo@@@Z$38 6101b320 f    CIL library: CIL module
 0001:0001a34e       __catch$?process_file_content@@YAXABVUnicodeString@col@@ABUContentOptions@@AAUContentInfo@@@Z$40 6101b34e f    CIL library: CIL module
 0001:0001a371       __catch$?process_file_content@@YAXABVUnicodeString@col@@ABUContentOptions@@AAUContentInfo@@@Z$42 6101b371 f    CIL library: CIL module
 0001:0001a394       __catch$?process_file_content@@YAXABVUnicodeString@col@@ABUContentOptions@@AAUContentInfo@@@Z$44 6101b394 f    CIL library: CIL module
 0001:0001a3b1       __catch$?process_file_content@@YAXABVUnicodeString@col@@ABUContentOptions@@AAUContentInfo@@@Z$46 6101b3b1 f    CIL library: CIL module
 0001:0001a3c7       __catch$?process_file_content@@YAXABVUnicodeString@col@@ABUContentOptions@@AAUContentInfo@@@Z$48 6101b3c7 f    CIL library: CIL module
 0001:0001a3e6       __catch$?process_file_content@@YAXABVUnicodeString@col@@ABUContentOptions@@AAUContentInfo@@@Z$50 6101b3e6 f    CIL library: CIL module
 0001:0001a405       __catch$?process_file_content@@YAXABVUnicodeString@col@@ABUContentOptions@@AAUContentInfo@@@Z$52 6101b405 f    CIL library: CIL module
 0001:0001a424       __catch$?process_file_content@@YAXABVUnicodeString@col@@ABUContentOptions@@AAUContentInfo@@@Z$54 6101b424 f    CIL library: CIL module
 0001:0001a443       __catch$?process_file_content@@YAXABVUnicodeString@col@@ABUContentOptions@@AAUContentInfo@@@Z$56 6101b443 f    CIL library: CIL module
 0001:0001bd3c       __catch$?estimate_file_size@@YAXABVUnicodeString@col@@AAUCompressionState@@AAVEstimationProgress@@@Z$0 6101cd3c f    CIL library: CIL module
 0001:0001c0a2       __catch$?estimate_directory_size@@YAXABVUnicodeString@col@@AAUCompressionState@@AAVEstimationProgress@@@Z$0 6101d0a2 f    CIL library: CIL module
 0001:0001c0cb       __catch$?estimate_directory_size@@YAXABVUnicodeString@col@@AAUCompressionState@@AAVEstimationProgress@@@Z$2 6101d0cb f    CIL library: CIL module
 0001:0001c20c       __catch$?compress_file@@YAXABVUnicodeString@col@@AAUCompressionState@@AAVCompressFilesProgress@@@Z$0 6101d20c f    CIL library: CIL module
 0001:0001c296       __catch$?compress_file@@YAXABVUnicodeString@col@@AAUCompressionState@@AAVCompressFilesProgress@@@Z$2 6101d296 f    CIL library: CIL module
 0001:0001c2eb       __catch$?compress_file@@YAXABVUnicodeString@col@@AAUCompressionState@@AAVCompressFilesProgress@@@Z$4 6101d2eb f    CIL library: CIL module
 0001:0001c38e       __catch$?compress_file@@YAXABVUnicodeString@col@@AAUCompressionState@@AAVCompressFilesProgress@@@Z$14 6101d38e f    CIL library: CIL module
 0001:0001c38e       __catch$?compress_file@@YAXABVUnicodeString@col@@AAUCompressionState@@AAVCompressFilesProgress@@@Z$6 6101d38e f    CIL library: CIL module
 0001:0001c435       __catch$?compress_file@@YAXABVUnicodeString@col@@AAUCompressionState@@AAVCompressFilesProgress@@@Z$8 6101d435 f    CIL library: CIL module
 0001:0001c4b1       __catch$?compress_file@@YAXABVUnicodeString@col@@AAUCompressionState@@AAVCompressFilesProgress@@@Z$10 6101d4b1 f    CIL library: CIL module
 0001:0001c617       __catch$?compress_file@@YAXABVUnicodeString@col@@AAUCompressionState@@AAVCompressFilesProgress@@@Z$12 6101d617 f    CIL library: CIL module
 0001:0001c66e       __catch$?compress_file@@YAXABVUnicodeString@col@@AAUCompressionState@@AAVCompressFilesProgress@@@Z$16 6101d66e f    CIL library: CIL module
 0001:0001c6ed       __catch$?compress_file@@YAXABVUnicodeString@col@@AAUCompressionState@@AAVCompressFilesProgress@@@Z$18 6101d6ed f    CIL library: CIL module
 0001:0001ca17       __catch$?compress_directory@@YAXABVUnicodeString@col@@AAUCompressionState@@AAVCompressFilesProgress@@@Z$0 6101da17 f    CIL library: CIL module
 0001:0001ca40       __catch$?compress_directory@@YAXABVUnicodeString@col@@AAUCompressionState@@AAVCompressFilesProgress@@@Z$2 6101da40 f    CIL library: CIL module
 0001:0001cb7b       __catch$?compress_files@@YAXABV?$ObjectArray@VUnicodeString@col@@@col@@AAUCompressionStats@@@Z$0 6101db7b f    CIL library: CIL module
 0001:0001cc00       __catch$?compress_files@@YAXABV?$ObjectArray@VUnicodeString@col@@@col@@AAUCompressionStats@@@Z$2 6101dc00 f    CIL library: CIL module
 0001:0001cc69       __catch$?compress_files@@YAXABV?$ObjectArray@VUnicodeString@col@@@col@@AAUCompressionStats@@@Z$4 6101dc69 f    CIL library: CIL module
 0001:0001ccc3       __catch$?compress_files@@YAXABV?$ObjectArray@VUnicodeString@col@@@col@@AAUCompressionStats@@@Z$6 6101dcc3 f    CIL library: CIL module
 0001:0001cd2b       __catch$?compress_files@@YAXABV?$ObjectArray@VUnicodeString@col@@@col@@AAUCompressionStats@@@Z$8 6101dd2b f    CIL library: CIL module
 0001:0001d073       __catch$?compress_files@@YAXABV?$ObjectArray@VUnicodeString@col@@@col@@AAUCompressionStats@@@Z$10 6101e073 f    CIL library: CIL module
 0001:0001d0f7       __catch$?compress_files@@YAXABV?$ObjectArray@VUnicodeString@col@@@col@@AAUCompressionStats@@@Z$12 6101e0f7 f    CIL library: CIL module
 0001:0001d189       __catch$?compress_files@@YAXABV?$ObjectArray@VUnicodeString@col@@@col@@AAUCompressionStats@@@Z$14 6101e189 f    CIL library: CIL module
 0001:0001d1b9       __catch$?compress_files@@YAXABV?$ObjectArray@VUnicodeString@col@@@col@@AAUCompressionStats@@@Z$16 6101e1b9 f    CIL library: CIL module
 0001:0001d3d7       __catch$?compress_files@@YAXABV?$ObjectArray@VUnicodeString@col@@@col@@AAUCompressionStats@@@Z$18 6101e3d7 f    CIL library: CIL module
 0001:0001d3ec       __catch$?compress_files@@YAXABV?$ObjectArray@VUnicodeString@col@@@col@@AAUCompressionStats@@@Z$20 6101e3ec f    CIL library: CIL module
 0001:0001d401       __catch$?compress_files@@YAXABV?$ObjectArray@VUnicodeString@col@@@col@@AAUCompressionStats@@@Z$22 6101e401 f    CIL library: CIL module
 0001:0001d41b       __catch$?compress_files@@YAXABV?$ObjectArray@VUnicodeString@col@@@col@@AAUCompressionStats@@@Z$24 6101e41b f    CIL library: CIL module
 0001:0001d42e       __catch$?compress_files@@YAXABV?$ObjectArray@VUnicodeString@col@@@col@@AAUCompressionStats@@@Z$26 6101e42e f    CIL library: CIL module
 0001:0001d44a       __catch$?compress_files@@YAXABV?$ObjectArray@VUnicodeString@col@@@col@@AAUCompressionStats@@@Z$28 6101e44a f    CIL library: CIL module
 0001:0001d466       __catch$?compress_files@@YAXABV?$ObjectArray@VUnicodeString@col@@@col@@AAUCompressionStats@@@Z$30 6101e466 f    CIL library: CIL module
 0001:0001d482       __catch$?compress_files@@YAXABV?$ObjectArray@VUnicodeString@col@@@col@@AAUCompressionStats@@@Z$32 6101e482 f    CIL library: CIL module
 0001:0001d49e       __catch$?compress_files@@YAXABV?$ObjectArray@VUnicodeString@col@@@col@@AAUCompressionStats@@@Z$34 6101e49e f    CIL library: CIL module
 0001:0001e26c       __catch$??$wth_proc@USharedData@@@@YGIPAX@Z$0 6101f26c f i  CIL library: CIL module
 0001:0001e2b8       __catch$??$wth_proc@USharedData@@@@YGIPAX@Z$2 6101f2b8 f i  CIL library: CIL module
 0001:0001e42c       __catch$??$wth_proc@UCompressionState@@@@YGIPAX@Z$0 6101f42c f i  CIL library: CIL module
 0001:0001e478       __catch$??$wth_proc@UCompressionState@@@@YGIPAX@Z$2 6101f478 f i  CIL library: CIL module
 0001:0001e584       __catch$??$compress_buffer@USharedData@@@@YA_NPAUSharedData@@@Z$0 6101f584 f i  CIL library: CIL module
 0001:0001e584       __catch$??$compress_buffer@USharedData@@@@YA_NPAUSharedData@@@Z$4 6101f584 f i  CIL library: CIL module
 0001:0001e5fa       __catch$??$compress_buffer@USharedData@@@@YA_NPAUSharedData@@@Z$2 6101f5fa f i  CIL library: CIL module
 0001:0001e6ca       __catch$??$compress_buffer@USharedData@@@@YA_NPAUSharedData@@@Z$6 6101f6ca f i  CIL library: CIL module
 0001:0001e7d4       __catch$??$compress_buffer@UCompressionState@@@@YA_NPAUCompressionState@@@Z$0 6101f7d4 f i  CIL library: CIL module
 0001:0001e7d4       __catch$??$compress_buffer@UCompressionState@@@@YA_NPAUCompressionState@@@Z$4 6101f7d4 f i  CIL library: CIL module
 0001:0001e84a       __catch$??$compress_buffer@UCompressionState@@@@YA_NPAUCompressionState@@@Z$2 6101f84a f i  CIL library: CIL module
 0001:0001e919       __catch$??$compress_buffer@UCompressionState@@@@YA_NPAUCompressionState@@@Z$6 6101f919 f i  CIL library: CIL module
 0001:0001f720       ??1Clean_h_panel@?7??restore_state@@YAXPAXABUPanelState@@@Z@QAE@XZ 61020720 f    CIL library: CIL module
 0001:0001f895       __catch$?open@FilePanel@@SAPAV1@XZ$0 61020895 f    CIL library: CIL module
 0001:0001fce6       __catch$?on_close@FilePanel@@QAEXXZ$0 61020ce6 f    CIL library: CIL module
 0001:00020c0a       __catch$?scan_dir@FilePanel@@AAEXABVUnicodeString@col@@0AAV?$list@UPanelItemData@FilePanel@@V?$allocator@UPanelItemData@FilePanel@@@std@@@std@@AAVFileListProgress@@@Z$0 61021c0a f    CIL library: CIL module
 0001:00020d6a       __catch$?scan_dir@FilePanel@@AAEXABVUnicodeString@col@@0AAV?$list@UPanelItemData@FilePanel@@V?$allocator@UPanelItemData@FilePanel@@@std@@@std@@AAVFileListProgress@@@Z$2 61021d6a f    CIL library: CIL module
 0001:00020d87       __catch$?scan_dir@FilePanel@@AAEXABVUnicodeString@col@@0AAV?$list@UPanelItemData@FilePanel@@V?$allocator@UPanelItemData@FilePanel@@@std@@@std@@AAVFileListProgress@@@Z$4 61021d87 f    CIL library: CIL module
 0001:00020da4       __catch$?scan_dir@FilePanel@@AAEXABVUnicodeString@col@@0AAV?$list@UPanelItemData@FilePanel@@V?$allocator@UPanelItemData@FilePanel@@@std@@@std@@AAVFileListProgress@@@Z$6 61021da4 f    CIL library: CIL module
 0001:0002117c       __catch$?scan_dir@FilePanel@@AAEXABVUnicodeString@col@@0AAV?$list@UPanelItemData@FilePanel@@V?$allocator@UPanelItemData@FilePanel@@@std@@@std@@AAVFileListProgress@@@Z$8 6102217c f    CIL library: CIL module
 0001:000211d6       __catch$?scan_dir@FilePanel@@AAEXABVUnicodeString@col@@0AAV?$list@UPanelItemData@FilePanel@@V?$allocator@UPanelItemData@FilePanel@@@std@@@std@@AAVFileListProgress@@@Z$10 610221d6 f    CIL library: CIL module
 0001:000211f3       __catch$?scan_dir@FilePanel@@AAEXABVUnicodeString@col@@0AAV?$list@UPanelItemData@FilePanel@@V?$allocator@UPanelItemData@FilePanel@@@std@@@std@@AAVFileListProgress@@@Z$12 610221f3 f    CIL library: CIL module
 0001:00021321       __catch$?scan_dir@FilePanel@@AAEXABVUnicodeString@col@@0AAV?$list@UPanelItemData@FilePanel@@V?$allocator@UPanelItemData@FilePanel@@@std@@@std@@AAVFileListProgress@@@Z$14 61022321 f    CIL library: CIL module
 0001:00021c7c       __catch$?scan_dir@FilePanel@@AAEXABVUnicodeString@col@@0AAV?$list@UPanelItemData@FilePanel@@V?$allocator@UPanelItemData@FilePanel@@@std@@@std@@AAVFileListProgress@@@Z$16 61022c7c f    CIL library: CIL module
 0001:00021ca2       __catch$?scan_dir@FilePanel@@AAEXABVUnicodeString@col@@0AAV?$list@UPanelItemData@FilePanel@@V?$allocator@UPanelItemData@FilePanel@@@std@@@std@@AAVFileListProgress@@@Z$18 61022ca2 f    CIL library: CIL module
 0001:00021e00       ??RFragmLevelCmp@?9??sort_file_list@FilePanel@@AAEXAAV?$list@UPanelItemData@FilePanel@@V?$allocator@UPanelItemData@FilePanel@@@std@@@std@@@Z@QBE_NABUPanelItemData@2@1@Z 61022e00 f    CIL library: CIL module
 0001:00021faf       __catch$?new_file_list@FilePanel@@QAEXAAPAUPluginPanelItem@@AAI_N@Z$0 61022faf f    CIL library: CIL module
 0001:00022459       __catch$?change_directory@FilePanel@@QAEXABVUnicodeString@col@@_N@Z$0 61023459 f    CIL library: CIL module
 0001:00022550       __catch$?change_directory@FilePanel@@QAEXABVUnicodeString@col@@_N@Z$2 61023550 f    CIL library: CIL module
 0001:00022f53       __catch$?dialog_proc@FilePanelModeDialog@@CGHPAXHH0@Z$0 61023f53 f i  CIL library: CIL module
 0001:00022f62       __catch$?dialog_proc@FilePanelModeDialog@@CGHPAXHH0@Z$1 61023f62 f i  CIL library: CIL module
 0001:00022f79       __catch$?dialog_proc@FilePanelModeDialog@@CGHPAXHH0@Z$2 61023f79 f i  CIL library: CIL module
 0001:00022f90       __catch$?dialog_proc@FilePanelModeDialog@@CGHPAXHH0@Z$3 61023f90 f i  CIL library: CIL module
 0001:00028459       __catch$?find_full_paths@FileInfo@@QAEXXZ$2 61029459 f    CIL library: CIL module
 0001:000287de       __catch$?find_full_paths@FileInfo@@QAEXXZ$0 610297de f    CIL library: CIL module
 0001:000288f7       __catch$?load_mft_record@FileInfo@@AAE_K_KAAV?$Array@E@col@@@Z$0 610298f7 f    CIL library: CIL module
 0001:0002898d       __catch$?load_mft_record@FileInfo@@AAE_K_KAAV?$Array@E@col@@@Z$2 6102998d f    CIL library: CIL module
 0001:000289e2       __catch$?load_mft_record@FileInfo@@AAE_K_KAAV?$Array@E@col@@@Z$4 610299e2 f    CIL library: CIL module
 0001:00028a22       __catch$?load_mft_record@FileInfo@@AAE_K_KAAV?$Array@E@col@@@Z$6 61029a22 f    CIL library: CIL module
 0001:00028a79       __catch$?load_mft_record@FileInfo@@AAE_K_KAAV?$Array@E@col@@@Z$8 61029a79 f    CIL library: CIL module
 0001:00028b84       __catch$?find_attribute@FileInfo@@AAEIABV?$Array@E@col@@IG@Z$0 61029b84 f    CIL library: CIL module
 0001:00028bf5       __catch$?find_attribute@FileInfo@@AAEIABV?$Array@E@col@@IG@Z$2 61029bf5 f    CIL library: CIL module
 0001:00028c57       __catch$?find_attribute@FileInfo@@AAEIABV?$Array@E@col@@IG@Z$4 61029c57 f    CIL library: CIL module
 0001:00028d64       __catch$?decode_data_runs@FileInfo@@AAE?AV?$Array@UDataRun@FileInfo@@@col@@ABV?$Array@E@3@I@Z$0 61029d64 f    CIL library: CIL module
 0001:00028e26       __catch$?decode_data_runs@FileInfo@@AAE?AV?$Array@UDataRun@FileInfo@@@col@@ABV?$Array@E@3@I@Z$2 61029e26 f    CIL library: CIL module
 0001:00028eb7       __catch$?decode_data_runs@FileInfo@@AAE?AV?$Array@UDataRun@FileInfo@@@col@@ABV?$Array@E@3@I@Z$4 61029eb7 f    CIL library: CIL module
 0001:000290c4       __catch$?process_attribute@FileInfo@@AAEXABV?$Array@E@col@@I@Z$0 6102a0c4 f    CIL library: CIL module
 0001:000291a6       __catch$?process_attribute@FileInfo@@AAEXABV?$Array@E@col@@I@Z$2 6102a1a6 f    CIL library: CIL module
 0001:00029227       __catch$?process_attribute@FileInfo@@AAEXABV?$Array@E@col@@I@Z$4 6102a227 f    CIL library: CIL module
 0001:0002929c       __catch$?process_attribute@FileInfo@@AAEXABV?$Array@E@col@@I@Z$6 6102a29c f    CIL library: CIL module
 0001:00029338       __catch$?process_attribute@FileInfo@@AAEXABV?$Array@E@col@@I@Z$8 6102a338 f    CIL library: CIL module
 0001:00029390       __catch$?process_attribute@FileInfo@@AAEXABV?$Array@E@col@@I@Z$10 6102a390 f    CIL library: CIL module
 0001:000294a0       __catch$?process_attribute@FileInfo@@AAEXABV?$Array@E@col@@I@Z$12 6102a4a0 f    CIL library: CIL module
 0001:000294fa       __catch$?process_attribute@FileInfo@@AAEXABV?$Array@E@col@@I@Z$14 6102a4fa f    CIL library: CIL module
 0001:00029540       __catch$?process_attribute@FileInfo@@AAEXABV?$Array@E@col@@I@Z$16 6102a540 f    CIL library: CIL module
 0001:00029597       __catch$?process_attribute@FileInfo@@AAEXABV?$Array@E@col@@I@Z$18 6102a597 f    CIL library: CIL module
 0001:000295e8       __catch$?process_attribute@FileInfo@@AAEXABV?$Array@E@col@@I@Z$20 6102a5e8 f    CIL library: CIL module
 0001:0002962e       __catch$?process_attribute@FileInfo@@AAEXABV?$Array@E@col@@I@Z$22 6102a62e f    CIL library: CIL module
 0001:00029681       __catch$?process_attribute@FileInfo@@AAEXABV?$Array@E@col@@I@Z$24 6102a681 f    CIL library: CIL module
 0001:0002970c       __catch$?process_attribute@FileInfo@@AAEXABV?$Array@E@col@@I@Z$28 6102a70c f    CIL library: CIL module
 0001:0002976b       __catch$?process_attribute@FileInfo@@AAEXABV?$Array@E@col@@I@Z$26 6102a76b f    CIL library: CIL module
 0001:0002989e       __catch$?process_attribute@FileInfo@@AAEXABV?$Array@E@col@@I@Z$30 6102a89e f    CIL library: CIL module
 0001:000298f0       __catch$?process_attribute@FileInfo@@AAEXABV?$Array@E@col@@I@Z$32 6102a8f0 f    CIL library: CIL module
 0001:00029a50       __catch$?process_attr_list_entry@FileInfo@@AAEXPBUATTR_LIST_ENTRY@@AAV?$Array@_K@col@@@Z$0 6102aa50 f    CIL library: CIL module
 0001:00029ae9       __catch$?process_attr_list_entry@FileInfo@@AAEXPBUATTR_LIST_ENTRY@@AAV?$Array@_K@col@@@Z$2 6102aae9 f    CIL library: CIL module
 0001:00029c48       __catch$?process_base_file_rec@FileInfo@@QAEXXZ$0 6102ac48 f    CIL library: CIL module
 0001:00029cab       __catch$?process_base_file_rec@FileInfo@@QAEXXZ$2 6102acab f    CIL library: CIL module
 0001:00029d11       __catch$?process_base_file_rec@FileInfo@@QAEXXZ$4 6102ad11 f    CIL library: CIL module
 0001:00029d8e       __catch$?process_base_file_rec@FileInfo@@QAEXXZ$6 6102ad8e f    CIL library: CIL module
 0001:00029ddb       __catch$?process_base_file_rec@FileInfo@@QAEXXZ$8 6102addb f    CIL library: CIL module
 0001:00029e63       __catch$?process_base_file_rec@FileInfo@@QAEXXZ$10 6102ae63 f    CIL library: CIL module
 0001:00029eeb       __catch$?process_base_file_rec@FileInfo@@QAEXXZ$12 6102aeeb f    CIL library: CIL module
 0001:00029f32       __catch$?process_base_file_rec@FileInfo@@QAEXXZ$14 6102af32 f    CIL library: CIL module
 0001:00029f8f       __catch$?process_base_file_rec@FileInfo@@QAEXXZ$16 6102af8f f    CIL library: CIL module
 0001:0002a029       __catch$?process_base_file_rec@FileInfo@@QAEXXZ$18 6102b029 f    CIL library: CIL module
 0001:0002a0a3       __catch$?process_base_file_rec@FileInfo@@QAEXXZ$20 6102b0a3 f    CIL library: CIL module
 0001:0002a0e3       __catch$?process_base_file_rec@FileInfo@@QAEXXZ$22 6102b0e3 f    CIL library: CIL module
 0001:0002a16a       __catch$?process_base_file_rec@FileInfo@@QAEXXZ$24 6102b16a f    CIL library: CIL module
 0001:0002a1d6       __catch$?process_base_file_rec@FileInfo@@QAEXXZ$26 6102b1d6 f    CIL library: CIL module
 0001:0002a27e       __catch$?process_base_file_rec@FileInfo@@QAEXXZ$28 6102b27e f    CIL library: CIL module
 0001:0002a2eb       __catch$?process_base_file_rec@FileInfo@@QAEXXZ$30 6102b2eb f    CIL library: CIL module
 0001:0002a346       __catch$?process_base_file_rec@FileInfo@@QAEXXZ$32 6102b346 f    CIL library: CIL module
 0001:0002a3a3       __catch$?process_base_file_rec@FileInfo@@QAEXXZ$34 6102b3a3 f    CIL library: CIL module
 0001:0002a3f0       ??1Clean_attr_data_buf@?EG@??process_base_file_rec@FileInfo@@QAEXXZ@QAE@XZ 6102b3f0 f    CIL library: CIL module
 0001:0002a45d       __catch$??1Clean_attr_data_buf@?EG@??process_base_file_rec@FileInfo@@QAEXXZ@QAE@XZ$0 6102b45d f    CIL library: CIL module
 0001:0002cd95       __catch$?unicode_to_oem@@YAXAAVAnsiString@col@@ABVUnicodeString@2@@Z$0 6102dd95 f    CIL library: CIL module
 0001:0002cee5       __catch$?oem_to_unicode@@YAXAAVUnicodeString@col@@ABVAnsiString@2@@Z$0 6102dee5 f    CIL library: CIL module
 0001:0002f016       __catch$?update_ui@ProgressMonitor@@QAEX_N@Z$0 61030016 f    CIL library: CIL module
 0001:0002f15e       __catch$?show@Log@@QAEXXZ$0 6103015e f    CIL library: CIL module
 0001:0002f1cf       __catch$?show@Log@@QAEXXZ$2 610301cf f    CIL library: CIL module
 0001:0002f235       __catch$?show@Log@@QAEXXZ$4 61030235 f    CIL library: CIL module
 0001:0002f2c5       __catch$?show@Log@@QAEXXZ$6 610302c5 f    CIL library: CIL module
 0001:0002f39f       __catch$?show@Log@@QAEXXZ$8 6103039f f    CIL library: CIL module
 0001:0002f3b0       ??1Clean_temp_file_path@?8??show@Log@@QAEXXZ@QAE@XZ 610303b0 f    CIL library: CIL module
 0001:0002f3d0       ??1Clean_h_file@?BB@??show@Log@@QAEXXZ@QAE@XZ 610303d0 f    CIL library: CIL module
 0001:0002f436       __catch$??1Clean_h_file@?BB@??show@Log@@QAEXXZ@QAE@XZ$0 61030436 f    CIL library: CIL module
 0001:0002f597       __catch$?far_get_panel_dir@@YA?AVUnicodeString@col@@PAX@Z$0 61030597 f    CIL library: CIL module
 0001:00030316       __catch$?get_temp_path@@YA?AVUnicodeString@col@@XZ$0 61031316 f    CIL library: CIL module
 0001:000303fa       __catch$??0Event@@QAE@_N0@Z$0 610313fa f    CIL library: CIL module
 0001:000304ab       __catch$??0Semaphore@@QAE@II@Z$0 610314ab f    CIL library: CIL module
 0001:0003057f       __catch$??0File@@QAE@ABVUnicodeString@col@@KKKK@Z$0 6103157f f    CIL library: CIL module
 0001:00030615       __catch$?size@File@@QAE_KXZ$0 61031615 f    CIL library: CIL module
 0001:000306bc       __catch$?read@File@@QAEIPAXI@Z$0 610316bc f    CIL library: CIL module
 0001:00030850       __catch$?next@FileEnum@@QAE_NXZ$0 61031850 f    CIL library: CIL module
 0001:000308a7       __catch$?next@FileEnum@@QAE_NXZ$2 610318a7 f    CIL library: CIL module
 0001:00030991       __catch$?get_find_data@@YA?AUFindData@@ABVUnicodeString@col@@@Z$0 61031991 f    CIL library: CIL module
 0001:00031050       __catch$?_Copy@?$basic_string@_WU?$char_traits@_W@std@@V?$allocator@_W@2@@std@@QAEXII@Z$0 61032050 f i  CIL library: CIL module
 0001:000310d7       __catch$?_Copy@?$basic_string@_WU?$char_traits@_W@std@@V?$allocator@_W@2@@std@@QAEXII@Z$1 610320d7 f i  CIL library: CIL module
 0001:000315ff       __catch$??0VolumeInfo@@QAE@ABVUnicodeString@col@@@Z$0 610325ff f    CIL library: CIL module
 0001:00031759       __catch$?open@NtfsVolume@@QAEXABVUnicodeString@col@@@Z$0 61032759 f    CIL library: CIL module
 0001:00031807       __catch$?open@NtfsVolume@@QAEXABVUnicodeString@col@@@Z$2 61032807 f    CIL library: CIL module
 0001:00031873       __catch$?open@NtfsVolume@@QAEXABVUnicodeString@col@@@Z$4 61032873 f    CIL library: CIL module
 0001:00031909       __catch$?open@NtfsVolume@@QAEXABVUnicodeString@col@@@Z$6 61032909 f    CIL library: CIL module
 0001:00031977       __catch$?open@NtfsVolume@@QAEXABVUnicodeString@col@@@Z$8 61032977 f    CIL library: CIL module
 0001:000319d4       __catch$?open@NtfsVolume@@QAEXABVUnicodeString@col@@@Z$10 610329d4 f    CIL library: CIL module
 0001:00031b6e       __catch$?get_volume_guid@@YA?AVUnicodeString@col@@ABV12@@Z$0 61032b6e f    CIL library: CIL module
 0001:00031c50       __catch$?get_volume_guid@@YA?AVUnicodeString@col@@ABV12@@Z$2 61032c50 f    CIL library: CIL module
 0001:0003433f       __catch$?defragment@@YAXABVUnicodeString@col@@AAVIDefragProgress@@@Z$0 6103533f f    CIL library: CIL module
 0001:00034502       __catch$?defragment@@YAXABVUnicodeString@col@@AAVIDefragProgress@@@Z$2 61035502 f    CIL library: CIL module
 0001:000348d2       __catch$?defragment@@YAXABVUnicodeString@col@@AAVIDefragProgress@@@Z$4 610358d2 f    CIL library: CIL module
 0001:00034afb       __catch$?defragment@@YAXABVUnicodeString@col@@AAVIDefragProgress@@@Z$6 61035afb f    CIL library: CIL module
 0001:000352f1       __catch$?defragment@@YAXABVUnicodeString@col@@AAVIDefragProgress@@@Z$8 610362f1 f    CIL library: CIL module
 0001:00035480       ??1Clean_h_file@?7??defragment@@YAXABVUnicodeString@col@@AAVIDefragProgress@@@Z@QAE@XZ 61036480 f    CIL library: CIL module
 0001:000354e6       __catch$??1Clean_h_file@?7??defragment@@YAXABVUnicodeString@col@@AAVIDefragProgress@@@Z@QAE@XZ$0 610364e6 f    CIL library: CIL module
 0001:00035520       ??1Clean_h_file@?GE@??defragment@@YAXABVUnicodeString@col@@AAVIDefragProgress@@@Z@QAE@XZ 61036520 f    CIL library: CIL module
 0001:00035608       __catch$?defragment@@YAXABV?$ObjectArray@VUnicodeString@col@@@col@@AAULog@@@Z$0 61036608 f    CIL library: CIL module
 0001:00036493       __catch$?prepare_usn_journal@FilePanel@@AAEXXZ$6 61037493 f    CIL library: CIL module
 0001:0003650b       __catch$?prepare_usn_journal@FilePanel@@AAEXXZ$0 6103750b f    CIL library: CIL module
 0001:00036570       __catch$?prepare_usn_journal@FilePanel@@AAEXXZ$2 61037570 f    CIL library: CIL module
 0001:000365ca       __catch$?prepare_usn_journal@FilePanel@@AAEXXZ$4 610375ca f    CIL library: CIL module
 0001:00036b8d       __catch$?create_mft_index@FilePanel@@AAEXXZ$0 61037b8d f    CIL library: CIL module
 0001:00036bd0       ?do_update_ui@VolumeListProgress@?1??create_mft_index@FilePanel@@AAEXXZ@MAEXXZ 61037bd0 f    CIL library: CIL module
 0001:00036eb0       ??0VolumeListProgress@?1??create_mft_index@FilePanel@@AAEXXZ@QAE@XZ 61037eb0 f    CIL library: CIL module
 0001:00037148       __catch$?update_mft_index_from_usn@FilePanel@@AAEXXZ$0 61038148 f    CIL library: CIL module
 0001:00037858       __catch$?update_mft_index_from_usn@FilePanel@@AAEXXZ$2 61038858 f    CIL library: CIL module
 0001:00037910       ?do_update_ui@Progress@?1??update_mft_index_from_usn@FilePanel@@AAEXXZ@MAEXXZ 61038910 f    CIL library: CIL module
 0001:00037b50       ??0Progress@?1??update_mft_index_from_usn@FilePanel@@AAEXXZ@QAE@XZ 61038b50 f    CIL library: CIL module
 0001:0003812d       __catch$?mft_find_root@FilePanel@@ABE_KXZ$0 6103912d f    CIL library: CIL module
 0001:000382fb       __catch$?mft_find_path@FilePanel@@AAE_KABVUnicodeString@col@@@Z$0 610392fb f    CIL library: CIL module
 0001:0003847e       __catch$?open_volume@FilePanel@@AAEXABVUnicodeString@col@@@Z$0 6103947e f    CIL library: CIL module
 0001:0003861f       __catch$?toggle_mft_mode@FilePanel@@QAEXXZ$0 6103961f f    CIL library: CIL module
 0001:00039161       __catch$?store_mft_index@FilePanel@@AAEXXZ$0 6103a161 f    CIL library: CIL module
 0001:00039317       __catch$?store_mft_index@FilePanel@@AAEXXZ$2 6103a317 f    CIL library: CIL module
 0001:0003938b       __catch$?store_mft_index@FilePanel@@AAEXXZ$4 6103a38b f    CIL library: CIL module
 0001:000393eb       __catch$?store_mft_index@FilePanel@@AAEXXZ$6 6103a3eb f    CIL library: CIL module
 0001:0003944b       __catch$?store_mft_index@FilePanel@@AAEXXZ$8 6103a44b f    CIL library: CIL module
 0001:000394b9       __catch$?store_mft_index@FilePanel@@AAEXXZ$10 6103a4b9 f    CIL library: CIL module
 0001:0003951f       __catch$?store_mft_index@FilePanel@@AAEXXZ$12 6103a51f f    CIL library: CIL module
 0001:00039587       __catch$?store_mft_index@FilePanel@@AAEXXZ$14 6103a587 f    CIL library: CIL module
 0001:000395ec       __catch$?store_mft_index@FilePanel@@AAEXXZ$16 6103a5ec f    CIL library: CIL module
 0001:00039654       __catch$?store_mft_index@FilePanel@@AAEXXZ$18 6103a654 f    CIL library: CIL module
 0001:000396b7       __catch$?store_mft_index@FilePanel@@AAEXXZ$20 6103a6b7 f    CIL library: CIL module
 0001:00039750       ?do_update_ui@Progress@?3??store_mft_index@FilePanel@@AAEXXZ@MAEXXZ 6103a750 f    CIL library: CIL module
 0001:00039950       ??0Progress@?3??store_mft_index@FilePanel@@AAEXXZ@QAE@XZ 6103a950 f    CIL library: CIL module
 0001:00039a86       __catch$?load_mft_index@FilePanel@@AAEXXZ$0 6103aa86 f    CIL library: CIL module
 0001:00039af1       __catch$?load_mft_index@FilePanel@@AAEXXZ$2 6103aaf1 f    CIL library: CIL module
 0001:00039b4a       __catch$?load_mft_index@FilePanel@@AAEXXZ$4 6103ab4a f    CIL library: CIL module
 0001:00039ba8       __catch$?load_mft_index@FilePanel@@AAEXXZ$6 6103aba8 f    CIL library: CIL module
 0001:00039be9       __catch$?load_mft_index@FilePanel@@AAEXXZ$8 6103abe9 f    CIL library: CIL module
 0001:00039c46       __catch$?load_mft_index@FilePanel@@AAEXXZ$10 6103ac46 f    CIL library: CIL module
 0001:00039c86       __catch$?load_mft_index@FilePanel@@AAEXXZ$12 6103ac86 f    CIL library: CIL module
 0001:00039ce3       __catch$?load_mft_index@FilePanel@@AAEXXZ$14 6103ace3 f    CIL library: CIL module
 0001:00039d26       __catch$?load_mft_index@FilePanel@@AAEXXZ$16 6103ad26 f    CIL library: CIL module
 0001:00039d91       __catch$?load_mft_index@FilePanel@@AAEXXZ$18 6103ad91 f    CIL library: CIL module
 0001:00039dd2       __catch$?load_mft_index@FilePanel@@AAEXXZ$20 6103add2 f    CIL library: CIL module
 0001:00039e2c       __catch$?load_mft_index@FilePanel@@AAEXXZ$22 6103ae2c f    CIL library: CIL module
 0001:00039e6c       __catch$?load_mft_index@FilePanel@@AAEXXZ$24 6103ae6c f    CIL library: CIL module
 0001:00039eeb       __catch$?load_mft_index@FilePanel@@AAEXXZ$26 6103aeeb f    CIL library: CIL module
 0001:00039f31       __catch$?load_mft_index@FilePanel@@AAEXXZ$28 6103af31 f    CIL library: CIL module
 0001:00039f90       __catch$?load_mft_index@FilePanel@@AAEXXZ$30 6103af90 f    CIL library: CIL module
 0001:0003a028       __catch$?load_mft_index@FilePanel@@AAEXXZ$32 6103b028 f    CIL library: CIL module
 0001:0003a249       __catch$?load_mft_index@FilePanel@@AAEXXZ$34 6103b249 f    CIL library: CIL module
 0001:0003a260       ?do_update_ui@Progress@?1??load_mft_index@FilePanel@@AAEXXZ@MAEXXZ 6103b260 f    CIL library: CIL module
 0001:0003a460       ??0Progress@?1??load_mft_index@FilePanel@@AAEXXZ@QAE@XZ 6103b460 f    CIL library: CIL module
 0001:0003a4d0       ??1Clean_h_file@?BE@??store_mft_index@FilePanel@@AAEXXZ@QAE@XZ 6103b4d0 f    CIL library: CIL module
 0001:0003a4d0       ??1Clean_h_file@?8??load_mft_index@FilePanel@@AAEXXZ@QAE@XZ 6103b4d0 f    CIL library: CIL module
 0001:0003a4d0       ??1Clean_h_file@?N@??save_hashes_to_file@@YAXABVUnicodeString@col@@ABUContentOptions@@ABUContentInfo@@@Z@QAE@XZ 6103b4d0 f    CIL library: CIL module
 0001:0003a5f7       __catch$?get_mft_index_cache_name@FilePanel@@AAE?AVUnicodeString@col@@XZ$0 6103b5f7 f    CIL library: CIL module
 0001:0003c7f2       __catch$?get_version_info@@YA?AUVersionData@@ABVUnicodeString@col@@@Z$0 6103d7f2 f    CIL library: CIL module
 0001:0003c907       __catch$?get_version_info@@YA?AUVersionData@@ABVUnicodeString@col@@@Z$2 6103d907 f    CIL library: CIL module
 0001:0003d559       __catch$?get_version_info@@YA?AUVersionData@@ABVUnicodeString@col@@@Z$4 6103e559 f    CIL library: CIL module
 0001:0003d5c0       __catch$?get_version_info@@YA?AUVersionData@@ABVUnicodeString@col@@@Z$6 6103e5c0 f    CIL library: CIL module
 0001:0003d644       __catch$?get_version_info@@YA?AUVersionData@@ABVUnicodeString@col@@@Z$8 6103e644 f    CIL library: CIL module
 0001:0003d856       __catch$?get_version_info@@YA?AUVersionData@@ABVUnicodeString@col@@@Z$10 6103e856 f    CIL library: CIL module
 0001:0003ea00       ??1Clean_lcid@?LI@??get_version_info@@YA?AUVersionData@@ABVUnicodeString@col@@@Z@QAE@XZ 6103fa00 f    CIL library: CIL module
 0001:0003ea20       ??1Clean_exec_image@?NJ@??get_version_info@@YA?AUVersionData@@ABVUnicodeString@col@@@Z@QAE@XZ 6103fa20 f    CIL library: CIL module
 0001:0003eca0       ??1CertContext@?1??get_certificate_info@@YA?AUCertificateInfo@@PAXPBU_CMSG_SIGNER_INFO@@@Z@QAE@XZ 6103fca0 f    CIL library: CIL module
 0001:0003fb30       ??1CryptObject@?1??get_signature_info@@YA?AV?$ObjectArray@UNameValue@@@col@@ABVUnicodeString@3@@Z@QAE@XZ 61040b30 f    CIL library: CIL module
 0001:00040479       __catch$?file_version_dialog_proc@@YGHPAXHH0@Z$0 61041479 f    CIL library: CIL module
 0001:00040488       __catch$?file_version_dialog_proc@@YGHPAXHH0@Z$1 61041488 f    CIL library: CIL module
 0001:000404a2       __catch$?file_version_dialog_proc@@YGHPAXHH0@Z$2 610414a2 f    CIL library: CIL module
 0001:000404bc       __catch$?file_version_dialog_proc@@YGHPAXHH0@Z$3 610414bc f    CIL library: CIL module
 0001:00041ad8       __catch$?init_comp_api@@YAXXZ$0 61042ad8 f    CIL library: CIL module
 0001:00041b2f       __catch$?init_comp_api@@YAXXZ$2 61042b2f f    CIL library: CIL module
 0001:00041bd8       __catch$?get_comp_work_buffer_size@@YAIXZ$0 61042bd8 f    CIL library: CIL module
 0001:00041c97       __catch$?get_cluster_size@@YAIABVUnicodeString@col@@@Z$0 61042c97 f    CIL library: CIL module
 0001:00041d22       __catch$?get_time@@YA_KXZ$0 61042d22 f    CIL library: CIL module
 0001:00041dc2       __catch$?get_time_freq@@YA_KXZ$0 61042dc2 f    CIL library: CIL module
 0001:00041ed0       __catch$?allocate@Buffer@@QAEXIII@Z$0 61042ed0 f i  CIL library: CIL module
 0001:00041fe4       __catch$??0BufferArray@@QAE@II@Z$0 61042fe4 f i  CIL library: CIL module
 0001:000423c3       __catch$?thread_proc@WorkerThreads@@CGIPAX@Z$0 610433c3 f i  CIL library: CIL module
 0001:00042490       __catch$??0WorkerThreads@@QAE@AAUCompressFiles@@@Z$0 61043490 f i  CIL library: CIL module
 0001:00042589       __catch$??0WorkerThreads@@QAE@AAUCompressFiles@@@Z$2 61043589 f i  CIL library: CIL module
 0001:00043c45       __catch$?estimate_directory_size@CompressFiles@@QAEXABVUnicodeString@col@@@Z$0 61044c45 f    CIL library: CIL module
 0001:00043d6b       __catch$?run_compression_thread@CompressFiles@@QAEXXZ$0 61044d6b f    CIL library: CIL module
 0001:00043e51       __catch$?run_compression_thread@CompressFiles@@QAEXXZ$2 61044e51 f    CIL library: CIL module
 0001:00043f80       __catch$?run_compression_thread@CompressFiles@@QAEXXZ$4 61044f80 f    CIL library: CIL module
 0001:00044057       __catch$??0ReadOnlyFileAccess@@QAE@ABVUnicodeString@col@@@Z$0 61045057 f i  CIL library: CIL module
 0001:000440d9       __catch$??0ReadOnlyFileAccess@@QAE@ABVUnicodeString@col@@@Z$2 610450d9 f i  CIL library: CIL module
 0001:000441ad       __catch$??1ReadOnlyFileAccess@@QAE@XZ$0 610451ad f i  CIL library: CIL module
 0001:00044370       __catch$?compress_file@CompressFiles@@QAEXABVUnicodeString@col@@ABUFindData@@@Z$0 61045370 f    CIL library: CIL module
 0001:000443a5       __catch$?compress_file@CompressFiles@@QAEXABVUnicodeString@col@@ABUFindData@@@Z$2 610453a5 f    CIL library: CIL module
 0001:00044551       __catch$?compress_file@CompressFiles@@QAEXABVUnicodeString@col@@ABUFindData@@@Z$4 61045551 f    CIL library: CIL module
 0001:000445b4       __catch$?compress_file@CompressFiles@@QAEXABVUnicodeString@col@@ABUFindData@@@Z$5 610455b4 f    CIL library: CIL module
 0001:0004464e       __catch$?compress_file@CompressFiles@@QAEXABVUnicodeString@col@@ABUFindData@@@Z$8 6104564e f    CIL library: CIL module
 0001:000446b7       __catch$?compress_file@CompressFiles@@QAEXABVUnicodeString@col@@ABUFindData@@@Z$10 610456b7 f    CIL library: CIL module
 0001:00044720       __catch$?compress_file@CompressFiles@@QAEXABVUnicodeString@col@@ABUFindData@@@Z$12 61045720 f    CIL library: CIL module
 0001:0004477a       __catch$?compress_file@CompressFiles@@QAEXABVUnicodeString@col@@ABUFindData@@@Z$14 6104577a f    CIL library: CIL module
 0001:000448af       __catch$?compress_file@CompressFiles@@QAEXABVUnicodeString@col@@ABUFindData@@@Z$16 610458af f    CIL library: CIL module
 0001:00044903       __catch$?compress_file@CompressFiles@@QAEXABVUnicodeString@col@@ABUFindData@@@Z$18 61045903 f    CIL library: CIL module
 0001:00044aca       __catch$?compress_directory@CompressFiles@@QAEXABVUnicodeString@col@@@Z$0 61045aca f    CIL library: CIL module
 0001:00044cf7       __catch$?process@CompressFiles@@QAEXABV?$ObjectArray@VUnicodeString@col@@@col@@@Z$0 61045cf7 f    CIL library: CIL module
 0001:0004502e       __catch$?process@CompressFiles@@QAEXABV?$ObjectArray@VUnicodeString@col@@@col@@@Z$2 6104602e f    CIL library: CIL module
 0001:000452f4       __catch$?dialog_proc@CompressFilesDialog@@CGHPAXHH0@Z$0 610462f4 f i  CIL library: CIL module
 0001:00045303       __catch$?dialog_proc@CompressFilesDialog@@CGHPAXHH0@Z$1 61046303 f i  CIL library: CIL module
 0001:0004531a       __catch$?dialog_proc@CompressFilesDialog@@CGHPAXHH0@Z$2 6104631a f i  CIL library: CIL module
 0001:00045331       __catch$?dialog_proc@CompressFilesDialog@@CGHPAXHH0@Z$3 61046331 f i  CIL library: CIL module
 0001:00045941       __catch$??$_Insert@V?$_Vector_iterator@V?$_Vector_val@PAXV?$allocator@PAX@std@@@std@@@std@@@?$vector@PAXV?$allocator@PAX@std@@@std@@QAEXV?$_Vector_const_iterator@V?$_Vector_val@PAXV?$allocator@PAX@std@@@std@@@1@V?$_Vector_iterator@V?$_Vector_val@PAXV?$allocator@PAX@std@@@std@@@1@1Uforward_iterator_tag@1@@Z$0 61046941 f i  CIL library: CIL module
 0001:00045b28       __catch$?next@VolumeEnum@@QAE_NXZ$0 61046b28 f i  CIL library: CIL module
 0001:00045b7f       __catch$?next@VolumeEnum@@QAE_NXZ$2 61046b7f f i  CIL library: CIL module
 0001:00045cfb       __catch$?next@LogicalDrivesEnum@@QAE_NXZ$0 61046cfb f i  CIL library: CIL module
 0001:00045f09       __catch$?get_volume_mount_points@@YA?AV?$list@V?$basic_string@_WU?$char_traits@_W@std@@V?$allocator@_W@2@@std@@V?$allocator@V?$basic_string@_WU?$char_traits@_W@std@@V?$allocator@_W@2@@std@@@2@@std@@ABV?$basic_string@_WU?$char_traits@_W@std@@V?$allocator@_W@2@@2@@Z$0 61046f09 f    CIL library: CIL module
 0001:00047812       __catch$?_Buynode@?$_List_val@UVolumeItem@@V?$allocator@UVolumeItem@@@std@@@std@@QAEPAU_Node@?$_List_nod@UVolumeItem@@V?$allocator@UVolumeItem@@@std@@@2@PAU342@0ABUVolumeItem@@@Z$0 61048812 f i  CIL library: CIL module
 0001:0004860c       __catch$??$_Buynode@V?$basic_string@_WU?$char_traits@_W@std@@V?$allocator@_W@2@@std@@@?$_List_val@V?$basic_string@_WU?$char_traits@_W@std@@V?$allocator@_W@2@@std@@V?$allocator@V?$basic_string@_WU?$char_traits@_W@std@@V?$allocator@_W@2@@std@@@2@@std@@QAEPAU_Node@?$_List_nod@V?$basic_string@_WU?$char_traits@_W@std@@V?$allocator@_W@2@@std@@V?$allocator@V?$basic_string@_WU?$char_traits@_W@std@@V?$allocator@_W@2@@std@@@2@@1@PAU231@0$$QAV?$basic_string@_WU?$char_traits@_W@std@@V?$allocator@_W@2@@1@@Z$0 6104960c f i  CIL library: CIL module
 0001:00048717       __catch$??$_Buynode@U?$pair@$$CBV?$basic_string@_WU?$char_traits@_W@std@@V?$allocator@_W@2@@std@@V12@@std@@@?$_Tree_val@V?$_Tmap_traits@V?$basic_string@_WU?$char_traits@_W@std@@V?$allocator@_W@2@@std@@V12@U?$less@V?$basic_string@_WU?$char_traits@_W@std@@V?$allocator@_W@2@@std@@@2@V?$allocator@U?$pair@$$CBV?$basic_string@_WU?$char_traits@_W@std@@V?$allocator@_W@2@@std@@V12@@std@@@2@$0A@@std@@@std@@QAEPAU_Node@?$_Tree_nod@V?$_Tmap_traits@V?$basic_string@_WU?$char_traits@_W@std@@V?$allocator@_W@2@@std@@V12@U?$less@V?$basic_string@_WU?$char_traits@_W@std@@V?$allocator@_W@2@@std@@@2@V?$allocator@U?$pair@$$CBV?$basic_string@_WU?$char_traits@_W@std@@V?$allocator@_W@2@@std@@V12@@std@@@2@$0A@@std@@@1@$$QAU?$pair@$$CBV?$basic_string@_WU?$char_traits@_W@std@@V?$allocator@_W@2@@std@@V12@@1@@Z$0 61049717 f i  CIL library: CIL module
 0001:00048897       __catch$??0?$list@V?$basic_string@_WU?$char_traits@_W@std@@V?$allocator@_W@2@@std@@V?$allocator@V?$basic_string@_WU?$char_traits@_W@std@@V?$allocator@_W@2@@std@@@2@@std@@QAE@ABV01@@Z$0 61049897 f i  CIL library: CIL module
 0001:0004895a       __catch$??$_Insert@V?$_List_const_iterator@V?$_List_val@V?$basic_string@_WU?$char_traits@_W@std@@V?$allocator@_W@2@@std@@V?$allocator@V?$basic_string@_WU?$char_traits@_W@std@@V?$allocator@_W@2@@std@@@2@@std@@@std@@@?$list@V?$basic_string@_WU?$char_traits@_W@std@@V?$allocator@_W@2@@std@@V?$allocator@V?$basic_string@_WU?$char_traits@_W@std@@V?$allocator@_W@2@@std@@@2@@std@@QAEXV?$_List_const_iterator@V?$_List_val@V?$basic_string@_WU?$char_traits@_W@std@@V?$allocator@_W@2@@std@@V?$allocator@V?$basic_string@_WU?$char_traits@_W@std@@V?$allocator@_W@2@@std@@@2@@std@@@1@00Uforward_iterator_tag@1@@Z$0 6104995a f i  CIL library: CIL module
 0001:00048a31       __catch$?_Buynode@?$_List_val@V?$basic_string@_WU?$char_traits@_W@std@@V?$allocator@_W@2@@std@@V?$allocator@V?$basic_string@_WU?$char_traits@_W@std@@V?$allocator@_W@2@@std@@@2@@std@@QAEPAU_Node@?$_List_nod@V?$basic_string@_WU?$char_traits@_W@std@@V?$allocator@_W@2@@std@@V?$allocator@V?$basic_string@_WU?$char_traits@_W@std@@V?$allocator@_W@2@@std@@@2@@2@PAU342@0ABV?$basic_string@_WU?$char_traits@_W@std@@V?$allocator@_W@2@@2@@Z$0 61049a31 f i  CIL library: CIL module
 0001:00048b70       _do_compress               61049b70 f    CIL library: CIL module
 0001:0004a5d0       _err_string_data_LHASH_HASH 6104b5d0 f    CIL library: CIL module
 0001:0004a610       _int_err_get               6104b610 f    CIL library: CIL module
 0001:0004a6a0       _int_err_del               6104b6a0 f    CIL library: CIL module
 0001:0004a700       _int_err_get_item          6104b700 f    CIL library: CIL module
 0001:0004a7e0       _int_err_set_item          6104b7e0 f    CIL library: CIL module
 0001:0004a8a0       _int_err_del_item          6104b8a0 f    CIL library: CIL module
 0001:0004a960       _err_state_LHASH_HASH      6104b960 f    CIL library: CIL module
 0001:0004a970       _err_state_LHASH_COMP      6104b970 f    CIL library: CIL module
 0001:0004a970       _app_info_LHASH_COMP       6104b970 f    CIL library: CIL module
 0001:0004a980       _int_thread_get            6104b980 f    CIL library: CIL module
 0001:0004aa10       _int_thread_release        6104ba10 f    CIL library: CIL module
 0001:0004aa30       _int_thread_get_item       6104ba30 f    CIL library: CIL module
 0001:0004ab30       _int_thread_set_item       6104bb30 f    CIL library: CIL module
 0001:0004ac10       _int_thread_del_item       6104bc10 f    CIL library: CIL module
 0001:0004ad20       _int_err_get_next_lib      6104bd20 f    CIL library: CIL module
 0001:0004ad70       _ERR_STATE_free            6104bd70 f    CIL library: CIL module
 0001:0004b350       _default_malloc_ex         6104c350 f    CIL library: CIL module
 0001:0004b360       _default_realloc_ex        6104c360 f    CIL library: CIL module
 0001:0004b840       _doall_util_fn             6104c840 f    CIL library: CIL module
 0001:0004b890       _expand                    6104c890 f    CIL library: CIL module
 0001:0004b970       _contract                  6104c970 f    CIL library: CIL module
 0001:0004ba10       _getrn                     6104ca10 f    CIL library: CIL module
 0001:0004bba0       _app_info_LHASH_HASH       6104cba0 f    CIL library: CIL module
 0001:0004bbd0       _pop_info                  6104cbd0 f    CIL library: CIL module
 0001:0004c0e0       _file_new                  6104d0e0 f    CIL library: CIL module
 0001:0004c100       _file_free                 6104d100 f    CIL library: CIL module
 0001:0004c150       _file_read                 6104d150 f    CIL library: CIL module
 0001:0004c1d0       _file_write                6104d1d0 f    CIL library: CIL module
 0001:0004c200       _file_ctrl                 6104d200 f    CIL library: CIL module
 0001:0004c5e0       _file_gets                 6104d5e0 f    CIL library: CIL module
 0001:0004c630       _file_puts                 6104d630 f    CIL library: CIL module
 0001:0004c680       _ex_class_item_LHASH_HASH  6104d680 f    CIL library: CIL module
 0001:0004c690       _err_string_data_LHASH_COMP 6104d690 f    CIL library: CIL module
 0001:0004c690       _ex_class_item_LHASH_COMP  6104d690 f    CIL library: CIL module
 0001:0004c6a0       _ex_data_check             6104d6a0 f    CIL library: CIL module
 0001:0004c710       _def_cleanup_util_cb       6104d710 f    CIL library: CIL module
 0001:0004c750       _def_get_class             6104d750 f    CIL library: CIL module
 0001:0004c8b0       _def_add_index             6104d8b0 f    CIL library: CIL module
 0001:0004ca30       _int_new_class             6104da30 f    CIL library: CIL module
 0001:0004ca80       _int_cleanup               6104da80 f    CIL library: CIL module
 0001:0004cad0       _int_get_new_index         6104dad0 f    CIL library: CIL module
 0001:0004cb10       _int_new_ex_data           6104db10 f    CIL library: CIL module
 0001:0004cd00       _int_dup_ex_data           6104dd00 f    CIL library: CIL module
 0001:0004ced0       _int_free_ex_data          6104ded0 f    CIL library: CIL module
 0001:00050989       __onexit_nolock            61051989 f   LIBCMT:onexit.obj
 0001:00050b33       __callthreadstartex        61051b33 f   LIBCMT:threadex.obj
 0001:00050b74       __threadstartex@4          61051b74 f   LIBCMT:threadex.obj
 0001:00050c80       _shortsort                 61051c80 f   LIBCMT:qsort.obj
 0001:00051434       @x64tow@20                 61052434 f   LIBCMT:xtow.obj
 0001:0005152d       _xtow_s@20                 6105252d f   LIBCMT:xtows.obj
 0001:00051928       ___DllMainCRTStartup       61052928 f   LIBCMT:dllcrt0.obj
 0001:00051a5f       _siglookup                 61052a5f f   LIBCMT:winsig.obj
 0001:00051f40       _doexit                    61052f40 f   LIBCMT:crt0dat.obj
 0001:000520c3       ?strtoxl@@YAKPAUlocaleinfo_struct@@PBDPAPBDHH@Z 610530c3 f   LIBCMT:strtol.obj
 0001:00052828       _flsall                    61053828 f   LIBCMT:fflush.obj
 0001:0005498e       ?CPtoLCID@@YAHH@Z          6105598e f   LIBCMT:mbctype.obj
 0001:000549bd       ?setSBCS@@YAXPAUthreadmbcinfostruct@@@Z 610559bd f   LIBCMT:mbctype.obj
 0001:00054a21       ?setSBUpLow@@YAXPAUthreadmbcinfostruct@@@Z 61055a21 f   LIBCMT:mbctype.obj
 0001:00054c55       ?getSystemCP@@YAHH@Z       61055c55 f   LIBCMT:mbctype.obj
 0001:00055575       ?wcstoxl@@YAKPB_WPAPB_WHH@Z 61056575 f   LIBCMT:wcstol.obj
 0001:00055ac5       _parse_cmdline             61056ac5 f   LIBCMT:stdargv.obj
 0001:00057570       __unwind_handler4          61058570 f   LIBCMT:exsup4.obj
 0001:00058925       __shift                    61059925 f   LIBCMT:cvt.obj
 0001:0005896a       __cftoe2_l                 6105996a f   LIBCMT:cvt.obj
 0001:00058f28       __cftof2_l                 61059f28 f   LIBCMT:cvt.obj
 0001:0005981e       ?__crtLCMapStringA_stat@@YAHPAUlocaleinfo_struct@@KKPBDHPADHHH@Z 6105a81e f   LIBCMT:a_map.obj
 0001:00059a4b       ?__crtGetStringTypeA_stat@@YAHPAUlocaleinfo_struct@@KPBDHPAGHHH@Z 6105aa4b f   LIBCMT:a_str.obj
 0001:0005a404       ?x_ismbbtype_l@@YAHPAUlocaleinfo_struct@@IHH@Z 6105b404 f   LIBCMT:ismbbyte.obj
 0001:0005a6d1       ?__crtCompareStringA_stat@@YAHPAUlocaleinfo_struct@@KKPBDH1HH@Z 6105b6d1 f   LIBCMT:a_cmp.obj
 0001:0005aa6b       _findenv                   6105ba6b f   LIBCMT:setenv.obj
 0001:0005aabd       _copy_environ              6105babd f   LIBCMT:setenv.obj
 0001:0005af00       __unwind_handler           6105bf00 f   LIBCMT:exsup.obj
 0001:0005b017       __tsopen_nolock            6105c017 f   LIBCMT:open.obj
 0001:0005e0ae       __hw_cw                    6105f0ae f   LIBCMT:_ieee87_.obj
 0001:0005e13c       ___hw_cw_sse2              6105f13c f   LIBCMT:_ieee87_.obj
 0001:0005e998       ?CatchGuardHandler@@YA?AW4_EXCEPTION_DISPOSITION@@PAUEHExceptionRecord@@PAUCatchGuardRN@@PAX2@Z 6105f998 f   LIBCMT:_trnsctrl_.obj
 0001:0005eaa2       ?TranslatorGuardHandler@@YA?AW4_EXCEPTION_DISPOSITION@@PAUEHExceptionRecord@@PAUTranslatorGuardRN@@PAX2@Z 6105faa2 f   LIBCMT:_trnsctrl_.obj
 0001:0005ee9b       ?ExFilterRethrow@@YAHPAU_EXCEPTION_POINTERS@@@Z 6105fe9b f   LIBCMT:frame.obj
 0001:0005ef5e       ?IsInExceptionSpec@@YAEPAUEHExceptionRecord@@PBU_s_ESTypeList@@@Z 6105ff5e f   LIBCMT:frame.obj
 0001:0005efd4       ?CallUnexpected@@YAXPBU_s_ESTypeList@@@Z 6105ffd4 f   LIBCMT:frame.obj
 0001:0005f005       __catch$?CallUnexpected@@YAXPBU_s_ESTypeList@@@Z$0 61060005 f   LIBCMT:frame.obj
 0001:0005f01d       ?CallCatchBlock@@YAPAXPAUEHExceptionRecord@@PAUEHRegistrationNode@@PAU_CONTEXT@@PBU_s_FuncInfo@@PAXHK@Z 6106001d f   LIBCMT:frame.obj
 0001:0005f3ca       ?CatchIt@@YAXPAUEHExceptionRecord@@PAUEHRegistrationNode@@PAU_CONTEXT@@PAXPBU_s_FuncInfo@@PBU_s_HandlerType@@PBU_s_CatchableType@@PBU_s_TryBlockMapEntry@@H1E@Z 610603ca f   LIBCMT:frame.obj
 0001:0005f438       ?FindHandlerForForeignException@@YAXPAUEHExceptionRecord@@PAUEHRegistrationNode@@PAU_CONTEXT@@PAXPBU_s_FuncInfo@@HH1@Z 61060438 f   LIBCMT:frame.obj
 0001:0005f53f       ?FindHandler@@YAXPAUEHExceptionRecord@@PAUEHRegistrationNode@@PAU_CONTEXT@@PAXPBU_s_FuncInfo@@EH1@Z 6106053f f   LIBCMT:frame.obj
 0001:0005fa60       __unwindfunclet$??0ContentInfo@@QAE@XZ$0 61060a60 f    CIL library: CIL module
 0001:0005fa6d       __unwindfunclet$??0ContentInfo@@QAE@XZ$1 61060a6d f    CIL library: CIL module
 0001:0005fa7a       __unwindfunclet$??0ContentInfo@@QAE@XZ$2 61060a7a f    CIL library: CIL module
 0001:0005fa87       __unwindfunclet$??0ContentInfo@@QAE@XZ$3 61060a87 f    CIL library: CIL module
 0001:0005fa94       __unwindfunclet$??0ContentInfo@@QAE@XZ$4 61060a94 f    CIL library: CIL module
 0001:0005faa1       __ehhandler$??0ContentInfo@@QAE@XZ 61060aa1 f    CIL library: CIL module
 0001:0005fac0       __unwindfunclet$??0ListData@FarDialog@@QAE@XZ$0 61060ac0 f    CIL library: CIL module
 0001:0005faca       __ehhandler$??0ListData@FarDialog@@QAE@XZ 61060aca f    CIL library: CIL module
 0001:0005faf0       __unwindfunclet$?far_menu@@YAHABU_GUID@@ABVUnicodeString@col@@ABV?$ObjectArray@VUnicodeString@col@@@3@PB_W@Z$0 61060af0 f    CIL library: CIL module
 0001:0005fafa       __ehhandler$?far_menu@@YAHABU_GUID@@ABVUnicodeString@col@@ABV?$ObjectArray@VUnicodeString@col@@@3@PB_W@Z 61060afa f    CIL library: CIL module
 0001:0005fb30       __unwindfunclet$??0CompressionState@@QAE@XZ$0 61060b30 f    CIL library: CIL module
 0001:0005fb3d       __unwindfunclet$??0CompressionState@@QAE@XZ$1 61060b3d f    CIL library: CIL module
 0001:0005fb4a       __ehhandler$??0CompressionState@@QAE@XZ 61060b4a f    CIL library: CIL module
 0001:0005fb70       __unwindfunclet$??0SharedData@@QAE@XZ$0 61060b70 f    CIL library: CIL module
 0001:0005fb7d       __ehhandler$??0SharedData@@QAE@XZ 61060b7d f    CIL library: CIL module
 0001:0005fba0       __unwindfunclet$?ed2k_finalize_block_hashes@@YA?AV?$Array@E@col@@AAV12@IAAUMD4state_st@@@Z$0 61060ba0 f    CIL library: CIL module
 0001:0005fbba       __ehhandler$?ed2k_finalize_block_hashes@@YA?AV?$Array@E@col@@AAV12@IAAUMD4state_st@@@Z 61060bba f    CIL library: CIL module
 0001:0005fbf0       __unwindfunclet$??Hcol@@YA?AVUnicodeString@0@ABV10@AB_W@Z$0 61060bf0 f    CIL library: CIL module
 0001:0005fbf0       __unwindfunclet$??Hcol@@YA?AVAnsiString@0@ABV10@PBD@Z$0 61060bf0 f    CIL library: CIL module
 0001:0005fbf0       __unwindfunclet$??Hcol@@YA?AVUnicodeString@0@ABV10@0@Z$0 61060bf0 f    CIL library: CIL module
 0001:0005fbfa       __ehhandler$??Hcol@@YA?AVUnicodeString@0@ABV10@AB_W@Z 61060bfa f    CIL library: CIL module
 0001:0005fbfa       __ehhandler$??Hcol@@YA?AVAnsiString@0@ABV10@PBD@Z 61060bfa f    CIL library: CIL module
 0001:0005fbfa       __ehhandler$??Hcol@@YA?AVUnicodeString@0@ABV10@0@Z 61060bfa f    CIL library: CIL module
 0001:0005fc20       __unwindfunclet$?str_to_char_info@@YA?AV?$Array@UFAR_CHAR_INFO@@@col@@ABVUnicodeString@2@ABV?$Array@UFarColor@@@2@@Z$0 61060c20 f    CIL library: CIL module
 0001:0005fc3a       __ehhandler$?str_to_char_info@@YA?AV?$Array@UFAR_CHAR_INFO@@@col@@ABVUnicodeString@2@ABV?$Array@UFarColor@@@2@@Z 61060c3a f    CIL library: CIL module
 0001:0005fc60       __ehhandler$?next@LogicalDrivesEnum@@QAE_NXZ 61060c60 f    CIL library: CIL module
 0001:0005fc80       __ehhandler$?next@VolumeEnum@@QAE_NXZ 61060c80 f    CIL library: CIL module
 0001:0005fca0       __ehhandler$??$_Insert@V?$_Vector_iterator@V?$_Vector_val@PAXV?$allocator@PAX@std@@@std@@@std@@@?$vector@PAXV?$allocator@PAX@std@@@std@@QAEXV?$_Vector_const_iterator@V?$_Vector_val@PAXV?$allocator@PAX@std@@@std@@@1@V?$_Vector_iterator@V?$_Vector_val@PAXV?$allocator@PAX@std@@@std@@@1@1Uforward_iterator_tag@1@@Z 61060ca0 f    CIL library: CIL module
 0001:0005fcc0       __unwindfunclet$??1WorkerThreads@@QAE@XZ$0 61060cc0 f    CIL library: CIL module
 0001:0005fccb       __ehhandler$??1WorkerThreads@@QAE@XZ 61060ccb f    CIL library: CIL module
 0001:0005fcf0       __ehhandler$?allocate@Buffer@@QAEXIII@Z 61060cf0 f    CIL library: CIL module
 0001:0005fd10       __ehhandler$?get_time_freq@@YA_KXZ 61060d10 f    CIL library: CIL module
 0001:0005fd30       __ehhandler$?get_time@@YA_KXZ 61060d30 f    CIL library: CIL module
 0001:0005fd50       __ehhandler$?init_comp_api@@YAXXZ 61060d50 f    CIL library: CIL module
 0001:0005fd70       __ehhandler$?mft_find_root@FilePanel@@ABE_KXZ 61060d70 f    CIL library: CIL module
 0001:0005fd90       __ehhandler$?prepare_usn_journal@FilePanel@@AAEXXZ 61060d90 f    CIL library: CIL module
 0001:0005fdc0       __ehhandler$??1Clean_h_file@?7??defragment@@YAXABVUnicodeString@col@@AAVIDefragProgress@@@Z@QAE@XZ 61060dc0 f    CIL library: CIL module
 0001:0005fde0       __ehhandler$?read@File@@QAEIPAXI@Z 61060de0 f    CIL library: CIL module
 0001:0005fe00       __ehhandler$?size@File@@QAE_KXZ 61060e00 f    CIL library: CIL module
 0001:0005fe20       __ehhandler$??0Semaphore@@QAE@II@Z 61060e20 f    CIL library: CIL module
 0001:0005fe40       __ehhandler$??0Event@@QAE@_N0@Z 61060e40 f    CIL library: CIL module
 0001:0005fe60       __ehhandler$??1Clean_h_file@?BB@??show@Log@@QAEXXZ@QAE@XZ 61060e60 f    CIL library: CIL module
 0001:0005fe80       __unwindfunclet$??1ProgressMonitor@@UAE@XZ$0 61060e80 f    CIL library: CIL module
 0001:0005fe8d       __ehhandler$??1ProgressMonitor@@UAE@XZ 61060e8d f    CIL library: CIL module
 0001:0005feb0       __ehhandler$??1Clean_attr_data_buf@?EG@??process_base_file_rec@FileInfo@@QAEXXZ@QAE@XZ 61060eb0 f    CIL library: CIL module
 0001:0005fed0       __unwindfunclet$??0PluginItemList@@QAE@XZ$0 61060ed0 f    CIL library: CIL module
 0001:0005feda       __unwindfunclet$??0PluginItemList@@QAE@XZ$1 61060eda f    CIL library: CIL module
 0001:0005fee5       __unwindfunclet$??0PluginItemList@@QAE@XZ$2 61060ee5 f    CIL library: CIL module
 0001:0005fef0       __ehhandler$??0PluginItemList@@QAE@XZ 61060ef0 f    CIL library: CIL module
 0001:0005ff10       __ehhandler$??$compress_buffer@UCompressionState@@@@YA_NPAUCompressionState@@@Z 61060f10 f    CIL library: CIL module
 0001:0005ff30       __ehhandler$??$compress_buffer@USharedData@@@@YA_NPAUSharedData@@@Z 61060f30 f    CIL library: CIL module
 0001:0005ff50       __ehhandler$??$wth_proc@UCompressionState@@@@YGIPAX@Z 61060f50 f    CIL library: CIL module
 0001:0005ff70       __ehhandler$??$wth_proc@USharedData@@@@YGIPAX@Z 61060f70 f    CIL library: CIL module
 0001:0005ff90       __unwindfunclet$??Hcol@@YA?AVUnicodeString@0@ABV10@PB_W@Z$0 61060f90 f    CIL library: CIL module
 0001:0005ff9a       __ehhandler$??Hcol@@YA?AVUnicodeString@0@ABV10@PB_W@Z 61060f9a f    CIL library: CIL module
 0001:0005ffc0       __unwindfunclet$?far_get_text@@YA?AVUnicodeString@col@@PAXI@Z$0 61060fc0 f    CIL library: CIL module
 0001:0005ffda       __ehhandler$?far_get_text@@YA?AVUnicodeString@col@@PAXI@Z 61060fda f    CIL library: CIL module
 0001:00060000       __unwindfunclet$??0FileInfo@@QAE@XZ$0 61061000 f    CIL library: CIL module
 0001:0006000d       __unwindfunclet$??0FileInfo@@QAE@XZ$1 6106100d f    CIL library: CIL module
 0001:0006001a       __unwindfunclet$??0FileInfo@@QAE@XZ$2 6106101a f    CIL library: CIL module
 0001:00060027       __unwindfunclet$??0FileInfo@@QAE@XZ$3 61061027 f    CIL library: CIL module
 0001:00060032       __ehhandler$??0FileInfo@@QAE@XZ 61061032 f    CIL library: CIL module
 0001:00060050       __ehhandler$?close@NtfsVolume@@QAEXXZ 61061050 f    CIL library: CIL module
 0001:00060070       __unwindfunclet$??1NtfsVolume@@QAE@XZ$0 61061070 f    CIL library: CIL module
 0001:0006007a       __ehhandler$??1NtfsVolume@@QAE@XZ 6106107a f    CIL library: CIL module
 0001:000600a0       __unwindfunclet$??1?$map@V?$basic_string@_WU?$char_traits@_W@std@@V?$allocator@_W@2@@std@@V12@U?$less@V?$basic_string@_WU?$char_traits@_W@std@@V?$allocator@_W@2@@std@@@2@V?$allocator@U?$pair@$$CBV?$basic_string@_WU?$char_traits@_W@std@@V?$allocator@_W@2@@std@@V12@@std@@@2@@std@@QAE@XZ$1 610610a0 f    CIL library: CIL module
 0001:000600a0       __unwindfunclet$??1?$set@_KU?$less@_K@std@@V?$allocator@_K@2@@std@@QAE@XZ$1 610610a0 f    CIL library: CIL module
 0001:000600a0       __unwindfunclet$??1?$map@_KIU?$less@_K@std@@V?$allocator@U?$pair@$$CB_KI@std@@@2@@std@@QAE@XZ$1 610610a0 f    CIL library: CIL module
 0001:000600aa       __ehhandler$??1?$map@_KIU?$less@_K@std@@V?$allocator@U?$pair@$$CB_KI@std@@@2@@std@@QAE@XZ 610610aa f    CIL library: CIL module
 0001:000600aa       __ehhandler$??1?$map@V?$basic_string@_WU?$char_traits@_W@std@@V?$allocator@_W@2@@std@@V12@U?$less@V?$basic_string@_WU?$char_traits@_W@std@@V?$allocator@_W@2@@std@@@2@V?$allocator@U?$pair@$$CBV?$basic_string@_WU?$char_traits@_W@std@@V?$allocator@_W@2@@std@@V12@@std@@@2@@std@@QAE@XZ 610610aa f    CIL library: CIL module
 0001:000600aa       __ehhandler$??1?$set@_KU?$less@_K@std@@V?$allocator@_K@2@@std@@QAE@XZ 610610aa f    CIL library: CIL module
 0001:000600d0       __unwindfunclet$??1CompressFiles@@UAE@XZ$0 610610d0 f    CIL library: CIL module
 0001:000600d8       __ehhandler$??1CompressFiles@@UAE@XZ 610610d8 f    CIL library: CIL module
 0001:00060100       __unwindfunclet$?get_certificate_info@@YA?AUCertificateInfo@@PAXPBU_CMSG_SIGNER_INFO@@@Z$2 61061100 f    CIL library: CIL module
 0001:0006010a       __unwindfunclet$?get_certificate_info@@YA?AUCertificateInfo@@PAXPBU_CMSG_SIGNER_INFO@@@Z$0 6106110a f    CIL library: CIL module
 0001:00060129       __unwindfunclet$?get_certificate_info@@YA?AUCertificateInfo@@PAXPBU_CMSG_SIGNER_INFO@@@Z$1 61061129 f    CIL library: CIL module
 0001:00060136       __ehhandler$?get_certificate_info@@YA?AUCertificateInfo@@PAXPBU_CMSG_SIGNER_INFO@@@Z 61061136 f    CIL library: CIL module
 0001:00060160       __unwindfunclet$?add@Log@@QAEXABVUnicodeString@col@@0@Z$1 61061160 f    CIL library: CIL module
 0001:0006016a       __unwindfunclet$?add@Log@@QAEXABVUnicodeString@col@@0@Z$0 6106116a f    CIL library: CIL module
 0001:00060172       __ehhandler$?add@Log@@QAEXABVUnicodeString@col@@0@Z 61061172 f    CIL library: CIL module
 0001:00060190       __unwindfunclet$?get_text@FarDialog@@QAE?AVUnicodeString@col@@I@Z$0 61061190 f    CIL library: CIL module
 0001:000601aa       __ehhandler$?get_text@FarDialog@@QAE?AVUnicodeString@col@@I@Z 610611aa f    CIL library: CIL module
 0001:000601d0       __ehhandler$?_Copy@?$basic_string@_WU?$char_traits@_W@std@@V?$allocator@_W@2@@std@@QAEXII@Z 610611d0 f    CIL library: CIL module
 0001:000601f0       __unwindfunclet$?get_temp_path@@YA?AVUnicodeString@col@@XZ$2 610611f0 f    CIL library: CIL module
 0001:0006020a       __ehhandler$?get_temp_path@@YA?AVUnicodeString@col@@XZ 6106120a f    CIL library: CIL module
 0001:00060230       __unwindfunclet$?far_get_full_path@@YA?AVUnicodeString@col@@ABV12@@Z$0 61061230 f    CIL library: CIL module
 0001:00060230       __unwindfunclet$?get_real_path@@YA?AVUnicodeString@col@@ABV12@@Z$0 61061230 f    CIL library: CIL module
 0001:0006024a       __ehhandler$?far_get_full_path@@YA?AVUnicodeString@col@@ABV12@@Z 6106124a f    CIL library: CIL module
 0001:0006024a       __ehhandler$?get_real_path@@YA?AVUnicodeString@col@@ABV12@@Z 6106124a f    CIL library: CIL module
 0001:00060270       __ehhandler$?update_ui@ProgressMonitor@@QAEX_N@Z 61061270 f    CIL library: CIL module
 0001:000602a0       __unwindfunclet$?get_module_version@@YA?AUModuleVersion@@PAUHINSTANCE__@@@Z$0 610612a0 f    CIL library: CIL module
 0001:000602aa       __unwindfunclet$?get_module_version@@YA?AUModuleVersion@@PAUHINSTANCE__@@@Z$1 610612aa f    CIL library: CIL module
 0001:000602b4       __ehhandler$?get_module_version@@YA?AUModuleVersion@@PAUHINSTANCE__@@@Z 610612b4 f    CIL library: CIL module
 0001:000602d0       __unwindfunclet$?word_wrap@@YA?AVUnicodeString@col@@ABV12@I@Z$0 610612d0 f    CIL library: CIL module
 0001:000602ea       __ehhandler$?word_wrap@@YA?AVUnicodeString@col@@ABV12@I@Z 610612ea f    CIL library: CIL module
 0001:00060310       __unwindfunclet$?format_data_size@@YA?AVUnicodeString@col@@_KABV?$ObjectArray@VUnicodeString@col@@@2@@Z$0 61061310 f    CIL library: CIL module
 0001:0006032a       __ehhandler$?format_data_size@@YA?AVUnicodeString@col@@_KABV?$ObjectArray@VUnicodeString@col@@@2@@Z 6106132a f    CIL library: CIL module
 0001:00060360       __unwindfunclet$?unicode_to_ansi@@YA?AVAnsiString@col@@ABVUnicodeString@2@I@Z$0 61061360 f    CIL library: CIL module
 0001:0006036a       __ehhandler$?unicode_to_ansi@@YA?AVAnsiString@col@@ABVUnicodeString@2@I@Z 6106136a f    CIL library: CIL module
 0001:00060390       __unwindfunclet$?ansi_to_unicode@@YA?AVUnicodeString@col@@ABVAnsiString@2@I@Z$0 61061390 f    CIL library: CIL module
 0001:0006039a       __ehhandler$?ansi_to_unicode@@YA?AVUnicodeString@col@@ABVAnsiString@2@I@Z 6106139a f    CIL library: CIL module
 0001:000603c0       __ehhandler$?oem_to_unicode@@YAXAAVUnicodeString@col@@ABVAnsiString@2@@Z 610613c0 f    CIL library: CIL module
 0001:000603e0       __ehhandler$?unicode_to_oem@@YAXAAVAnsiString@col@@ABVUnicodeString@2@@Z 610613e0 f    CIL library: CIL module
 0001:00060400       __unwindfunclet$??1FilePanel@@QAE@XZ$13 61061400 f    CIL library: CIL module
 0001:0006040a       __ehhandler$??1FilePanel@@QAE@XZ 6106140a f    CIL library: CIL module
 0001:00060430       __unwindfunclet$??0FilePanel@@AAE@XZ$0 61061430 f    CIL library: CIL module
 0001:0006043a       __unwindfunclet$??0FilePanel@@AAE@XZ$1 6106143a f    CIL library: CIL module
 0001:00060447       __unwindfunclet$??0FilePanel@@AAE@XZ$2 61061447 f    CIL library: CIL module
 0001:00060454       __unwindfunclet$??0FilePanel@@AAE@XZ$3 61061454 f    CIL library: CIL module
 0001:00060461       __unwindfunclet$??0FilePanel@@AAE@XZ$4 61061461 f    CIL library: CIL module
 0001:0006046e       __unwindfunclet$??0FilePanel@@AAE@XZ$5 6106146e f    CIL library: CIL module
 0001:0006047b       __unwindfunclet$??0FilePanel@@AAE@XZ$6 6106147b f    CIL library: CIL module
 0001:00060488       __unwindfunclet$??0FilePanel@@AAE@XZ$7 61061488 f    CIL library: CIL module
 0001:00060495       __unwindfunclet$??0FilePanel@@AAE@XZ$8 61061495 f    CIL library: CIL module
 0001:000604a2       __unwindfunclet$??0FilePanel@@AAE@XZ$9 610614a2 f    CIL library: CIL module
 0001:000604af       __unwindfunclet$??0FilePanel@@AAE@XZ$14 610614af f    CIL library: CIL module
 0001:000604b9       __unwindfunclet$??0FilePanel@@AAE@XZ$15 610614b9 f    CIL library: CIL module
 0001:000604c6       __unwindfunclet$??0FilePanel@@AAE@XZ$16 610614c6 f    CIL library: CIL module
 0001:000604d3       __unwindfunclet$??0FilePanel@@AAE@XZ$10 610614d3 f    CIL library: CIL module
 0001:000604de       __unwindfunclet$??0FilePanel@@AAE@XZ$11 610614de f    CIL library: CIL module
 0001:000604ec       __ehhandler$??0FilePanel@@AAE@XZ 610614ec f    CIL library: CIL module
 0001:00060510       __unwindfunclet$?do_format@UnicodeString@col@@AAEAAV12@PB_WPAD@Z$0 61061510 f    CIL library: CIL module
 0001:0006051d       __ehhandler$?do_format@UnicodeString@col@@AAEAAV12@PB_WPAD@Z 6106151d f    CIL library: CIL module
 0001:00060550       __unwindfunclet$??Hcol@@YA?AVUnicodeString@0@PB_WABV10@@Z$0 61061550 f    CIL library: CIL module
 0001:0006055a       __ehhandler$??Hcol@@YA?AVUnicodeString@0@PB_WABV10@@Z 6106155a f    CIL library: CIL module
 0001:00060580       __unwindfunclet$?file_list_from_cmdline@@YA_NABVUnicodeString@col@@AAV?$ObjectArray@VUnicodeString@col@@@2@AAV12@@Z$1 61061580 f    CIL library: CIL module
 0001:0006058a       __unwindfunclet$?file_list_from_cmdline@@YA_NABVUnicodeString@col@@AAV?$ObjectArray@VUnicodeString@col@@@2@AAV12@@Z$2 6106158a f    CIL library: CIL module
 0001:00060594       __ehhandler$?file_list_from_cmdline@@YA_NABVUnicodeString@col@@AAV?$ObjectArray@VUnicodeString@col@@@2@AAV12@@Z 61061594 f    CIL library: CIL module
 0001:000605b0       __unwindfunclet$??1FileAnalyzer@@QAE@XZ$0 610615b0 f    CIL library: CIL module
 0001:000605b8       __unwindfunclet$??1FileAnalyzer@@QAE@XZ$1 610615b8 f    CIL library: CIL module
 0001:000605c3       __unwindfunclet$??1FileAnalyzer@@QAE@XZ$2 610615c3 f    CIL library: CIL module
 0001:000605d0       __unwindfunclet$??1FileAnalyzer@@QAE@XZ$7 610615d0 f    CIL library: CIL module
 0001:000605da       __ehhandler$??1FileAnalyzer@@QAE@XZ 610615da f    CIL library: CIL module
 0001:00060600       __unwindfunclet$??0FileAnalyzer@@QAE@XZ$0 61061600 f    CIL library: CIL module
 0001:00060608       __unwindfunclet$??0FileAnalyzer@@QAE@XZ$7 61061608 f    CIL library: CIL module
 0001:00060615       __unwindfunclet$??0FileAnalyzer@@QAE@XZ$8 61061615 f    CIL library: CIL module
 0001:00060622       __unwindfunclet$??0FileAnalyzer@@QAE@XZ$9 61061622 f    CIL library: CIL module
 0001:0006062f       __unwindfunclet$??0FileAnalyzer@@QAE@XZ$10 6106162f f    CIL library: CIL module
 0001:0006063a       __unwindfunclet$??0FileAnalyzer@@QAE@XZ$1 6106163a f    CIL library: CIL module
 0001:00060645       __unwindfunclet$??0FileAnalyzer@@QAE@XZ$2 61061645 f    CIL library: CIL module
 0001:00060652       __unwindfunclet$??0FileAnalyzer@@QAE@XZ$3 61061652 f    CIL library: CIL module
 0001:0006065f       __unwindfunclet$??0FileAnalyzer@@QAE@XZ$4 6106165f f    CIL library: CIL module
 0001:0006066e       __unwindfunclet$??0FileAnalyzer@@QAE@XZ$5 6106166e f    CIL library: CIL module
 0001:0006067c       __ehhandler$??0FileAnalyzer@@QAE@XZ 6106167c f    CIL library: CIL module
 0001:000606a0       __ehhandler$?run_compression_thread@CompressFiles@@QAEXXZ 610616a0 f    CIL library: CIL module
 0001:000606c0       __ehhandler$?thread_proc@WorkerThreads@@CGIPAX@Z 610616c0 f    CIL library: CIL module
 0001:000606e0       __ehhandler$?get_comp_work_buffer_size@@YAIXZ 610616e0 f    CIL library: CIL module
 0001:00060700       __unwindfunclet$?mft_scan_dir@FilePanel@@AAEX_KABVUnicodeString@col@@AAV?$list@UPanelItemData@FilePanel@@V?$allocator@UPanelItemData@FilePanel@@@std@@@std@@AAVFileListProgress@@@Z$3 61061700 f    CIL library: CIL module
 0001:0006070a       __unwindfunclet$?mft_scan_dir@FilePanel@@AAEX_KABVUnicodeString@col@@AAV?$list@UPanelItemData@FilePanel@@V?$allocator@UPanelItemData@FilePanel@@@std@@@std@@AAVFileListProgress@@@Z$0 6106170a f    CIL library: CIL module
 0001:00060712       __unwindfunclet$?mft_scan_dir@FilePanel@@AAEX_KABVUnicodeString@col@@AAV?$list@UPanelItemData@FilePanel@@V?$allocator@UPanelItemData@FilePanel@@@std@@@std@@AAVFileListProgress@@@Z$1 61061712 f    CIL library: CIL module
 0001:0006071f       __ehhandler$?mft_scan_dir@FilePanel@@AAEX_KABVUnicodeString@col@@AAV?$list@UPanelItemData@FilePanel@@V?$allocator@UPanelItemData@FilePanel@@@std@@@std@@AAVFileListProgress@@@Z 6106171f f    CIL library: CIL module
 0001:00060740       __unwindfunclet$??0DefragProgress@@QAE@XZ$0 61061740 f    CIL library: CIL module
 0001:00060748       __ehhandler$??0DefragProgress@@QAE@XZ 61061748 f    CIL library: CIL module
 0001:00060770       __unwindfunclet$?draw_text_box@@YAXABVUnicodeString@col@@ABV?$ObjectArray@VUnicodeString@col@@@2@I@Z$0 61061770 f    CIL library: CIL module
 0001:0006077a       __unwindfunclet$?draw_text_box@@YAXABVUnicodeString@col@@ABV?$ObjectArray@VUnicodeString@col@@@2@I@Z$1 6106177a f    CIL library: CIL module
 0001:00060784       __ehhandler$?draw_text_box@@YAXABVUnicodeString@col@@ABV?$ObjectArray@VUnicodeString@col@@@2@I@Z 61061784 f    CIL library: CIL module
 0001:000607a0       __unwindfunclet$?get_volume_guid@@YA?AVUnicodeString@col@@ABV12@@Z$4 610617a0 f    CIL library: CIL module
 0001:000607aa       __unwindfunclet$?get_volume_guid@@YA?AVUnicodeString@col@@ABV12@@Z$5 610617aa f    CIL library: CIL module
 0001:000607b4       __ehhandler$?get_volume_guid@@YA?AVUnicodeString@col@@ABV12@@Z 610617b4 f    CIL library: CIL module
 0001:000607d0       __unwindfunclet$?far_get_selected_panel_item@@YAPAUPluginPanelItem@@PAXI@Z$0 610617d0 f    CIL library: CIL module
 0001:000607de       __ehhandler$?far_get_selected_panel_item@@YAPAUPluginPanelItem@@PAXI@Z 610617de f    CIL library: CIL module
 0001:00060800       __unwindfunclet$?far_get_panel_item@@YAPAUPluginPanelItem@@PAXI@Z$0 61061800 f    CIL library: CIL module
 0001:0006080e       __ehhandler$?far_get_panel_item@@YAPAUPluginPanelItem@@PAXI@Z 6106180e f    CIL library: CIL module
 0001:00060830       __unwindfunclet$?far_get_panel_dir@@YA?AVUnicodeString@col@@PAX@Z$2 61061830 f    CIL library: CIL module
 0001:0006083a       __ehhandler$?far_get_panel_dir@@YA?AVUnicodeString@col@@PAX@Z 6106183a f    CIL library: CIL module
 0001:00060860       __unwindfunclet$?split_str@@YA?AV?$ObjectArray@VUnicodeString@col@@@col@@ABVUnicodeString@2@_W@Z$0 61061860 f    CIL library: CIL module
 0001:00060879       __unwindfunclet$?split_str@@YA?AV?$ObjectArray@VUnicodeString@col@@@col@@ABVUnicodeString@2@_W@Z$1 61061879 f    CIL library: CIL module
 0001:00060883       __ehhandler$?split_str@@YA?AV?$ObjectArray@VUnicodeString@col@@@col@@ABVUnicodeString@2@_W@Z 61061883 f    CIL library: CIL module
 0001:000608a0       __unwindfunclet$?fit_str@@YA?AVUnicodeString@col@@ABV12@I@Z$1 610618a0 f    CIL library: CIL module
 0001:000608aa       __unwindfunclet$?fit_str@@YA?AVUnicodeString@col@@ABV12@I@Z$2 610618aa f    CIL library: CIL module
 0001:000608b4       __unwindfunclet$?fit_str@@YA?AVUnicodeString@col@@ABV12@I@Z$3 610618b4 f    CIL library: CIL module
 0001:000608be       __ehhandler$?fit_str@@YA?AVUnicodeString@col@@ABV12@I@Z 610618be f    CIL library: CIL module
 0001:000608e0       __unwindfunclet$?long_path@@YA?AVUnicodeString@col@@ABV12@@Z$1 610618e0 f    CIL library: CIL module
 0001:000608ea       __unwindfunclet$?long_path@@YA?AVUnicodeString@col@@ABV12@@Z$2 610618ea f    CIL library: CIL module
 0001:000608f4       __ehhandler$?long_path@@YA?AVUnicodeString@col@@ABV12@@Z 610618f4 f    CIL library: CIL module
 0001:00060910       __unwindfunclet$?load_suffixes@@YAXXZ$0 61061910 f    CIL library: CIL module
 0001:0006091a       __unwindfunclet$?load_suffixes@@YAXXZ$1 6106191a f    CIL library: CIL module
 0001:00060924       __unwindfunclet$?load_suffixes@@YAXXZ$2 61061924 f    CIL library: CIL module
 0001:0006092e       __unwindfunclet$?load_suffixes@@YAXXZ$3 6106192e f    CIL library: CIL module
 0001:00060938       __unwindfunclet$?load_suffixes@@YAXXZ$4 61061938 f    CIL library: CIL module
 0001:00060942       __unwindfunclet$?load_suffixes@@YAXXZ$5 61061942 f    CIL library: CIL module
 0001:0006094c       __unwindfunclet$?load_suffixes@@YAXXZ$6 6106194c f    CIL library: CIL module
 0001:00060956       __unwindfunclet$?load_suffixes@@YAXXZ$7 61061956 f    CIL library: CIL module
 0001:00060960       __unwindfunclet$?load_suffixes@@YAXXZ$8 61061960 f    CIL library: CIL module
 0001:0006096a       __unwindfunclet$?load_suffixes@@YAXXZ$9 6106196a f    CIL library: CIL module
 0001:00060974       __unwindfunclet$?load_suffixes@@YAXXZ$10 61061974 f    CIL library: CIL module
 0001:0006097e       __unwindfunclet$?load_suffixes@@YAXXZ$11 6106197e f    CIL library: CIL module
 0001:00060988       __unwindfunclet$?load_suffixes@@YAXXZ$12 61061988 f    CIL library: CIL module
 0001:00060992       __unwindfunclet$?load_suffixes@@YAXXZ$13 61061992 f    CIL library: CIL module
 0001:0006099c       __unwindfunclet$?load_suffixes@@YAXXZ$14 6106199c f    CIL library: CIL module
 0001:000609a6       __ehhandler$?load_suffixes@@YAXXZ 610619a6 f    CIL library: CIL module
 0001:000609d0       __unwindfunclet$?message@LzoError@@UBE?AVUnicodeString@col@@XZ$0 610619d0 f    CIL library: CIL module
 0001:000609d0       __unwindfunclet$?format@UnicodeString@col@@SA?AV12@PB_WZZ$0 610619d0 f    CIL library: CIL module
 0001:000609d0       __unwindfunclet$?oem_to_unicode@@YA?AVUnicodeString@col@@ABVAnsiString@2@@Z$0 610619d0 f    CIL library: CIL module
 0001:000609d0       __unwindfunclet$?unicode_to_oem@@YA?AVAnsiString@col@@ABVUnicodeString@2@@Z$0 610619d0 f    CIL library: CIL module
 0001:000609ea       __ehhandler$?oem_to_unicode@@YA?AVUnicodeString@col@@ABVAnsiString@2@@Z 610619ea f    CIL library: CIL module
 0001:000609ea       __ehhandler$?unicode_to_oem@@YA?AVAnsiString@col@@ABVUnicodeString@2@@Z 610619ea f    CIL library: CIL module
 0001:000609ea       __ehhandler$?format@UnicodeString@col@@SA?AV12@PB_WZZ 610619ea f    CIL library: CIL module
 0001:000609ea       __ehhandler$?message@LzoError@@UBE?AVUnicodeString@col@@XZ 610619ea f    CIL library: CIL module
 0001:00060a10       __unwindfunclet$??0FilePanelMode@@QAE@XZ$0 61061a10 f    CIL library: CIL module
 0001:00060a1a       __unwindfunclet$??0FilePanelMode@@QAE@XZ$1 61061a1a f    CIL library: CIL module
 0001:00060a27       __unwindfunclet$??0FilePanelMode@@QAE@XZ$2 61061a27 f    CIL library: CIL module
 0001:00060a34       __unwindfunclet$??0FilePanelMode@@QAE@XZ$3 61061a34 f    CIL library: CIL module
 0001:00060a41       __ehhandler$??0FilePanelMode@@QAE@XZ 61061a41 f    CIL library: CIL module
 0001:00060a60       __unwindfunclet$?decode_data_runs@FileInfo@@AAE?AV?$Array@UDataRun@FileInfo@@@col@@ABV?$Array@E@3@I@Z$6 61061a60 f    CIL library: CIL module
 0001:00060a7a       __ehhandler$?decode_data_runs@FileInfo@@AAE?AV?$Array@UDataRun@FileInfo@@@col@@ABV?$Array@E@3@I@Z 61061a7a f    CIL library: CIL module
 0001:00060aa0       __ehhandler$?find_attribute@FileInfo@@AAEIABV?$Array@E@col@@IG@Z 61061aa0 f    CIL library: CIL module
 0001:00060ac0       __ehhandler$?load_mft_record@FileInfo@@AAE_K_KAAV?$Array@E@col@@@Z 61061ac0 f    CIL library: CIL module
 0001:00060ae0       __unwindfunclet$??$?HPAX@col@@YA?AV?$Array@PAX@0@ABQAXABV10@@Z$0 61061ae0 f    CIL library: CIL module
 0001:00060ae0       __unwindfunclet$??Hcol@@YA?AVUnicodeString@0@AB_WABV10@@Z$0 61061ae0 f    CIL library: CIL module
 0001:00060aea       __ehhandler$??$?HPAX@col@@YA?AV?$Array@PAX@0@ABQAXABV10@@Z 61061aea f    CIL library: CIL module
 0001:00060aea       __ehhandler$??Hcol@@YA?AVUnicodeString@0@AB_WABV10@@Z 61061aea f    CIL library: CIL module
 0001:00060b10       __unwindfunclet$?parse_column_spec@FilePanel@@AAEXABVUnicodeString@col@@0AAV23@1_N@Z$0 61061b10 f    CIL library: CIL module
 0001:00060b1b       __unwindfunclet$?parse_column_spec@FilePanel@@AAEXABVUnicodeString@col@@0AAV23@1_N@Z$1 61061b1b f    CIL library: CIL module
 0001:00060b26       __unwindfunclet$?parse_column_spec@FilePanel@@AAEXABVUnicodeString@col@@0AAV23@1_N@Z$2 61061b26 f    CIL library: CIL module
 0001:00060b33       __unwindfunclet$?parse_column_spec@FilePanel@@AAEXABVUnicodeString@col@@0AAV23@1_N@Z$7 61061b33 f    CIL library: CIL module
 0001:00060b40       __unwindfunclet$?parse_column_spec@FilePanel@@AAEXABVUnicodeString@col@@0AAV23@1_N@Z$3 61061b40 f    CIL library: CIL module
 0001:00060b4a       __unwindfunclet$?parse_column_spec@FilePanel@@AAEXABVUnicodeString@col@@0AAV23@1_N@Z$5 61061b4a f    CIL library: CIL module
 0001:00060b54       __ehhandler$?parse_column_spec@FilePanel@@AAEXABVUnicodeString@col@@0AAV23@1_N@Z 61061b54 f    CIL library: CIL module
 0001:00060b90       __unwindfunclet$?create_panel_items@FilePanel@@AAE?AUPluginItemList@@ABV?$list@UPanelItemData@FilePanel@@V?$allocator@UPanelItemData@FilePanel@@@std@@@std@@_N@Z$0 61061b90 f    CIL library: CIL module
 0001:00060bb2       __unwindfunclet$?create_panel_items@FilePanel@@AAE?AUPluginItemList@@ABV?$list@UPanelItemData@FilePanel@@V?$allocator@UPanelItemData@FilePanel@@@std@@@std@@_N@Z$1 61061bb2 f    CIL library: CIL module
 0001:00060bbf       __unwindfunclet$?create_panel_items@FilePanel@@AAE?AUPluginItemList@@ABV?$list@UPanelItemData@FilePanel@@V?$allocator@UPanelItemData@FilePanel@@@std@@@std@@_N@Z$2 61061bbf f    CIL library: CIL module
 0001:00060bcc       __unwindfunclet$?create_panel_items@FilePanel@@AAE?AUPluginItemList@@ABV?$list@UPanelItemData@FilePanel@@V?$allocator@UPanelItemData@FilePanel@@@std@@@std@@_N@Z$3 61061bcc f    CIL library: CIL module
 0001:00060bd9       __unwindfunclet$?create_panel_items@FilePanel@@AAE?AUPluginItemList@@ABV?$list@UPanelItemData@FilePanel@@V?$allocator@UPanelItemData@FilePanel@@@std@@@std@@_N@Z$4 61061bd9 f    CIL library: CIL module
 0001:00060be6       __unwindfunclet$?create_panel_items@FilePanel@@AAE?AUPluginItemList@@ABV?$list@UPanelItemData@FilePanel@@V?$allocator@UPanelItemData@FilePanel@@@std@@@std@@_N@Z$5 61061be6 f    CIL library: CIL module
 0001:00060bf3       __unwindfunclet$?create_panel_items@FilePanel@@AAE?AUPluginItemList@@ABV?$list@UPanelItemData@FilePanel@@V?$allocator@UPanelItemData@FilePanel@@@std@@@std@@_N@Z$6 61061bf3 f    CIL library: CIL module
 0001:00060c00       __unwindfunclet$?create_panel_items@FilePanel@@AAE?AUPluginItemList@@ABV?$list@UPanelItemData@FilePanel@@V?$allocator@UPanelItemData@FilePanel@@@std@@@std@@_N@Z$7 61061c00 f    CIL library: CIL module
 0001:00060c0d       __unwindfunclet$?create_panel_items@FilePanel@@AAE?AUPluginItemList@@ABV?$list@UPanelItemData@FilePanel@@V?$allocator@UPanelItemData@FilePanel@@@std@@@std@@_N@Z$8 61061c0d f    CIL library: CIL module
 0001:00060c1a       __ehhandler$?create_panel_items@FilePanel@@AAE?AUPluginItemList@@ABV?$list@UPanelItemData@FilePanel@@V?$allocator@UPanelItemData@FilePanel@@@std@@@std@@_N@Z 61061c1a f    CIL library: CIL module
 0001:00060c50       __unwindfunclet$?do_update_ui@FileListProgress@@MAEXXZ$0 61061c50 f    CIL library: CIL module
 0001:00060c58       __unwindfunclet$?do_update_ui@FileListProgress@@MAEXXZ$1 61061c58 f    CIL library: CIL module
 0001:00060c62       __unwindfunclet$?do_update_ui@FileListProgress@@MAEXXZ$2 61061c62 f    CIL library: CIL module
 0001:00060c6c       __unwindfunclet$?do_update_ui@FileListProgress@@MAEXXZ$3 61061c6c f    CIL library: CIL module
 0001:00060c76       __unwindfunclet$?do_update_ui@FileListProgress@@MAEXXZ$4 61061c76 f    CIL library: CIL module
 0001:00060c80       __ehhandler$?do_update_ui@FileListProgress@@MAEXXZ 61061c80 f    CIL library: CIL module
 0001:00060ca0       __unwindfunclet$?restore_state@@YAXPAXABUPanelState@@@Z$0 61061ca0 f    CIL library: CIL module
 0001:00060caa       __ehhandler$?restore_state@@YAXPAXABUPanelState@@@Z 61061caa f    CIL library: CIL module
 0001:00060ce0       __unwindfunclet$??Hcol@@YA?AVAnsiString@0@PBDABV10@@Z$0 61061ce0 f    CIL library: CIL module
 0001:00060cea       __ehhandler$??Hcol@@YA?AVAnsiString@0@PBDABV10@@Z 61061cea f    CIL library: CIL module
 0001:00060d10       __unwindfunclet$?compress_file@@YAXABVUnicodeString@col@@AAUCompressionState@@AAVCompressFilesProgress@@@Z$21 61061d10 f    CIL library: CIL module
 0001:00060d1a       __ehhandler$?compress_file@@YAXABVUnicodeString@col@@AAUCompressionState@@AAVCompressFilesProgress@@@Z 61061d1a f    CIL library: CIL module
 0001:00060d40       __unwindfunclet$?estimate_directory_size@@YAXABVUnicodeString@col@@AAUCompressionState@@AAVEstimationProgress@@@Z$4 61061d40 f    CIL library: CIL module
 0001:00060d4d       __unwindfunclet$?estimate_directory_size@@YAXABVUnicodeString@col@@AAUCompressionState@@AAVEstimationProgress@@@Z$5 61061d4d f    CIL library: CIL module
 0001:00060d5a       __unwindfunclet$?estimate_directory_size@@YAXABVUnicodeString@col@@AAUCompressionState@@AAVEstimationProgress@@@Z$7 61061d5a f    CIL library: CIL module
 0001:00060d67       __ehhandler$?estimate_directory_size@@YAXABVUnicodeString@col@@AAUCompressionState@@AAVEstimationProgress@@@Z 61061d67 f    CIL library: CIL module
 0001:00060d90       __ehhandler$?estimate_file_size@@YAXABVUnicodeString@col@@AAUCompressionState@@AAVEstimationProgress@@@Z 61061d90 f    CIL library: CIL module
 0001:00060dc0       __unwindfunclet$?do_update_ui@EstimationProgress@@MAEXXZ$0 61061dc0 f    CIL library: CIL module
 0001:00060dc8       __unwindfunclet$?do_update_ui@EstimationProgress@@MAEXXZ$1 61061dc8 f    CIL library: CIL module
 0001:00060dd2       __unwindfunclet$?do_update_ui@EstimationProgress@@MAEXXZ$2 61061dd2 f    CIL library: CIL module
 0001:00060ddc       __unwindfunclet$?do_update_ui@EstimationProgress@@MAEXXZ$3 61061ddc f    CIL library: CIL module
 0001:00060de6       __unwindfunclet$?do_update_ui@EstimationProgress@@MAEXXZ$4 61061de6 f    CIL library: CIL module
 0001:00060df0       __unwindfunclet$?do_update_ui@EstimationProgress@@MAEXXZ$5 61061df0 f    CIL library: CIL module
 0001:00060dfa       __unwindfunclet$?do_update_ui@EstimationProgress@@MAEXXZ$6 61061dfa f    CIL library: CIL module
 0001:00060e04       __unwindfunclet$?do_update_ui@EstimationProgress@@MAEXXZ$7 61061e04 f    CIL library: CIL module
 0001:00060e0e       __unwindfunclet$?do_update_ui@EstimationProgress@@MAEXXZ$8 61061e0e f    CIL library: CIL module
 0001:00060e18       __unwindfunclet$?do_update_ui@EstimationProgress@@MAEXXZ$9 61061e18 f    CIL library: CIL module
 0001:00060e22       __unwindfunclet$?do_update_ui@EstimationProgress@@MAEXXZ$10 61061e22 f    CIL library: CIL module
 0001:00060e2c       __unwindfunclet$?do_update_ui@EstimationProgress@@MAEXXZ$11 61061e2c f    CIL library: CIL module
 0001:00060e36       __unwindfunclet$?do_update_ui@EstimationProgress@@MAEXXZ$12 61061e36 f    CIL library: CIL module
 0001:00060e40       __unwindfunclet$?do_update_ui@EstimationProgress@@MAEXXZ$13 61061e40 f    CIL library: CIL module
 0001:00060e4a       __ehhandler$?do_update_ui@EstimationProgress@@MAEXXZ 61061e4a f    CIL library: CIL module
 0001:00060e70       __unwindfunclet$?process_file_content@@YAXABVUnicodeString@col@@ABUContentOptions@@AAUContentInfo@@@Z$58 61061e70 f    CIL library: CIL module
 0001:00060e7b       __unwindfunclet$?process_file_content@@YAXABVUnicodeString@col@@ABUContentOptions@@AAUContentInfo@@@Z$59 61061e7b f    CIL library: CIL module
 0001:00060e88       __unwindfunclet$?process_file_content@@YAXABVUnicodeString@col@@ABUContentOptions@@AAUContentInfo@@@Z$60 61061e88 f    CIL library: CIL module
 0001:00060e93       __unwindfunclet$?process_file_content@@YAXABVUnicodeString@col@@ABUContentOptions@@AAUContentInfo@@@Z$61 61061e93 f    CIL library: CIL module
 0001:00060ea0       __unwindfunclet$?process_file_content@@YAXABVUnicodeString@col@@ABUContentOptions@@AAUContentInfo@@@Z$62 61061ea0 f    CIL library: CIL module
 0001:00060ead       __unwindfunclet$?process_file_content@@YAXABVUnicodeString@col@@ABUContentOptions@@AAUContentInfo@@@Z$63 61061ead f    CIL library: CIL module
 0001:00060eba       __unwindfunclet$?process_file_content@@YAXABVUnicodeString@col@@ABUContentOptions@@AAUContentInfo@@@Z$65 61061eba f    CIL library: CIL module
 0001:00060ec7       __unwindfunclet$?process_file_content@@YAXABVUnicodeString@col@@ABUContentOptions@@AAUContentInfo@@@Z$64 61061ec7 f    CIL library: CIL module
 0001:00060ed4       __unwindfunclet$?process_file_content@@YAXABVUnicodeString@col@@ABUContentOptions@@AAUContentInfo@@@Z$66 61061ed4 f    CIL library: CIL module
 0001:00060edf       __unwindfunclet$?process_file_content@@YAXABVUnicodeString@col@@ABUContentOptions@@AAUContentInfo@@@Z$67 61061edf f    CIL library: CIL module
 0001:00060eec       __ehhandler$?process_file_content@@YAXABVUnicodeString@col@@ABUContentOptions@@AAUContentInfo@@@Z 61061eec f    CIL library: CIL module
 0001:00060f20       __unwindfunclet$?do_update_ui@ProcessFileProgress@@MAEXXZ$2 61061f20 f    CIL library: CIL module
 0001:00060f28       __unwindfunclet$?do_update_ui@ProcessFileProgress@@MAEXXZ$3 61061f28 f    CIL library: CIL module
 0001:00060f32       __unwindfunclet$?do_update_ui@ProcessFileProgress@@MAEXXZ$4 61061f32 f    CIL library: CIL module
 0001:00060f3c       __unwindfunclet$?do_update_ui@ProcessFileProgress@@MAEXXZ$5 61061f3c f    CIL library: CIL module
 0001:00060f46       __unwindfunclet$?do_update_ui@ProcessFileProgress@@MAEXXZ$6 61061f46 f    CIL library: CIL module
 0001:00060f50       __unwindfunclet$?do_update_ui@ProcessFileProgress@@MAEXXZ$7 61061f50 f    CIL library: CIL module
 0001:00060f5a       __unwindfunclet$?do_update_ui@ProcessFileProgress@@MAEXXZ$8 61061f5a f    CIL library: CIL module
 0001:00060f64       __unwindfunclet$?do_update_ui@ProcessFileProgress@@MAEXXZ$9 61061f64 f    CIL library: CIL module
 0001:00060f6e       __unwindfunclet$?do_update_ui@ProcessFileProgress@@MAEXXZ$10 61061f6e f    CIL library: CIL module
 0001:00060f78       __unwindfunclet$?do_update_ui@ProcessFileProgress@@MAEXXZ$11 61061f78 f    CIL library: CIL module
 0001:00060f82       __unwindfunclet$?do_update_ui@ProcessFileProgress@@MAEXXZ$12 61061f82 f    CIL library: CIL module
 0001:00060f8c       __unwindfunclet$?do_update_ui@ProcessFileProgress@@MAEXXZ$13 61061f8c f    CIL library: CIL module
 0001:00060f96       __unwindfunclet$?do_update_ui@ProcessFileProgress@@MAEXXZ$14 61061f96 f    CIL library: CIL module
 0001:00060fa0       __unwindfunclet$?do_update_ui@ProcessFileProgress@@MAEXXZ$15 61061fa0 f    CIL library: CIL module
 0001:00060faa       __unwindfunclet$?do_update_ui@ProcessFileProgress@@MAEXXZ$16 61061faa f    CIL library: CIL module
 0001:00060fb4       __unwindfunclet$?do_update_ui@ProcessFileProgress@@MAEXXZ$17 61061fb4 f    CIL library: CIL module
 0001:00060fbe       __unwindfunclet$?do_update_ui@ProcessFileProgress@@MAEXXZ$18 61061fbe f    CIL library: CIL module
 0001:00060fc8       __unwindfunclet$?do_update_ui@ProcessFileProgress@@MAEXXZ$19 61061fc8 f    CIL library: CIL module
 0001:00060fd2       __unwindfunclet$?do_update_ui@ProcessFileProgress@@MAEXXZ$20 61061fd2 f    CIL library: CIL module
 0001:00060fdc       __unwindfunclet$?do_update_ui@ProcessFileProgress@@MAEXXZ$21 61061fdc f    CIL library: CIL module
 0001:00060fe6       __unwindfunclet$?do_update_ui@ProcessFileProgress@@MAEXXZ$22 61061fe6 f    CIL library: CIL module
 0001:00060ff0       __unwindfunclet$?do_update_ui@ProcessFileProgress@@MAEXXZ$23 61061ff0 f    CIL library: CIL module
 0001:00060ffa       __ehhandler$?do_update_ui@ProcessFileProgress@@MAEXXZ 61061ffa f    CIL library: CIL module
 0001:00061030       __unwindfunclet$?file_list_from_panel@@YA_NAAV?$ObjectArray@VUnicodeString@col@@@col@@_N@Z$0 61062030 f    CIL library: CIL module
 0001:0006103a       __unwindfunclet$?file_list_from_panel@@YA_NAAV?$ObjectArray@VUnicodeString@col@@@col@@_N@Z$2 6106203a f    CIL library: CIL module
 0001:00061044       __unwindfunclet$?file_list_from_panel@@YA_NAAV?$ObjectArray@VUnicodeString@col@@@col@@_N@Z$4 61062044 f    CIL library: CIL module
 0001:0006104e       __ehhandler$?file_list_from_panel@@YA_NAAV?$ObjectArray@VUnicodeString@col@@@col@@_N@Z 6106204e f    CIL library: CIL module
 0001:00061080       __unwindfunclet$?panel_go_to_file@@YA_NABVUnicodeString@col@@@Z$0 61062080 f    CIL library: CIL module
 0001:0006108a       __unwindfunclet$?panel_go_to_file@@YA_NABVUnicodeString@col@@@Z$1 6106208a f    CIL library: CIL module
 0001:00061094       __ehhandler$?panel_go_to_file@@YA_NABVUnicodeString@col@@@Z 61062094 f    CIL library: CIL module
 0001:000610d0       __unwindfunclet$?get_system_message@@YA?AVUnicodeString@col@@K@Z$2 610620d0 f    CIL library: CIL module
 0001:000610ea       __ehhandler$?get_system_message@@YA?AVUnicodeString@col@@K@Z 610620ea f    CIL library: CIL module
 0001:00061110       __ehhandler$??1ReadOnlyFileAccess@@QAE@XZ 61062110 f    CIL library: CIL module
 0001:00061130       __ehhandler$??0ReadOnlyFileAccess@@QAE@ABVUnicodeString@col@@@Z 61062130 f    CIL library: CIL module
 0001:00061150       __unwindfunclet$?do_update_ui@CompressFiles@@UAEXXZ$0 61062150 f    CIL library: CIL module
 0001:0006115b       __unwindfunclet$?do_update_ui@CompressFiles@@UAEXXZ$1 6106215b f    CIL library: CIL module
 0001:00061165       __unwindfunclet$?do_update_ui@CompressFiles@@UAEXXZ$2 61062165 f    CIL library: CIL module
 0001:00061172       __unwindfunclet$?do_update_ui@CompressFiles@@UAEXXZ$3 61062172 f    CIL library: CIL module
 0001:0006117c       __unwindfunclet$?do_update_ui@CompressFiles@@UAEXXZ$4 6106217c f    CIL library: CIL module
 0001:00061186       __unwindfunclet$?do_update_ui@CompressFiles@@UAEXXZ$5 61062186 f    CIL library: CIL module
 0001:00061190       __unwindfunclet$?do_update_ui@CompressFiles@@UAEXXZ$6 61062190 f    CIL library: CIL module
 0001:0006119a       __unwindfunclet$?do_update_ui@CompressFiles@@UAEXXZ$7 6106219a f    CIL library: CIL module
 0001:000611a4       __unwindfunclet$?do_update_ui@CompressFiles@@UAEXXZ$10 610621a4 f    CIL library: CIL module
 0001:000611ae       __unwindfunclet$?do_update_ui@CompressFiles@@UAEXXZ$11 610621ae f    CIL library: CIL module
 0001:000611b8       __unwindfunclet$?do_update_ui@CompressFiles@@UAEXXZ$12 610621b8 f    CIL library: CIL module
 0001:000611c2       __unwindfunclet$?do_update_ui@CompressFiles@@UAEXXZ$13 610621c2 f    CIL library: CIL module
 0001:000611cf       __unwindfunclet$?do_update_ui@CompressFiles@@UAEXXZ$14 610621cf f    CIL library: CIL module
 0001:000611dc       __unwindfunclet$?do_update_ui@CompressFiles@@UAEXXZ$15 610621dc f    CIL library: CIL module
 0001:000611e9       __unwindfunclet$?do_update_ui@CompressFiles@@UAEXXZ$16 610621e9 f    CIL library: CIL module
 0001:000611f6       __unwindfunclet$?do_update_ui@CompressFiles@@UAEXXZ$17 610621f6 f    CIL library: CIL module
 0001:00061200       __unwindfunclet$?do_update_ui@CompressFiles@@UAEXXZ$18 61062200 f    CIL library: CIL module
 0001:0006120a       __unwindfunclet$?do_update_ui@CompressFiles@@UAEXXZ$19 6106220a f    CIL library: CIL module
 0001:00061214       __unwindfunclet$?do_update_ui@CompressFiles@@UAEXXZ$20 61062214 f    CIL library: CIL module
 0001:0006121e       __unwindfunclet$?do_update_ui@CompressFiles@@UAEXXZ$21 6106221e f    CIL library: CIL module
 0001:00061228       __unwindfunclet$?do_update_ui@CompressFiles@@UAEXXZ$22 61062228 f    CIL library: CIL module
 0001:00061235       __unwindfunclet$?do_update_ui@CompressFiles@@UAEXXZ$23 61062235 f    CIL library: CIL module
 0001:0006123f       __unwindfunclet$?do_update_ui@CompressFiles@@UAEXXZ$24 6106223f f    CIL library: CIL module
 0001:00061249       __unwindfunclet$?do_update_ui@CompressFiles@@UAEXXZ$25 61062249 f    CIL library: CIL module
 0001:00061256       __unwindfunclet$?do_update_ui@CompressFiles@@UAEXXZ$26 61062256 f    CIL library: CIL module
 0001:00061263       __unwindfunclet$?do_update_ui@CompressFiles@@UAEXXZ$27 61062263 f    CIL library: CIL module
 0001:00061270       __unwindfunclet$?do_update_ui@CompressFiles@@UAEXXZ$28 61062270 f    CIL library: CIL module
 0001:0006127d       __unwindfunclet$?do_update_ui@CompressFiles@@UAEXXZ$29 6106227d f    CIL library: CIL module
 0001:0006128a       __unwindfunclet$?do_update_ui@CompressFiles@@UAEXXZ$30 6106228a f    CIL library: CIL module
 0001:00061297       __unwindfunclet$?do_update_ui@CompressFiles@@UAEXXZ$31 61062297 f    CIL library: CIL module
 0001:000612a4       __unwindfunclet$?do_update_ui@CompressFiles@@UAEXXZ$32 610622a4 f    CIL library: CIL module
 0001:000612b1       __unwindfunclet$?do_update_ui@CompressFiles@@UAEXXZ$33 610622b1 f    CIL library: CIL module
 0001:000612be       __unwindfunclet$?do_update_ui@CompressFiles@@UAEXXZ$34 610622be f    CIL library: CIL module
 0001:000612cb       __unwindfunclet$?do_update_ui@CompressFiles@@UAEXXZ$35 610622cb f    CIL library: CIL module
 0001:000612d8       __unwindfunclet$?do_update_ui@CompressFiles@@UAEXXZ$36 610622d8 f    CIL library: CIL module
 0001:000612e5       __unwindfunclet$?do_update_ui@CompressFiles@@UAEXXZ$37 610622e5 f    CIL library: CIL module
 0001:000612f2       __unwindfunclet$?do_update_ui@CompressFiles@@UAEXXZ$38 610622f2 f    CIL library: CIL module
 0001:000612ff       __unwindfunclet$?do_update_ui@CompressFiles@@UAEXXZ$39 610622ff f    CIL library: CIL module
 0001:0006130c       __unwindfunclet$?do_update_ui@CompressFiles@@UAEXXZ$40 6106230c f    CIL library: CIL module
 0001:00061319       __unwindfunclet$?do_update_ui@CompressFiles@@UAEXXZ$41 61062319 f    CIL library: CIL module
 0001:00061326       __unwindfunclet$?do_update_ui@CompressFiles@@UAEXXZ$42 61062326 f    CIL library: CIL module
 0001:00061330       __unwindfunclet$?do_update_ui@CompressFiles@@UAEXXZ$43 61062330 f    CIL library: CIL module
 0001:0006133d       __unwindfunclet$?do_update_ui@CompressFiles@@UAEXXZ$44 6106233d f    CIL library: CIL module
 0001:0006134a       __unwindfunclet$?do_update_ui@CompressFiles@@UAEXXZ$45 6106234a f    CIL library: CIL module
 0001:00061357       __unwindfunclet$?do_update_ui@CompressFiles@@UAEXXZ$46 61062357 f    CIL library: CIL module
 0001:00061364       __ehhandler$?do_update_ui@CompressFiles@@UAEXXZ 61062364 f    CIL library: CIL module
 0001:000613a0       __unwindfunclet$??0WorkerThreads@@QAE@AAUCompressFiles@@@Z$4 610623a0 f    CIL library: CIL module
 0001:000613ab       __ehhandler$??0WorkerThreads@@QAE@AAUCompressFiles@@@Z 610623ab f    CIL library: CIL module
 0001:000613d0       __unwindfunclet$??0BufferArray@@QAE@II@Z$2 610623d0 f    CIL library: CIL module
 0001:000613db       __ehhandler$??0BufferArray@@QAE@II@Z 610623db f    CIL library: CIL module
 0001:00061400       __unwindfunclet$?get_prop_list@@YA?AV?$ObjectArray@UNameValue@@@col@@ABVUnicodeString@2@@Z$0 61062400 f    CIL library: CIL module
 0001:0006140d       __unwindfunclet$?get_prop_list@@YA?AV?$ObjectArray@UNameValue@@@col@@ABVUnicodeString@2@@Z$1 6106240d f    CIL library: CIL module
 0001:0006141a       __unwindfunclet$?get_prop_list@@YA?AV?$ObjectArray@UNameValue@@@col@@ABVUnicodeString@2@@Z$3 6106241a f    CIL library: CIL module
 0001:00061427       __unwindfunclet$?get_prop_list@@YA?AV?$ObjectArray@UNameValue@@@col@@ABVUnicodeString@2@@Z$4 61062427 f    CIL library: CIL module
 0001:00061434       __unwindfunclet$?get_prop_list@@YA?AV?$ObjectArray@UNameValue@@@col@@ABVUnicodeString@2@@Z$5 61062434 f    CIL library: CIL module
 0001:00061441       __unwindfunclet$?get_prop_list@@YA?AV?$ObjectArray@UNameValue@@@col@@ABVUnicodeString@2@@Z$6 61062441 f    CIL library: CIL module
 0001:0006144e       __unwindfunclet$?get_prop_list@@YA?AV?$ObjectArray@UNameValue@@@col@@ABVUnicodeString@2@@Z$7 6106244e f    CIL library: CIL module
 0001:00061459       __ehhandler$?get_prop_list@@YA?AV?$ObjectArray@UNameValue@@@col@@ABVUnicodeString@2@@Z 61062459 f    CIL library: CIL module
 0001:00061490       __unwindfunclet$?get_signature_info@@YA?AV?$ObjectArray@UNameValue@@@col@@ABVUnicodeString@2@@Z$0 61062490 f    CIL library: CIL module
 0001:0006149d       __unwindfunclet$?get_signature_info@@YA?AV?$ObjectArray@UNameValue@@@col@@ABVUnicodeString@2@@Z$1 6106249d f    CIL library: CIL module
 0001:000614a5       __unwindfunclet$?get_signature_info@@YA?AV?$ObjectArray@UNameValue@@@col@@ABVUnicodeString@2@@Z$3 610624a5 f    CIL library: CIL module
 0001:000614af       __unwindfunclet$?get_signature_info@@YA?AV?$ObjectArray@UNameValue@@@col@@ABVUnicodeString@2@@Z$4 610624af f    CIL library: CIL module
 0001:000614bc       __unwindfunclet$?get_signature_info@@YA?AV?$ObjectArray@UNameValue@@@col@@ABVUnicodeString@2@@Z$5 610624bc f    CIL library: CIL module
 0001:000614c9       __unwindfunclet$?get_signature_info@@YA?AV?$ObjectArray@UNameValue@@@col@@ABVUnicodeString@2@@Z$6 610624c9 f    CIL library: CIL module
 0001:000614d3       __unwindfunclet$?get_signature_info@@YA?AV?$ObjectArray@UNameValue@@@col@@ABVUnicodeString@2@@Z$7 610624d3 f    CIL library: CIL module
 0001:000614de       __unwindfunclet$?get_signature_info@@YA?AV?$ObjectArray@UNameValue@@@col@@ABVUnicodeString@2@@Z$11 610624de f    CIL library: CIL module
 0001:000614eb       __unwindfunclet$?get_signature_info@@YA?AV?$ObjectArray@UNameValue@@@col@@ABVUnicodeString@2@@Z$12 610624eb f    CIL library: CIL module
 0001:000614f5       __unwindfunclet$?get_signature_info@@YA?AV?$ObjectArray@UNameValue@@@col@@ABVUnicodeString@2@@Z$13 610624f5 f    CIL library: CIL module
 0001:00061500       __unwindfunclet$?get_signature_info@@YA?AV?$ObjectArray@UNameValue@@@col@@ABVUnicodeString@2@@Z$8 61062500 f    CIL library: CIL module
 0001:0006150d       __unwindfunclet$?get_signature_info@@YA?AV?$ObjectArray@UNameValue@@@col@@ABVUnicodeString@2@@Z$9 6106250d f    CIL library: CIL module
 0001:0006151a       __unwindfunclet$?get_signature_info@@YA?AV?$ObjectArray@UNameValue@@@col@@ABVUnicodeString@2@@Z$10 6106251a f    CIL library: CIL module
 0001:00061525       __unwindfunclet$?get_signature_info@@YA?AV?$ObjectArray@UNameValue@@@col@@ABVUnicodeString@2@@Z$17 61062525 f    CIL library: CIL module
 0001:00061532       __unwindfunclet$?get_signature_info@@YA?AV?$ObjectArray@UNameValue@@@col@@ABVUnicodeString@2@@Z$18 61062532 f    CIL library: CIL module
 0001:0006153f       __unwindfunclet$?get_signature_info@@YA?AV?$ObjectArray@UNameValue@@@col@@ABVUnicodeString@2@@Z$19 6106253f f    CIL library: CIL module
 0001:0006154a       __unwindfunclet$?get_signature_info@@YA?AV?$ObjectArray@UNameValue@@@col@@ABVUnicodeString@2@@Z$14 6106254a f    CIL library: CIL module
 0001:00061557       __unwindfunclet$?get_signature_info@@YA?AV?$ObjectArray@UNameValue@@@col@@ABVUnicodeString@2@@Z$15 61062557 f    CIL library: CIL module
 0001:00061561       __unwindfunclet$?get_signature_info@@YA?AV?$ObjectArray@UNameValue@@@col@@ABVUnicodeString@2@@Z$16 61062561 f    CIL library: CIL module
 0001:0006156c       __unwindfunclet$?get_signature_info@@YA?AV?$ObjectArray@UNameValue@@@col@@ABVUnicodeString@2@@Z$20 6106256c f    CIL library: CIL module
 0001:00061574       __unwindfunclet$?get_signature_info@@YA?AV?$ObjectArray@UNameValue@@@col@@ABVUnicodeString@2@@Z$21 61062574 f    CIL library: CIL module
 0001:00061581       __unwindfunclet$?get_signature_info@@YA?AV?$ObjectArray@UNameValue@@@col@@ABVUnicodeString@2@@Z$22 61062581 f    CIL library: CIL module
 0001:0006158c       __unwindfunclet$?get_signature_info@@YA?AV?$ObjectArray@UNameValue@@@col@@ABVUnicodeString@2@@Z$23 6106258c f    CIL library: CIL module
 0001:00061599       __unwindfunclet$?get_signature_info@@YA?AV?$ObjectArray@UNameValue@@@col@@ABVUnicodeString@2@@Z$24 61062599 f    CIL library: CIL module
 0001:000615a4       __unwindfunclet$?get_signature_info@@YA?AV?$ObjectArray@UNameValue@@@col@@ABVUnicodeString@2@@Z$25 610625a4 f    CIL library: CIL module
 0001:000615b1       __unwindfunclet$?get_signature_info@@YA?AV?$ObjectArray@UNameValue@@@col@@ABVUnicodeString@2@@Z$26 610625b1 f    CIL library: CIL module
 0001:000615bb       __unwindfunclet$?get_signature_info@@YA?AV?$ObjectArray@UNameValue@@@col@@ABVUnicodeString@2@@Z$27 610625bb f    CIL library: CIL module
 0001:000615c5       __unwindfunclet$?get_signature_info@@YA?AV?$ObjectArray@UNameValue@@@col@@ABVUnicodeString@2@@Z$28 610625c5 f    CIL library: CIL module
 0001:000615cf       __unwindfunclet$?get_signature_info@@YA?AV?$ObjectArray@UNameValue@@@col@@ABVUnicodeString@2@@Z$29 610625cf f    CIL library: CIL module
 0001:000615d9       __unwindfunclet$?get_signature_info@@YA?AV?$ObjectArray@UNameValue@@@col@@ABVUnicodeString@2@@Z$30 610625d9 f    CIL library: CIL module
 0001:000615e3       __unwindfunclet$?get_signature_info@@YA?AV?$ObjectArray@UNameValue@@@col@@ABVUnicodeString@2@@Z$31 610625e3 f    CIL library: CIL module
 0001:000615eb       __unwindfunclet$?get_signature_info@@YA?AV?$ObjectArray@UNameValue@@@col@@ABVUnicodeString@2@@Z$32 610625eb f    CIL library: CIL module
 0001:000615f6       __unwindfunclet$?get_signature_info@@YA?AV?$ObjectArray@UNameValue@@@col@@ABVUnicodeString@2@@Z$33 610625f6 f    CIL library: CIL module
 0001:00061600       __unwindfunclet$?get_signature_info@@YA?AV?$ObjectArray@UNameValue@@@col@@ABVUnicodeString@2@@Z$34 61062600 f    CIL library: CIL module
 0001:00061608       __unwindfunclet$?get_signature_info@@YA?AV?$ObjectArray@UNameValue@@@col@@ABVUnicodeString@2@@Z$35 61062608 f    CIL library: CIL module
 0001:00061612       __unwindfunclet$?get_signature_info@@YA?AV?$ObjectArray@UNameValue@@@col@@ABVUnicodeString@2@@Z$36 61062612 f    CIL library: CIL module
 0001:0006161a       __ehhandler$?get_signature_info@@YA?AV?$ObjectArray@UNameValue@@@col@@ABVUnicodeString@2@@Z 6106261a f    CIL library: CIL module
 0001:00061650       __unwindfunclet$?get_version_info@@YA?AUVersionData@@ABVUnicodeString@col@@@Z$64 61062650 f    CIL library: CIL module
 0001:0006165d       __unwindfunclet$?get_version_info@@YA?AUVersionData@@ABVUnicodeString@col@@@Z$65 6106265d f    CIL library: CIL module
 0001:0006166b       __unwindfunclet$?get_version_info@@YA?AUVersionData@@ABVUnicodeString@col@@@Z$66 6106266b f    CIL library: CIL module
 0001:0006167b       __unwindfunclet$?get_version_info@@YA?AUVersionData@@ABVUnicodeString@col@@@Z$12 6106267b f    CIL library: CIL module
 0001:0006169d       __unwindfunclet$?get_version_info@@YA?AUVersionData@@ABVUnicodeString@col@@@Z$13 6106269d f    CIL library: CIL module
 0001:000616aa       __unwindfunclet$?get_version_info@@YA?AUVersionData@@ABVUnicodeString@col@@@Z$14 610626aa f    CIL library: CIL module
 0001:000616b7       __unwindfunclet$?get_version_info@@YA?AUVersionData@@ABVUnicodeString@col@@@Z$15 610626b7 f    CIL library: CIL module
 0001:000616c4       __unwindfunclet$?get_version_info@@YA?AUVersionData@@ABVUnicodeString@col@@@Z$16 610626c4 f    CIL library: CIL module
 0001:000616cf       __unwindfunclet$?get_version_info@@YA?AUVersionData@@ABVUnicodeString@col@@@Z$17 610626cf f    CIL library: CIL module
 0001:000616dc       __unwindfunclet$?get_version_info@@YA?AUVersionData@@ABVUnicodeString@col@@@Z$18 610626dc f    CIL library: CIL module
 0001:000616e9       __unwindfunclet$?get_version_info@@YA?AUVersionData@@ABVUnicodeString@col@@@Z$19 610626e9 f    CIL library: CIL module
 0001:000616f4       __unwindfunclet$?get_version_info@@YA?AUVersionData@@ABVUnicodeString@col@@@Z$20 610626f4 f    CIL library: CIL module
 0001:00061701       __unwindfunclet$?get_version_info@@YA?AUVersionData@@ABVUnicodeString@col@@@Z$21 61062701 f    CIL library: CIL module
 0001:0006170e       __unwindfunclet$?get_version_info@@YA?AUVersionData@@ABVUnicodeString@col@@@Z$22 6106270e f    CIL library: CIL module
 0001:00061719       __unwindfunclet$?get_version_info@@YA?AUVersionData@@ABVUnicodeString@col@@@Z$23 61062719 f    CIL library: CIL module
 0001:00061726       __unwindfunclet$?get_version_info@@YA?AUVersionData@@ABVUnicodeString@col@@@Z$24 61062726 f    CIL library: CIL module
 0001:00061733       __unwindfunclet$?get_version_info@@YA?AUVersionData@@ABVUnicodeString@col@@@Z$25 61062733 f    CIL library: CIL module
 0001:0006173e       __unwindfunclet$?get_version_info@@YA?AUVersionData@@ABVUnicodeString@col@@@Z$26 6106273e f    CIL library: CIL module
 0001:0006174b       __unwindfunclet$?get_version_info@@YA?AUVersionData@@ABVUnicodeString@col@@@Z$27 6106274b f    CIL library: CIL module
 0001:00061758       __unwindfunclet$?get_version_info@@YA?AUVersionData@@ABVUnicodeString@col@@@Z$28 61062758 f    CIL library: CIL module
 0001:00061763       __unwindfunclet$?get_version_info@@YA?AUVersionData@@ABVUnicodeString@col@@@Z$29 61062763 f    CIL library: CIL module
 0001:00061770       __unwindfunclet$?get_version_info@@YA?AUVersionData@@ABVUnicodeString@col@@@Z$30 61062770 f    CIL library: CIL module
 0001:0006177d       __unwindfunclet$?get_version_info@@YA?AUVersionData@@ABVUnicodeString@col@@@Z$31 6106277d f    CIL library: CIL module
 0001:00061788       __unwindfunclet$?get_version_info@@YA?AUVersionData@@ABVUnicodeString@col@@@Z$32 61062788 f    CIL library: CIL module
 0001:00061795       __unwindfunclet$?get_version_info@@YA?AUVersionData@@ABVUnicodeString@col@@@Z$33 61062795 f    CIL library: CIL module
 0001:000617a2       __unwindfunclet$?get_version_info@@YA?AUVersionData@@ABVUnicodeString@col@@@Z$34 610627a2 f    CIL library: CIL module
 0001:000617af       __unwindfunclet$?get_version_info@@YA?AUVersionData@@ABVUnicodeString@col@@@Z$35 610627af f    CIL library: CIL module
 0001:000617bc       __unwindfunclet$?get_version_info@@YA?AUVersionData@@ABVUnicodeString@col@@@Z$36 610627bc f    CIL library: CIL module
 0001:000617c9       __unwindfunclet$?get_version_info@@YA?AUVersionData@@ABVUnicodeString@col@@@Z$37 610627c9 f    CIL library: CIL module
 0001:000617d6       __unwindfunclet$?get_version_info@@YA?AUVersionData@@ABVUnicodeString@col@@@Z$38 610627d6 f    CIL library: CIL module
 0001:000617e3       __unwindfunclet$?get_version_info@@YA?AUVersionData@@ABVUnicodeString@col@@@Z$39 610627e3 f    CIL library: CIL module
 0001:000617ee       __unwindfunclet$?get_version_info@@YA?AUVersionData@@ABVUnicodeString@col@@@Z$41 610627ee f    CIL library: CIL module
 0001:000617fb       __unwindfunclet$?get_version_info@@YA?AUVersionData@@ABVUnicodeString@col@@@Z$42 610627fb f    CIL library: CIL module
 0001:00061808       __unwindfunclet$?get_version_info@@YA?AUVersionData@@ABVUnicodeString@col@@@Z$43 61062808 f    CIL library: CIL module
 0001:00061815       __unwindfunclet$?get_version_info@@YA?AUVersionData@@ABVUnicodeString@col@@@Z$44 61062815 f    CIL library: CIL module
 0001:00061820       __unwindfunclet$?get_version_info@@YA?AUVersionData@@ABVUnicodeString@col@@@Z$45 61062820 f    CIL library: CIL module
 0001:0006182d       __unwindfunclet$?get_version_info@@YA?AUVersionData@@ABVUnicodeString@col@@@Z$46 6106282d f    CIL library: CIL module
 0001:0006183a       __unwindfunclet$?get_version_info@@YA?AUVersionData@@ABVUnicodeString@col@@@Z$47 6106283a f    CIL library: CIL module
 0001:00061845       __unwindfunclet$?get_version_info@@YA?AUVersionData@@ABVUnicodeString@col@@@Z$48 61062845 f    CIL library: CIL module
 0001:00061852       __unwindfunclet$?get_version_info@@YA?AUVersionData@@ABVUnicodeString@col@@@Z$49 61062852 f    CIL library: CIL module
 0001:0006185f       __unwindfunclet$?get_version_info@@YA?AUVersionData@@ABVUnicodeString@col@@@Z$50 6106285f f    CIL library: CIL module
 0001:0006186a       __unwindfunclet$?get_version_info@@YA?AUVersionData@@ABVUnicodeString@col@@@Z$51 6106286a f    CIL library: CIL module
 0001:00061877       __unwindfunclet$?get_version_info@@YA?AUVersionData@@ABVUnicodeString@col@@@Z$52 61062877 f    CIL library: CIL module
 0001:00061884       __unwindfunclet$?get_version_info@@YA?AUVersionData@@ABVUnicodeString@col@@@Z$53 61062884 f    CIL library: CIL module
 0001:0006188f       __unwindfunclet$?get_version_info@@YA?AUVersionData@@ABVUnicodeString@col@@@Z$54 6106288f f    CIL library: CIL module
 0001:0006189c       __unwindfunclet$?get_version_info@@YA?AUVersionData@@ABVUnicodeString@col@@@Z$55 6106289c f    CIL library: CIL module
 0001:000618a9       __unwindfunclet$?get_version_info@@YA?AUVersionData@@ABVUnicodeString@col@@@Z$56 610628a9 f    CIL library: CIL module
 0001:000618b4       __unwindfunclet$?get_version_info@@YA?AUVersionData@@ABVUnicodeString@col@@@Z$57 610628b4 f    CIL library: CIL module
 0001:000618c1       __unwindfunclet$?get_version_info@@YA?AUVersionData@@ABVUnicodeString@col@@@Z$58 610628c1 f    CIL library: CIL module
 0001:000618ce       __unwindfunclet$?get_version_info@@YA?AUVersionData@@ABVUnicodeString@col@@@Z$59 610628ce f    CIL library: CIL module
 0001:000618db       __unwindfunclet$?get_version_info@@YA?AUVersionData@@ABVUnicodeString@col@@@Z$60 610628db f    CIL library: CIL module
 0001:000618e8       __unwindfunclet$?get_version_info@@YA?AUVersionData@@ABVUnicodeString@col@@@Z$61 610628e8 f    CIL library: CIL module
 0001:000618f3       __ehhandler$?get_version_info@@YA?AUVersionData@@ABVUnicodeString@col@@@Z 610628f3 f    CIL library: CIL module
 0001:00061920       __unwindfunclet$?get_mft_index_cache_name@FilePanel@@AAE?AVUnicodeString@col@@XZ$2 61062920 f    CIL library: CIL module
 0001:0006192a       __unwindfunclet$?get_mft_index_cache_name@FilePanel@@AAE?AVUnicodeString@col@@XZ$3 6106292a f    CIL library: CIL module
 0001:00061934       __unwindfunclet$?get_mft_index_cache_name@FilePanel@@AAE?AVUnicodeString@col@@XZ$4 61062934 f    CIL library: CIL module
 0001:0006193e       __unwindfunclet$?get_mft_index_cache_name@FilePanel@@AAE?AVUnicodeString@col@@XZ$5 6106293e f    CIL library: CIL module
 0001:00061948       __ehhandler$?get_mft_index_cache_name@FilePanel@@AAE?AVUnicodeString@col@@XZ 61062948 f    CIL library: CIL module
 0001:00061970       __unwindfunclet$?load_mft_index@FilePanel@@AAEXXZ$36 61062970 f    CIL library: CIL module
 0001:0006197b       __unwindfunclet$?load_mft_index@FilePanel@@AAEXXZ$38 6106297b f    CIL library: CIL module
 0001:00061985       __unwindfunclet$?load_mft_index@FilePanel@@AAEXXZ$39 61062985 f    CIL library: CIL module
 0001:0006198f       __unwindfunclet$?load_mft_index@FilePanel@@AAEXXZ$40 6106298f f    CIL library: CIL module
 0001:00061999       __unwindfunclet$?load_mft_index@FilePanel@@AAEXXZ$41 61062999 f    CIL library: CIL module
 0001:000619a3       __ehhandler$?load_mft_index@FilePanel@@AAEXXZ 610629a3 f    CIL library: CIL module
 0001:000619d0       __unwindfunclet$?do_update_ui@Progress@?1??update_mft_index_from_usn@FilePanel@@AAEXXZ@MAEXXZ$0 610629d0 f    CIL library: CIL module
 0001:000619d0       __unwindfunclet$?do_update_ui@Progress@?1??load_mft_index@FilePanel@@AAEXXZ@MAEXXZ$0 610629d0 f    CIL library: CIL module
 0001:000619d0       __unwindfunclet$?do_update_ui@Progress@?3??store_mft_index@FilePanel@@AAEXXZ@MAEXXZ$0 610629d0 f    CIL library: CIL module
 0001:000619d8       __unwindfunclet$?do_update_ui@Progress@?3??store_mft_index@FilePanel@@AAEXXZ@MAEXXZ$1 610629d8 f    CIL library: CIL module
 0001:000619d8       __unwindfunclet$?do_update_ui@Progress@?1??load_mft_index@FilePanel@@AAEXXZ@MAEXXZ$1 610629d8 f    CIL library: CIL module
 0001:000619d8       __unwindfunclet$?do_update_ui@Progress@?1??update_mft_index_from_usn@FilePanel@@AAEXXZ@MAEXXZ$1 610629d8 f    CIL library: CIL module
 0001:000619e2       __unwindfunclet$?do_update_ui@Progress@?1??load_mft_index@FilePanel@@AAEXXZ@MAEXXZ$2 610629e2 f    CIL library: CIL module
 0001:000619e2       __unwindfunclet$?do_update_ui@Progress@?1??update_mft_index_from_usn@FilePanel@@AAEXXZ@MAEXXZ$2 610629e2 f    CIL library: CIL module
 0001:000619e2       __unwindfunclet$?do_update_ui@Progress@?3??store_mft_index@FilePanel@@AAEXXZ@MAEXXZ$2 610629e2 f    CIL library: CIL module
 0001:000619ec       __unwindfunclet$?do_update_ui@Progress@?1??load_mft_index@FilePanel@@AAEXXZ@MAEXXZ$3 610629ec f    CIL library: CIL module
 0001:000619ec       __unwindfunclet$?do_update_ui@Progress@?1??update_mft_index_from_usn@FilePanel@@AAEXXZ@MAEXXZ$3 610629ec f    CIL library: CIL module
 0001:000619ec       __unwindfunclet$?do_update_ui@Progress@?3??store_mft_index@FilePanel@@AAEXXZ@MAEXXZ$3 610629ec f    CIL library: CIL module
 0001:000619f6       __ehhandler$?do_update_ui@Progress@?1??load_mft_index@FilePanel@@AAEXXZ@MAEXXZ 610629f6 f    CIL library: CIL module
 0001:000619f6       __ehhandler$?do_update_ui@Progress@?3??store_mft_index@FilePanel@@AAEXXZ@MAEXXZ 610629f6 f    CIL library: CIL module
 0001:000619f6       __ehhandler$?do_update_ui@Progress@?1??update_mft_index_from_usn@FilePanel@@AAEXXZ@MAEXXZ 610629f6 f    CIL library: CIL module
 0001:00061a20       __unwindfunclet$?store_mft_index@FilePanel@@AAEXXZ$22 61062a20 f    CIL library: CIL module
 0001:00061a2b       __unwindfunclet$?store_mft_index@FilePanel@@AAEXXZ$23 61062a2b f    CIL library: CIL module
 0001:00061a35       __unwindfunclet$?store_mft_index@FilePanel@@AAEXXZ$24 61062a35 f    CIL library: CIL module
 0001:00061a3f       __unwindfunclet$?store_mft_index@FilePanel@@AAEXXZ$25 61062a3f f    CIL library: CIL module
 0001:00061a49       __unwindfunclet$?store_mft_index@FilePanel@@AAEXXZ$28 61062a49 f    CIL library: CIL module
 0001:00061a56       __unwindfunclet$?store_mft_index@FilePanel@@AAEXXZ$26 61062a56 f    CIL library: CIL module
 0001:00061a60       __unwindfunclet$?store_mft_index@FilePanel@@AAEXXZ$27 61062a60 f    CIL library: CIL module
 0001:00061a6a       __unwindfunclet$?store_mft_index@FilePanel@@AAEXXZ$29 61062a6a f    CIL library: CIL module
 0001:00061a75       __ehhandler$?store_mft_index@FilePanel@@AAEXXZ 61062a75 f    CIL library: CIL module
 0001:00061aa0       __unwindfunclet$?mft_find_path@FilePanel@@AAE_KABVUnicodeString@col@@@Z$2 61062aa0 f    CIL library: CIL module
 0001:00061aaa       __unwindfunclet$?mft_find_path@FilePanel@@AAE_KABVUnicodeString@col@@@Z$3 61062aaa f    CIL library: CIL module
 0001:00061ab4       __unwindfunclet$?mft_find_path@FilePanel@@AAE_KABVUnicodeString@col@@@Z$4 61062ab4 f    CIL library: CIL module
 0001:00061abc       __unwindfunclet$?mft_find_path@FilePanel@@AAE_KABVUnicodeString@col@@@Z$5 61062abc f    CIL library: CIL module
 0001:00061ac9       __ehhandler$?mft_find_path@FilePanel@@AAE_KABVUnicodeString@col@@@Z 61062ac9 f    CIL library: CIL module
 0001:00061af0       __unwindfunclet$?do_update_ui@VolumeListProgress@?1??create_mft_index@FilePanel@@AAEXXZ@MAEXXZ$0 61062af0 f    CIL library: CIL module
 0001:00061af8       __unwindfunclet$?do_update_ui@VolumeListProgress@?1??create_mft_index@FilePanel@@AAEXXZ@MAEXXZ$1 61062af8 f    CIL library: CIL module
 0001:00061b02       __unwindfunclet$?do_update_ui@VolumeListProgress@?1??create_mft_index@FilePanel@@AAEXXZ@MAEXXZ$2 61062b02 f    CIL library: CIL module
 0001:00061b0c       __unwindfunclet$?do_update_ui@VolumeListProgress@?1??create_mft_index@FilePanel@@AAEXXZ@MAEXXZ$3 61062b0c f    CIL library: CIL module
 0001:00061b16       __unwindfunclet$?do_update_ui@VolumeListProgress@?1??create_mft_index@FilePanel@@AAEXXZ@MAEXXZ$4 61062b16 f    CIL library: CIL module
 0001:00061b20       __unwindfunclet$?do_update_ui@VolumeListProgress@?1??create_mft_index@FilePanel@@AAEXXZ@MAEXXZ$5 61062b20 f    CIL library: CIL module
 0001:00061b2a       __unwindfunclet$?do_update_ui@VolumeListProgress@?1??create_mft_index@FilePanel@@AAEXXZ@MAEXXZ$6 61062b2a f    CIL library: CIL module
 0001:00061b34       __ehhandler$?do_update_ui@VolumeListProgress@?1??create_mft_index@FilePanel@@AAEXXZ@MAEXXZ 61062b34 f    CIL library: CIL module
 0001:00061b60       __unwindfunclet$?do_update_ui@DefragProgress@@MAEXXZ$0 61062b60 f    CIL library: CIL module
 0001:00061b68       __unwindfunclet$?do_update_ui@DefragProgress@@MAEXXZ$1 61062b68 f    CIL library: CIL module
 0001:00061b72       __unwindfunclet$?do_update_ui@DefragProgress@@MAEXXZ$2 61062b72 f    CIL library: CIL module
 0001:00061b7c       __unwindfunclet$?do_update_ui@DefragProgress@@MAEXXZ$3 61062b7c f    CIL library: CIL module
 0001:00061b86       __unwindfunclet$?do_update_ui@DefragProgress@@MAEXXZ$4 61062b86 f    CIL library: CIL module
 0001:00061b90       __unwindfunclet$?do_update_ui@DefragProgress@@MAEXXZ$5 61062b90 f    CIL library: CIL module
 0001:00061b9a       __unwindfunclet$?do_update_ui@DefragProgress@@MAEXXZ$6 61062b9a f    CIL library: CIL module
 0001:00061ba4       __unwindfunclet$?do_update_ui@DefragProgress@@MAEXXZ$7 61062ba4 f    CIL library: CIL module
 0001:00061bae       __unwindfunclet$?do_update_ui@DefragProgress@@MAEXXZ$8 61062bae f    CIL library: CIL module
 0001:00061bb8       __unwindfunclet$?do_update_ui@DefragProgress@@MAEXXZ$9 61062bb8 f    CIL library: CIL module
 0001:00061bc2       __unwindfunclet$?do_update_ui@DefragProgress@@MAEXXZ$10 61062bc2 f    CIL library: CIL module
 0001:00061bcc       __unwindfunclet$?do_update_ui@DefragProgress@@MAEXXZ$12 61062bcc f    CIL library: CIL module
 0001:00061bd6       __unwindfunclet$?do_update_ui@DefragProgress@@MAEXXZ$13 61062bd6 f    CIL library: CIL module
 0001:00061be0       __unwindfunclet$?do_update_ui@DefragProgress@@MAEXXZ$14 61062be0 f    CIL library: CIL module
 0001:00061bea       __unwindfunclet$?do_update_ui@DefragProgress@@MAEXXZ$16 61062bea f    CIL library: CIL module
 0001:00061bf4       __unwindfunclet$?do_update_ui@DefragProgress@@MAEXXZ$17 61062bf4 f    CIL library: CIL module
 0001:00061bfe       __unwindfunclet$?do_update_ui@DefragProgress@@MAEXXZ$18 61062bfe f    CIL library: CIL module
 0001:00061c08       __ehhandler$?do_update_ui@DefragProgress@@MAEXXZ 61062c08 f    CIL library: CIL module
 0001:00061c30       __ehhandler$?open@NtfsVolume@@QAEXABVUnicodeString@col@@@Z 61062c30 f    CIL library: CIL module
 0001:00061c60       __unwindfunclet$??0VolumeInfo@@QAE@ABVUnicodeString@col@@@Z$2 61062c60 f    CIL library: CIL module
 0001:00061c6a       __unwindfunclet$??0VolumeInfo@@QAE@ABVUnicodeString@col@@@Z$3 61062c6a f    CIL library: CIL module
 0001:00061c74       __ehhandler$??0VolumeInfo@@QAE@ABVUnicodeString@col@@@Z 61062c74 f    CIL library: CIL module
 0001:00061c90       __unwindfunclet$??$?H_WU?$char_traits@_W@std@@V?$allocator@_W@1@@std@@YA?AV?$basic_string@_WU?$char_traits@_W@std@@V?$allocator@_W@2@@0@ABV10@_W@Z$0 61062c90 f    CIL library: CIL module
 0001:00061ca9       __ehhandler$??$?H_WU?$char_traits@_W@std@@V?$allocator@_W@1@@std@@YA?AV?$basic_string@_WU?$char_traits@_W@std@@V?$allocator@_W@2@@0@ABV10@_W@Z 61062ca9 f    CIL library: CIL module
 0001:00061cd0       __ehhandler$?get_find_data@@YA?AUFindData@@ABVUnicodeString@col@@@Z 61062cd0 f    CIL library: CIL module
 0001:00061cf0       __unwindfunclet$?next@FileEnum@@QAE_NXZ$4 61062cf0 f    CIL library: CIL module
 0001:00061cfa       __unwindfunclet$?next@FileEnum@@QAE_NXZ$5 61062cfa f    CIL library: CIL module
 0001:00061d04       __ehhandler$?next@FileEnum@@QAE_NXZ 61062d04 f    CIL library: CIL module
 0001:00061d20       __ehhandler$??0File@@QAE@ABVUnicodeString@col@@KKKK@Z 61062d20 f    CIL library: CIL module
 0001:00061d40       __unwindfunclet$?error_dlg@@YAXABVexception@std@@@Z$0 61062d40 f    CIL library: CIL module
 0001:00061d4a       __unwindfunclet$?error_dlg@@YAXABVexception@std@@@Z$1 61062d4a f    CIL library: CIL module
 0001:00061d54       __unwindfunclet$?error_dlg@@YAXABVexception@std@@@Z$2 61062d54 f    CIL library: CIL module
 0001:00061d5e       __unwindfunclet$?error_dlg@@YAXABVexception@std@@@Z$3 61062d5e f    CIL library: CIL module
 0001:00061d68       __unwindfunclet$?error_dlg@@YAXABVexception@std@@@Z$4 61062d68 f    CIL library: CIL module
 0001:00061d72       __ehhandler$?error_dlg@@YAXABVexception@std@@@Z 61062d72 f    CIL library: CIL module
 0001:00061d90       __unwindfunclet$?error_dlg@@YAXABVError@@@Z$0 61062d90 f    CIL library: CIL module
 0001:00061d9a       __unwindfunclet$?error_dlg@@YAXABVError@@@Z$1 61062d9a f    CIL library: CIL module
 0001:00061da4       __unwindfunclet$?error_dlg@@YAXABVError@@@Z$2 61062da4 f    CIL library: CIL module
 0001:00061dae       __unwindfunclet$?error_dlg@@YAXABVError@@@Z$3 61062dae f    CIL library: CIL module
 0001:00061db8       __unwindfunclet$?error_dlg@@YAXABVError@@@Z$4 61062db8 f    CIL library: CIL module
 0001:00061dc2       __unwindfunclet$?error_dlg@@YAXABVError@@@Z$5 61062dc2 f    CIL library: CIL module
 0001:00061dcc       __unwindfunclet$?error_dlg@@YAXABVError@@@Z$6 61062dcc f    CIL library: CIL module
 0001:00061dd6       __ehhandler$?error_dlg@@YAXABVError@@@Z 61062dd6 f    CIL library: CIL module
 0001:00061e00       __unwindfunclet$?show@Log@@QAEXXZ$10 61062e00 f    CIL library: CIL module
 0001:00061e0a       __unwindfunclet$?show@Log@@QAEXXZ$11 61062e0a f    CIL library: CIL module
 0001:00061e14       __unwindfunclet$?show@Log@@QAEXXZ$12 61062e14 f    CIL library: CIL module
 0001:00061e1e       __unwindfunclet$?show@Log@@QAEXXZ$13 61062e1e f    CIL library: CIL module
 0001:00061e28       __unwindfunclet$?show@Log@@QAEXXZ$14 61062e28 f    CIL library: CIL module
 0001:00061e32       __unwindfunclet$?show@Log@@QAEXXZ$15 61062e32 f    CIL library: CIL module
 0001:00061e3c       __ehhandler$?show@Log@@QAEXXZ 61062e3c f    CIL library: CIL module
 0001:00061e60       __unwindfunclet$?format_hex_array@@YA?AVUnicodeString@col@@ABV?$Array@E@2@@Z$0 61062e60 f    CIL library: CIL module
 0001:00061e7a       __ehhandler$?format_hex_array@@YA?AVUnicodeString@col@@ABV?$Array@E@2@@Z 61062e7a f    CIL library: CIL module
 0001:00061ea0       __unwindfunclet$?format_inf_amount@@YA?AVUnicodeString@col@@_K@Z$0 61062ea0 f    CIL library: CIL module
 0001:00061eaa       __unwindfunclet$?format_inf_amount@@YA?AVUnicodeString@col@@_K@Z$1 61062eaa f    CIL library: CIL module
 0001:00061ec4       __ehhandler$?format_inf_amount@@YA?AVUnicodeString@col@@_K@Z 61062ec4 f    CIL library: CIL module
 0001:00061ee0       __unwindfunclet$?store_plugin_options@@YAXXZ$0 61062ee0 f    CIL library: CIL module
 0001:00061ee8       __unwindfunclet$?store_plugin_options@@YAXXZ$1 61062ee8 f    CIL library: CIL module
 0001:00061ef0       __ehhandler$?store_plugin_options@@YAXXZ 61062ef0 f    CIL library: CIL module
 0001:00061f10       __unwindfunclet$?process_attribute@FileInfo@@AAEXABV?$Array@E@col@@I@Z$34 61062f10 f    CIL library: CIL module
 0001:00061f1a       __unwindfunclet$?process_attribute@FileInfo@@AAEXABV?$Array@E@col@@I@Z$35 61062f1a f    CIL library: CIL module
 0001:00061f27       __unwindfunclet$?process_attribute@FileInfo@@AAEXABV?$Array@E@col@@I@Z$36 61062f27 f    CIL library: CIL module
 0001:00061f31       __ehhandler$?process_attribute@FileInfo@@AAEXABV?$Array@E@col@@I@Z 61062f31 f    CIL library: CIL module
 0001:00061f50       __unwindfunclet$?type_name@AttrInfo@@QBE?AVUnicodeString@col@@XZ$0 61062f50 f    CIL library: CIL module
 0001:00061f6a       __ehhandler$?type_name@AttrInfo@@QBE?AVUnicodeString@col@@XZ 61062f6a f    CIL library: CIL module
 0001:00061f90       __unwindfunclet$??$sort@UFragmLevelCmp@?9??sort_file_list@FilePanel@@AAEXAAV?$list@UPanelItemData@FilePanel@@V?$allocator@UPanelItemData@FilePanel@@@std@@@std@@@Z@@?$list@UPanelItemData@FilePanel@@V?$allocator@UPanelItemData@FilePanel@@@std@@@std@@QAEXUFragmLevelCmp@?9??sort_file_list@FilePanel@@AAEXAAV01@@Z@@Z$0 61062f90 f    CIL library: CIL module
 0001:00061f9b       __unwindfunclet$??$sort@UFragmLevelCmp@?9??sort_file_list@FilePanel@@AAEXAAV?$list@UPanelItemData@FilePanel@@V?$allocator@UPanelItemData@FilePanel@@@std@@@std@@@Z@@?$list@UPanelItemData@FilePanel@@V?$allocator@UPanelItemData@FilePanel@@@std@@@std@@QAEXUFragmLevelCmp@?9??sort_file_list@FilePanel@@AAEXAAV01@@Z@@Z$1 61062f9b f    CIL library: CIL module
 0001:00061fb1       __ehhandler$??$sort@UFragmLevelCmp@?9??sort_file_list@FilePanel@@AAEXAAV?$list@UPanelItemData@FilePanel@@V?$allocator@UPanelItemData@FilePanel@@@std@@@std@@@Z@@?$list@UPanelItemData@FilePanel@@V?$allocator@UPanelItemData@FilePanel@@@std@@@std@@QAEXUFragmLevelCmp@?9??sort_file_list@FilePanel@@AAEXAAV01@@Z@@Z 61062fb1 f    CIL library: CIL module
 0001:00061fe0       __unwindfunclet$??$sort@UNameLenCmp@?M@??sort_file_list@FilePanel@@AAEXAAV?$list@UPanelItemData@FilePanel@@V?$allocator@UPanelItemData@FilePanel@@@std@@@std@@@Z@@?$list@UPanelItemData@FilePanel@@V?$allocator@UPanelItemData@FilePanel@@@std@@@std@@QAEXUNameLenCmp@?M@??sort_file_list@FilePanel@@AAEXAAV01@@Z@@Z$0 61062fe0 f    CIL library: CIL module
 0001:00061fe0       __unwindfunclet$??$sort@UFragmentsCmp@?5??sort_file_list@FilePanel@@AAEXAAV?$list@UPanelItemData@FilePanel@@V?$allocator@UPanelItemData@FilePanel@@@std@@@std@@@Z@@?$list@UPanelItemData@FilePanel@@V?$allocator@UPanelItemData@FilePanel@@@std@@@std@@QAEXUFragmentsCmp@?5??sort_file_list@FilePanel@@AAEXAAV01@@Z@@Z$0 61062fe0 f    CIL library: CIL module
 0001:00061fe0       __unwindfunclet$??$sort@UValidSizeCmp@?L@??sort_file_list@FilePanel@@AAEXAAV?$list@UPanelItemData@FilePanel@@V?$allocator@UPanelItemData@FilePanel@@@std@@@std@@@Z@@?$list@UPanelItemData@FilePanel@@V?$allocator@UPanelItemData@FilePanel@@@std@@@std@@QAEXUValidSizeCmp@?L@??sort_file_list@FilePanel@@AAEXAAV01@@Z@@Z$0 61062fe0 f    CIL library: CIL module
 0001:00061fe0       __unwindfunclet$??$sort@UDataSizeCmp@?3??sort_file_list@FilePanel@@AAEXAAV?$list@UPanelItemData@FilePanel@@V?$allocator@UPanelItemData@FilePanel@@@std@@@std@@@Z@@?$list@UPanelItemData@FilePanel@@V?$allocator@UPanelItemData@FilePanel@@@std@@@std@@QAEXUDataSizeCmp@?3??sort_file_list@FilePanel@@AAEXAAV01@@Z@@Z$0 61062fe0 f    CIL library: CIL module
 0001:00061fe0       __unwindfunclet$??$sort@UDiskSizeCmp@?4??sort_file_list@FilePanel@@AAEXAAV?$list@UPanelItemData@FilePanel@@V?$allocator@UPanelItemData@FilePanel@@@std@@@std@@@Z@@?$list@UPanelItemData@FilePanel@@V?$allocator@UPanelItemData@FilePanel@@@std@@@std@@QAEXUDiskSizeCmp@?4??sort_file_list@FilePanel@@AAEXAAV01@@Z@@Z$0 61062fe0 f    CIL library: CIL module
