Archive member included because of file (symbol)

D:\projects\andrew-grechkin\LIB\libfar3\Release-x64-NoStr\liblibfar3.a(editor.o)
                              src\process.o (Far::Editor::set_string(long long, wchar_t const*, unsigned long long, wchar_t const*))
D:\projects\andrew-grechkin\LIB\libfar3\Release-x64-NoStr\liblibfar3.a(message.o)
                              src\process.o (Far::get_msg(long long))
D:\projects\andrew-grechkin\LIB\libfar3\Release-x64-NoStr\liblibfar3.a(dialog_builder.o)
                              src\process.o (Far::create_dialog_builder(_GUID const&, wchar_t const*, wchar_t const*, long long (*)(void*, long long, long long, void*), void*))
D:\projects\andrew-grechkin\LIB\libfar3\Release-x64-NoStr\liblibfar3.a(create_label.o)
                              src\process.o (Far::create_label(wchar_t const*, unsigned long long))
D:\projects\andrew-grechkin\LIB\libfar3\Release-x64-NoStr\liblibfar3.a(create_combobox.o)
                              src\process.o (Far::create_combobox(long long*, FarListItem*, unsigned long long, unsigned long long))
D:\projects\andrew-grechkin\LIB\libfar3\Release-x64-NoStr\liblibfar3.a(create_separator.o)
                              src\process.o (Far::create_separator(wchar_t const*, unsigned long long))
D:\projects\andrew-grechkin\LIB\libfar3\Release-x64-NoStr\liblibfar3.a(create_checkbox.o)
                              src\process.o (Far::create_checkbox(long long*, wchar_t const*, unsigned long long))
D:\projects\andrew-grechkin\LIB\libfar3\Release-x64-NoStr\liblibfar3.a(create_edit.o)
                              src\process.o (Far::create_edit(wchar_t*, long long, long long, wchar_t const*, bool, unsigned long long))
D:\projects\andrew-grechkin\LIB\libfar3\Release-x64-NoStr\liblibfar3.a(globalinfo_i.o)
                              src\globalinfo.o (Far::GlobalInfo_i::~GlobalInfo_i())
D:\projects\andrew-grechkin\LIB\libfar3\Release-x64-NoStr\liblibfar3.a(plugin_i.o)
                              src\farplugin.o (Far::Plugin_i::~Plugin_i())
D:\projects\andrew-grechkin\LIB\libfar3\Release-x64-NoStr\liblibfar3.a(settings.o)
                              src\globalinfo.o (Far::Settings_t::~Settings_t())
D:\projects\andrew-grechkin\LIB\libfar3\Release-x64-NoStr\liblibfar3.a(FarDialogItem.o)
                              D:\projects\andrew-grechkin\LIB\libfar3\Release-x64-NoStr\liblibfar3.a(dialog_builder.o) (Far::FarDialogItem_t::~FarDialogItem_t())
D:\projects\andrew-grechkin\LIB\libfar3\Release-x64-NoStr\liblibfar3.a(DlgBuilder_c.o)
                              D:\projects\andrew-grechkin\LIB\libfar3\Release-x64-NoStr\liblibfar3.a(dialog_builder.o) (Far::PluginRadioButtonBinding::PluginRadioButtonBinding(void*&, long long, long long*, long long))
D:\projects\andrew-grechkin\LIB\libfar3\Release-x64-NoStr\liblibfar3.a(DialogItemBinding.o)
                              D:\projects\andrew-grechkin\LIB\libfar3\Release-x64-NoStr\liblibfar3.a(create_combobox.o) (Far::DialogItemBinding_i::~DialogItemBinding_i())
D:\projects\andrew-grechkin\LIB\liblog\Release-x64-stub\libliblog.a(logger_stub.o)
                              src\main.o (Logger::set_default_level(Logger::Level))
D:\projects\andrew-grechkin\LIB\liblog\Release-x64-stub\libliblog.a(target_null.o)
                              D:\projects\andrew-grechkin\LIB\liblog\Release-x64-stub\libliblog.a(logger_stub.o) (Logger::get_TargetToNull())
D:\projects\andrew-grechkin\LIB\libbase\Release-x64-NoStr\liblibbase.a(ref_cnt.o)
                              src\process.o (Base::ref_counter::~ref_counter())
D:\projects\andrew-grechkin\LIB\libbase\Release-x64-NoStr\liblibbase.a(new_delete.o)
                              src\process.o (operator new(unsigned long long))
D:\projects\andrew-grechkin\LIB\libbase\Release-x64-NoStr\liblibbase.a(crt.o)
                              src\main.o (Base::init_atexit())
c:/mingw/bin/../lib/gcc/x86_64-w64-mingw32/4.8.1\libgcc.a(_ctors.o)
                              D:\projects\andrew-grechkin\LIB\libbase\Release-x64-NoStr\liblibbase.a(crt.o) (__DTOR_LIST__)
c:/mingw/bin/../lib/gcc/x86_64-w64-mingw32/4.8.1/../../../../x86_64-w64-mingw32/lib/../lib\libmingwex.a(lib64_libmingwex_a-wcstold.o)
                              src\process.o (wcstold)
c:/mingw/bin/../lib/gcc/x86_64-w64-mingw32/4.8.1/../../../../x86_64-w64-mingw32/lib/../lib\libmingwex.a(lib64_libmingwex_a-strtold.o)
                              c:/mingw/bin/../lib/gcc/x86_64-w64-mingw32/4.8.1/../../../../x86_64-w64-mingw32/lib/../lib\libmingwex.a(lib64_libmingwex_a-wcstold.o) (strtold)
c:/mingw/bin/../lib/gcc/x86_64-w64-mingw32/4.8.1/../../../../x86_64-w64-mingw32/lib/../lib\libmingwex.a(lib64_libmingwex_a-cephes_emath.o)
                              c:/mingw/bin/../lib/gcc/x86_64-w64-mingw32/4.8.1/../../../../x86_64-w64-mingw32/lib/../lib\libmingwex.a(lib64_libmingwex_a-strtold.o) (__emovi)
c:/mingw/bin/../lib/gcc/x86_64-w64-mingw32/4.8.1/../../../../x86_64-w64-mingw32/lib/../lib\libntdll.a(dyubbs02011.o)
                              src\process.o (wcscmp)
c:/mingw/bin/../lib/gcc/x86_64-w64-mingw32/4.8.1/../../../../x86_64-w64-mingw32/lib/../lib\libntdll.a(dyubbs02010.o)
                              src\process.o (wcschr)
c:/mingw/bin/../lib/gcc/x86_64-w64-mingw32/4.8.1/../../../../x86_64-w64-mingw32/lib/../lib\libntdll.a(dyubbs01961.o)
                              src\process.o (memcpy)
c:/mingw/bin/../lib/gcc/x86_64-w64-mingw32/4.8.1/../../../../x86_64-w64-mingw32/lib/../lib\libntdll.a(dyubbs02015.o)
                              src\process.o (wcslen)
c:/mingw/bin/../lib/gcc/x86_64-w64-mingw32/4.8.1/../../../../x86_64-w64-mingw32/lib/../lib\libntdll.a(dyubbs02014.o)
                              src\process.o (wcscspn)
c:/mingw/bin/../lib/gcc/x86_64-w64-mingw32/4.8.1/../../../../x86_64-w64-mingw32/lib/../lib\libntdll.a(dyubbs02019.o)
                              src\process.o (wcsncpy)
c:/mingw/bin/../lib/gcc/x86_64-w64-mingw32/4.8.1/../../../../x86_64-w64-mingw32/lib/../lib\libntdll.a(dyubbs01981.o)
                              c:/mingw/bin/../lib/gcc/x86_64-w64-mingw32/4.8.1/../../../../x86_64-w64-mingw32/lib/../lib\libmingwex.a(lib64_libmingwex_a-strtold.o) (strlen)
c:/mingw/bin/../lib/gcc/x86_64-w64-mingw32/4.8.1/../../../../x86_64-w64-mingw32/lib/../lib\libntdll.a(dyubbs01946.o)
                              c:/mingw/bin/../lib/gcc/x86_64-w64-mingw32/4.8.1/../../../../x86_64-w64-mingw32/lib/../lib\libmingwex.a(lib64_libmingwex_a-strtold.o) (isspace)
c:/mingw/bin/../lib/gcc/x86_64-w64-mingw32/4.8.1/../../../../x86_64-w64-mingw32/lib/../lib\libntdll.a(dyubbs01896.o)
                              c:/mingw/bin/../lib/gcc/x86_64-w64-mingw32/4.8.1/../../../../x86_64-w64-mingw32/lib/../lib\libmingwex.a(lib64_libmingwex_a-strtold.o) (_strnicmp)
c:/mingw/bin/../lib/gcc/x86_64-w64-mingw32/4.8.1/../../../../x86_64-w64-mingw32/lib/../lib\libntdll.a(dyubbh.o)
                              c:/mingw/bin/../lib/gcc/x86_64-w64-mingw32/4.8.1/../../../../x86_64-w64-mingw32/lib/../lib\libntdll.a(dyubbs02011.o) (_head_lib64_libntdll_a)
c:/mingw/bin/../lib/gcc/x86_64-w64-mingw32/4.8.1/../../../../x86_64-w64-mingw32/lib/../lib\libntdll.a(dyubbt.o)
                              c:/mingw/bin/../lib/gcc/x86_64-w64-mingw32/4.8.1/../../../../x86_64-w64-mingw32/lib/../lib\libntdll.a(dyubbh.o) (__lib64_libntdll_a_iname)
c:/mingw/bin/../lib/gcc/x86_64-w64-mingw32/4.8.1/../../../../x86_64-w64-mingw32/lib/../lib\libmsvcrt.a(dqows00092.o)
                              c:/mingw/bin/../lib/gcc/x86_64-w64-mingw32/4.8.1/../../../../x86_64-w64-mingw32/lib/../lib\libmingwex.a(lib64_libmingwex_a-wcstold.o) (__imp___mb_cur_max)
c:/mingw/bin/../lib/gcc/x86_64-w64-mingw32/4.8.1/../../../../x86_64-w64-mingw32/lib/../lib\libmsvcrt.a(dqows00063.o)
                              c:/mingw/bin/../lib/gcc/x86_64-w64-mingw32/4.8.1/../../../../x86_64-w64-mingw32/lib/../lib\libmingwex.a(lib64_libmingwex_a-wcstold.o) (___lc_codepage_func)
c:/mingw/bin/../lib/gcc/x86_64-w64-mingw32/4.8.1/../../../../x86_64-w64-mingw32/lib/../lib\libmsvcrt.a(dqows01137.o)
                              c:/mingw/bin/../lib/gcc/x86_64-w64-mingw32/4.8.1/../../../../x86_64-w64-mingw32/lib/../lib\libmingwex.a(lib64_libmingwex_a-wcstold.o) (malloc)
c:/mingw/bin/../lib/gcc/x86_64-w64-mingw32/4.8.1/../../../../x86_64-w64-mingw32/lib/../lib\libmsvcrt.a(dqows00508.o)
                              c:/mingw/bin/../lib/gcc/x86_64-w64-mingw32/4.8.1/../../../../x86_64-w64-mingw32/lib/../lib\libmingwex.a(lib64_libmingwex_a-wcstold.o) (_mbslen)
c:/mingw/bin/../lib/gcc/x86_64-w64-mingw32/4.8.1/../../../../x86_64-w64-mingw32/lib/../lib\libmsvcrt.a(dqows01079.o)
                              c:/mingw/bin/../lib/gcc/x86_64-w64-mingw32/4.8.1/../../../../x86_64-w64-mingw32/lib/../lib\libmingwex.a(lib64_libmingwex_a-wcstold.o) (free)
c:/mingw/bin/../lib/gcc/x86_64-w64-mingw32/4.8.1/../../../../x86_64-w64-mingw32/lib/../lib\libmsvcrt.a(dqows01130.o)
                              c:/mingw/bin/../lib/gcc/x86_64-w64-mingw32/4.8.1/../../../../x86_64-w64-mingw32/lib/../lib\libmingwex.a(lib64_libmingwex_a-strtold.o) (localeconv)
c:/mingw/bin/../lib/gcc/x86_64-w64-mingw32/4.8.1/../../../../x86_64-w64-mingw32/lib/../lib\libmsvcrt.a(dqows00201.o)
                              c:/mingw/bin/../lib/gcc/x86_64-w64-mingw32/4.8.1/../../../../x86_64-w64-mingw32/lib/../lib\libmingwex.a(lib64_libmingwex_a-strtold.o) (_errno)
c:/mingw/bin/../lib/gcc/x86_64-w64-mingw32/4.8.1/../../../../x86_64-w64-mingw32/lib/../lib\libmsvcrt.a(dqowh.o)
                              c:/mingw/bin/../lib/gcc/x86_64-w64-mingw32/4.8.1/../../../../x86_64-w64-mingw32/lib/../lib\libmsvcrt.a(dqows00092.o) (_head_lib64_libmsvcrt_a)
c:/mingw/bin/../lib/gcc/x86_64-w64-mingw32/4.8.1/../../../../x86_64-w64-mingw32/lib/../lib\libmsvcrt.a(dqowt.o)
                              c:/mingw/bin/../lib/gcc/x86_64-w64-mingw32/4.8.1/../../../../x86_64-w64-mingw32/lib/../lib\libmsvcrt.a(dqowh.o) (__lib64_libmsvcrt_a_iname)
c:/mingw/bin/../lib/gcc/x86_64-w64-mingw32/4.8.1/../../../../x86_64-w64-mingw32/lib/../lib\libkernel32.a(dspqs00103.o)
                              src\process.o (__imp_CompareStringW)
c:/mingw/bin/../lib/gcc/x86_64-w64-mingw32/4.8.1/../../../../x86_64-w64-mingw32/lib/../lib\libkernel32.a(dspqs00603.o)
                              src\process.o (__imp_GetProcessHeap)
c:/mingw/bin/../lib/gcc/x86_64-w64-mingw32/4.8.1/../../../../x86_64-w64-mingw32/lib/../lib\libkernel32.a(dspqs00740.o)
                              src\process.o (__imp_HeapFree)
c:/mingw/bin/../lib/gcc/x86_64-w64-mingw32/4.8.1/../../../../x86_64-w64-mingw32/lib/../lib\libkernel32.a(dspqs00734.o)
                              src\process.o (__imp_HeapAlloc)
c:/mingw/bin/../lib/gcc/x86_64-w64-mingw32/4.8.1/../../../../x86_64-w64-mingw32/lib/../lib\libkernel32.a(dspqs00744.o)
                              src\process.o (__imp_HeapReAlloc)
c:/mingw/bin/../lib/gcc/x86_64-w64-mingw32/4.8.1/../../../../x86_64-w64-mingw32/lib/../lib\libkernel32.a(dspqs01358.o)
                              D:\projects\andrew-grechkin\LIB\libfar3\Release-x64-NoStr\liblibfar3.a(create_combobox.o) (__imp_lstrlenW)
c:/mingw/bin/../lib/gcc/x86_64-w64-mingw32/4.8.1/../../../../x86_64-w64-mingw32/lib/../lib\libkernel32.a(dspqs01355.o)
                              D:\projects\andrew-grechkin\LIB\libfar3\Release-x64-NoStr\liblibfar3.a(create_edit.o) (__imp_lstrcpynW)
c:/mingw/bin/../lib/gcc/x86_64-w64-mingw32/4.8.1/../../../../x86_64-w64-mingw32/lib/../lib\libkernel32.a(dspqs01294.o)
                              c:/mingw/bin/../lib/gcc/x86_64-w64-mingw32/4.8.1/../../../../x86_64-w64-mingw32/lib/../lib\libmingwex.a(lib64_libmingwex_a-wcstold.o) (__imp_WideCharToMultiByte)
c:/mingw/bin/../lib/gcc/x86_64-w64-mingw32/4.8.1/../../../../x86_64-w64-mingw32/lib/../lib\libkernel32.a(dspqh.o)
                              c:/mingw/bin/../lib/gcc/x86_64-w64-mingw32/4.8.1/../../../../x86_64-w64-mingw32/lib/../lib\libkernel32.a(dspqs00103.o) (_head_lib64_libkernel32_a)
c:/mingw/bin/../lib/gcc/x86_64-w64-mingw32/4.8.1/../../../../x86_64-w64-mingw32/lib/../lib\libkernel32.a(dspqt.o)
                              c:/mingw/bin/../lib/gcc/x86_64-w64-mingw32/4.8.1/../../../../x86_64-w64-mingw32/lib/../lib\libkernel32.a(dspqh.o) (__lib64_libkernel32_a_iname)

Allocating common symbols
Common symbol       size              file

__CTOR_LIST__       0x10              c:/mingw/bin/../lib/gcc/x86_64-w64-mingw32/4.8.1\libgcc.a(_ctors.o)
__DTOR_LIST__       0x10              c:/mingw/bin/../lib/gcc/x86_64-w64-mingw32/4.8.1\libgcc.a(_ctors.o)

Discarded input sections

 .data$_ZZN3Far8helper_t4instEvE3ret
                0x0000000000000000       0x10 src\globalinfo.o
 .data$_ZGVZN3Far8helper_t4instEvE3ret
                0x0000000000000000       0x10 src\globalinfo.o
 .data$_ZZN3Far8helper_t4instEvE3ret
                0x0000000000000000       0x10 D:\projects\andrew-grechkin\LIB\libfar3\Release-x64-NoStr\liblibfar3.a(editor.o)
 .data$_ZGVZN3Far8helper_t4instEvE3ret
                0x0000000000000000       0x10 D:\projects\andrew-grechkin\LIB\libfar3\Release-x64-NoStr\liblibfar3.a(editor.o)
 .data$_ZZN3Far8helper_t4instEvE3ret
                0x0000000000000000       0x10 D:\projects\andrew-grechkin\LIB\libfar3\Release-x64-NoStr\liblibfar3.a(message.o)
 .data$_ZGVZN3Far8helper_t4instEvE3ret
                0x0000000000000000       0x10 D:\projects\andrew-grechkin\LIB\libfar3\Release-x64-NoStr\liblibfar3.a(message.o)
 .data$_ZZN3Far8helper_t4instEvE3ret
                0x0000000000000000       0x10 D:\projects\andrew-grechkin\LIB\libfar3\Release-x64-NoStr\liblibfar3.a(dialog_builder.o)
 .data$_ZGVZN3Far8helper_t4instEvE3ret
                0x0000000000000000       0x10 D:\projects\andrew-grechkin\LIB\libfar3\Release-x64-NoStr\liblibfar3.a(dialog_builder.o)
 .data$_ZZN3Far8helper_t4instEvE3ret
                0x0000000000000000       0x10 D:\projects\andrew-grechkin\LIB\libfar3\Release-x64-NoStr\liblibfar3.a(create_combobox.o)
 .data$_ZGVZN3Far8helper_t4instEvE3ret
                0x0000000000000000       0x10 D:\projects\andrew-grechkin\LIB\libfar3\Release-x64-NoStr\liblibfar3.a(create_combobox.o)
 .data$_ZZN3Far8helper_t4instEvE3ret
                0x0000000000000000       0x10 D:\projects\andrew-grechkin\LIB\libfar3\Release-x64-NoStr\liblibfar3.a(create_checkbox.o)
 .data$_ZGVZN3Far8helper_t4instEvE3ret
                0x0000000000000000       0x10 D:\projects\andrew-grechkin\LIB\libfar3\Release-x64-NoStr\liblibfar3.a(create_checkbox.o)
 .data$_ZZN3Far8helper_t4instEvE3ret
                0x0000000000000000       0x10 D:\projects\andrew-grechkin\LIB\libfar3\Release-x64-NoStr\liblibfar3.a(create_edit.o)
 .data$_ZGVZN3Far8helper_t4instEvE3ret
                0x0000000000000000       0x10 D:\projects\andrew-grechkin\LIB\libfar3\Release-x64-NoStr\liblibfar3.a(create_edit.o)
 .data$_ZZN3Far8helper_t4instEvE3ret
                0x0000000000000000       0x10 D:\projects\andrew-grechkin\LIB\libfar3\Release-x64-NoStr\liblibfar3.a(settings.o)
 .data$_ZGVZN3Far8helper_t4instEvE3ret
                0x0000000000000000       0x10 D:\projects\andrew-grechkin\LIB\libfar3\Release-x64-NoStr\liblibfar3.a(settings.o)
 .data$_ZZN3Far8helper_t4instEvE3ret
                0x0000000000000000       0x10 D:\projects\andrew-grechkin\LIB\libfar3\Release-x64-NoStr\liblibfar3.a(DlgBuilder_c.o)
 .data$_ZGVZN3Far8helper_t4instEvE3ret
                0x0000000000000000       0x10 D:\projects\andrew-grechkin\LIB\libfar3\Release-x64-NoStr\liblibfar3.a(DlgBuilder_c.o)
 .text$_ZNSt16_Sp_counted_baseILN9__gnu_cxx12_Lock_policyE2EE10_M_destroyEv
                0x0000000000000000       0x20 D:\projects\andrew-grechkin\LIB\liblog\Release-x64-stub\libliblog.a(target_null.o)
 .xdata$_ZNSt16_Sp_counted_baseILN9__gnu_cxx12_Lock_policyE2EE10_M_destroyEv
                0x0000000000000000        0x4 D:\projects\andrew-grechkin\LIB\liblog\Release-x64-stub\libliblog.a(target_null.o)
 .pdata$_ZNSt16_Sp_counted_baseILN9__gnu_cxx12_Lock_policyE2EE10_M_destroyEv
                0x0000000000000000        0xc D:\projects\andrew-grechkin\LIB\liblog\Release-x64-stub\libliblog.a(target_null.o)
 .text$_ZNSt16_Sp_counted_baseILN9__gnu_cxx12_Lock_policyE2EED1Ev
                0x0000000000000000       0x10 D:\projects\andrew-grechkin\LIB\liblog\Release-x64-stub\libliblog.a(target_null.o)
 .xdata$_ZNSt16_Sp_counted_baseILN9__gnu_cxx12_Lock_policyE2EED1Ev
                0x0000000000000000        0x4 D:\projects\andrew-grechkin\LIB\liblog\Release-x64-stub\libliblog.a(target_null.o)
 .pdata$_ZNSt16_Sp_counted_baseILN9__gnu_cxx12_Lock_policyE2EED1Ev
                0x0000000000000000        0xc D:\projects\andrew-grechkin\LIB\liblog\Release-x64-stub\libliblog.a(target_null.o)
 .text$_ZNSt16_Sp_counted_baseILN9__gnu_cxx12_Lock_policyE2EED0Ev
                0x0000000000000000       0x10 D:\projects\andrew-grechkin\LIB\liblog\Release-x64-stub\libliblog.a(target_null.o)
 .xdata$_ZNSt16_Sp_counted_baseILN9__gnu_cxx12_Lock_policyE2EED0Ev
                0x0000000000000000        0x4 D:\projects\andrew-grechkin\LIB\liblog\Release-x64-stub\libliblog.a(target_null.o)
 .pdata$_ZNSt16_Sp_counted_baseILN9__gnu_cxx12_Lock_policyE2EED0Ev
                0x0000000000000000        0xc D:\projects\andrew-grechkin\LIB\liblog\Release-x64-stub\libliblog.a(target_null.o)
 .rdata$_ZTVSt16_Sp_counted_baseILN9__gnu_cxx12_Lock_policyE2EE
                0x0000000000000000       0x40 D:\projects\andrew-grechkin\LIB\liblog\Release-x64-stub\libliblog.a(target_null.o)
 .drectve       0x0000000000000000       0x3c c:/mingw/bin/../lib/gcc/x86_64-w64-mingw32/4.8.1\libgcc.a(_ctors.o)
 .debug_info    0x0000000000000000      0xb04 c:/mingw/bin/../lib/gcc/x86_64-w64-mingw32/4.8.1\libgcc.a(_ctors.o)
 .debug_abbrev  0x0000000000000000       0x73 c:/mingw/bin/../lib/gcc/x86_64-w64-mingw32/4.8.1\libgcc.a(_ctors.o)
 .debug_aranges
                0x0000000000000000       0x20 c:/mingw/bin/../lib/gcc/x86_64-w64-mingw32/4.8.1\libgcc.a(_ctors.o)
 .debug_line    0x0000000000000000       0x9e c:/mingw/bin/../lib/gcc/x86_64-w64-mingw32/4.8.1\libgcc.a(_ctors.o)
 .debug_str     0x0000000000000000        0x0 c:/mingw/bin/../lib/gcc/x86_64-w64-mingw32/4.8.1\libgcc.a(_ctors.o)
 .debug_info    0x0000000000000000      0x405 c:/mingw/bin/../lib/gcc/x86_64-w64-mingw32/4.8.1/../../../../x86_64-w64-mingw32/lib/../lib\libmingwex.a(lib64_libmingwex_a-wcstold.o)
 .debug_abbrev  0x0000000000000000      0x131 c:/mingw/bin/../lib/gcc/x86_64-w64-mingw32/4.8.1/../../../../x86_64-w64-mingw32/lib/../lib\libmingwex.a(lib64_libmingwex_a-wcstold.o)
 .debug_loc     0x0000000000000000      0x31c c:/mingw/bin/../lib/gcc/x86_64-w64-mingw32/4.8.1/../../../../x86_64-w64-mingw32/lib/../lib\libmingwex.a(lib64_libmingwex_a-wcstold.o)
 .debug_aranges
                0x0000000000000000       0x30 c:/mingw/bin/../lib/gcc/x86_64-w64-mingw32/4.8.1/../../../../x86_64-w64-mingw32/lib/../lib\libmingwex.a(lib64_libmingwex_a-wcstold.o)
 .debug_ranges  0x0000000000000000       0x30 c:/mingw/bin/../lib/gcc/x86_64-w64-mingw32/4.8.1/../../../../x86_64-w64-mingw32/lib/../lib\libmingwex.a(lib64_libmingwex_a-wcstold.o)
 .debug_line    0x0000000000000000      0x171 c:/mingw/bin/../lib/gcc/x86_64-w64-mingw32/4.8.1/../../../../x86_64-w64-mingw32/lib/../lib\libmingwex.a(lib64_libmingwex_a-wcstold.o)
 .debug_str     0x0000000000000000        0x0 c:/mingw/bin/../lib/gcc/x86_64-w64-mingw32/4.8.1/../../../../x86_64-w64-mingw32/lib/../lib\libmingwex.a(lib64_libmingwex_a-wcstold.o)
 .debug_frame   0x0000000000000000       0x88 c:/mingw/bin/../lib/gcc/x86_64-w64-mingw32/4.8.1/../../../../x86_64-w64-mingw32/lib/../lib\libmingwex.a(lib64_libmingwex_a-wcstold.o)
 .debug_info    0x0000000000000000      0xf04 c:/mingw/bin/../lib/gcc/x86_64-w64-mingw32/4.8.1/../../../../x86_64-w64-mingw32/lib/../lib\libmingwex.a(lib64_libmingwex_a-strtold.o)
 .debug_abbrev  0x0000000000000000      0x28c c:/mingw/bin/../lib/gcc/x86_64-w64-mingw32/4.8.1/../../../../x86_64-w64-mingw32/lib/../lib\libmingwex.a(lib64_libmingwex_a-strtold.o)
 .debug_loc     0x0000000000000000     0x1792 c:/mingw/bin/../lib/gcc/x86_64-w64-mingw32/4.8.1/../../../../x86_64-w64-mingw32/lib/../lib\libmingwex.a(lib64_libmingwex_a-strtold.o)
 .debug_aranges
                0x0000000000000000       0x30 c:/mingw/bin/../lib/gcc/x86_64-w64-mingw32/4.8.1/../../../../x86_64-w64-mingw32/lib/../lib\libmingwex.a(lib64_libmingwex_a-strtold.o)
 .debug_ranges  0x0000000000000000      0x240 c:/mingw/bin/../lib/gcc/x86_64-w64-mingw32/4.8.1/../../../../x86_64-w64-mingw32/lib/../lib\libmingwex.a(lib64_libmingwex_a-strtold.o)
 .debug_line    0x0000000000000000      0x3ee c:/mingw/bin/../lib/gcc/x86_64-w64-mingw32/4.8.1/../../../../x86_64-w64-mingw32/lib/../lib\libmingwex.a(lib64_libmingwex_a-strtold.o)
 .debug_str     0x0000000000000000        0x9 c:/mingw/bin/../lib/gcc/x86_64-w64-mingw32/4.8.1/../../../../x86_64-w64-mingw32/lib/../lib\libmingwex.a(lib64_libmingwex_a-strtold.o)
 .debug_frame   0x0000000000000000       0xc8 c:/mingw/bin/../lib/gcc/x86_64-w64-mingw32/4.8.1/../../../../x86_64-w64-mingw32/lib/../lib\libmingwex.a(lib64_libmingwex_a-strtold.o)
 .debug_info    0x0000000000000000     0x1b29 c:/mingw/bin/../lib/gcc/x86_64-w64-mingw32/4.8.1/../../../../x86_64-w64-mingw32/lib/../lib\libmingwex.a(lib64_libmingwex_a-cephes_emath.o)
 .debug_abbrev  0x0000000000000000      0x2c2 c:/mingw/bin/../lib/gcc/x86_64-w64-mingw32/4.8.1/../../../../x86_64-w64-mingw32/lib/../lib\libmingwex.a(lib64_libmingwex_a-cephes_emath.o)
 .debug_loc     0x0000000000000000     0x3eb2 c:/mingw/bin/../lib/gcc/x86_64-w64-mingw32/4.8.1/../../../../x86_64-w64-mingw32/lib/../lib\libmingwex.a(lib64_libmingwex_a-cephes_emath.o)
 .debug_aranges
                0x0000000000000000       0x30 c:/mingw/bin/../lib/gcc/x86_64-w64-mingw32/4.8.1/../../../../x86_64-w64-mingw32/lib/../lib\libmingwex.a(lib64_libmingwex_a-cephes_emath.o)
 .debug_ranges  0x0000000000000000      0x600 c:/mingw/bin/../lib/gcc/x86_64-w64-mingw32/4.8.1/../../../../x86_64-w64-mingw32/lib/../lib\libmingwex.a(lib64_libmingwex_a-cephes_emath.o)
 .debug_line    0x0000000000000000      0x6b1 c:/mingw/bin/../lib/gcc/x86_64-w64-mingw32/4.8.1/../../../../x86_64-w64-mingw32/lib/../lib\libmingwex.a(lib64_libmingwex_a-cephes_emath.o)
 .debug_str     0x0000000000000000        0x0 c:/mingw/bin/../lib/gcc/x86_64-w64-mingw32/4.8.1/../../../../x86_64-w64-mingw32/lib/../lib\libmingwex.a(lib64_libmingwex_a-cephes_emath.o)
 .debug_frame   0x0000000000000000      0x3b0 c:/mingw/bin/../lib/gcc/x86_64-w64-mingw32/4.8.1/../../../../x86_64-w64-mingw32/lib/../lib\libmingwex.a(lib64_libmingwex_a-cephes_emath.o)

Memory Configuration

Name             Origin             Length             Attributes
*default*        0x0000000000000000 0xffffffffffffffff

Linker script and memory map

                0x0000000068a80000                __image_base__ = 0x68a80000
                0x0000000000000000                __dll__ = 0x0
                0x0000000068a80000                __ImageBase = 0x68a80000
                0x0000000000001000                __section_alignment__ = 0x1000
                0x0000000000000200                __file_alignment__ = 0x200
                0x0000000000000004                __major_os_version__ = 0x4
                0x0000000000000000                __minor_os_version__ = 0x0
                0x0000000000000000                __major_image_version__ = 0x0
                0x0000000000000000                __minor_image_version__ = 0x0
                0x0000000000000005                __major_subsystem_version__ = 0x5
                0x0000000000000002                __minor_subsystem_version__ = 0x2
                0x0000000000000003                __subsystem__ = 0x3
                0x0000000000200000                __size_of_stack_reserve__ = 0x200000
                0x0000000000001000                __size_of_stack_commit__ = 0x1000
                0x0000000000100000                __size_of_heap_reserve__ = 0x100000
                0x0000000000001000                __size_of_heap_commit__ = 0x1000
                0x0000000000000000                __loader_flags__ = 0x0
                0x0000000000000000                __dll_characteristics__ = 0x0
LOAD ..\src\mainW.gcc.def
LOAD src\process.o
LOAD src\main.o
LOAD src\guid.o
LOAD src\globalinfo.o
LOAD src\farplugin.o
LOAD src\main.res
LOAD D:\projects\andrew-grechkin\LIB\libfar3\Release-x64-NoStr\liblibfar3.a
LOAD D:\projects\andrew-grechkin\LIB\liblog\Release-x64-stub\libliblog.a
LOAD D:\projects\andrew-grechkin\LIB\libbase\Release-x64-NoStr\liblibbase.a
LOAD c:/mingw/bin/../lib/gcc/x86_64-w64-mingw32/4.8.1\libgcc.a
LOAD c:/mingw/bin/../lib/gcc/x86_64-w64-mingw32/4.8.1/../../../../x86_64-w64-mingw32/lib/../lib\libmingwex.a
LOAD c:/mingw/bin/../lib/gcc/x86_64-w64-mingw32/4.8.1/../../../../x86_64-w64-mingw32/lib/../lib\libmingw32.a
LOAD c:/mingw/bin/../lib/gcc/x86_64-w64-mingw32/4.8.1/../../../../x86_64-w64-mingw32/lib/../lib\libntdll.a
LOAD c:/mingw/bin/../lib/gcc/x86_64-w64-mingw32/4.8.1/../../../../x86_64-w64-mingw32/lib/../lib\libmsvcrt.a
LOAD c:/mingw/bin/../lib/gcc/x86_64-w64-mingw32/4.8.1/../../../../x86_64-w64-mingw32/lib/../lib\libkernel32.a
                0x0000000000000318                . = SIZEOF_HEADERS
                0x0000000000001000                . = ALIGN (__section_alignment__)

.text           0x0000000068a81000     0xce00
 *(.init)
 *(.text)
 .text          0x0000000068a81000     0x1600 src\process.o
                0x0000000068a81000                SortInfoEqNum(SortInfo const&, SortInfo const&)
                0x0000000068a81020                SortInfoLessLine(SortInfo const&, SortInfo const&)
                0x0000000068a81030                SortInfoEqLength(SortInfo const&, SortInfo const&)
                0x0000000068a81050                SortInfoLessNum(SortInfo const&, SortInfo const&)
                0x0000000068a81090                SortInfoLessLength(SortInfo const&, SortInfo const&)
                0x0000000068a810c0                SortInfoEqCI(SortInfo const&, SortInfo const&)
                0x0000000068a81100                SortInfoEqCS(SortInfo const&, SortInfo const&)
                0x0000000068a81140                SortInfoLessCI(SortInfo const&, SortInfo const&)
                0x0000000068a811b0                SortInfoLessCS(SortInfo const&, SortInfo const&)
                0x0000000068a81220                SortInfoEqCScode(SortInfo const&, SortInfo const&)
                0x0000000068a81250                SortInfoLessCScode(SortInfo const&, SortInfo const&)
                0x0000000068a812a0                is_whitespace(wchar_t)
                0x0000000068a812d0                editor_set_string(long long, Base::basic_string<wchar_t, Base::char_traits<wchar_t> > const&, wchar_t const*)
                0x0000000068a81350                SortInfo::get_substr(StringInfo const&, EDITOR_BLOCK_TYPES, bool)
                0x0000000068a814a0                SortInfo::FindNum(wchar_t const*)
                0x0000000068a81600                Execute()
                0x0000000068a82260                process()
 .text          0x0000000068a82600      0x420 src\main.o
                0x0000000068a82630                GetGlobalInfoW
                0x0000000068a82740                SetStartupInfoW
                0x0000000068a827b0                ConfigureW
                0x0000000068a82810                GetPluginInfoW
                0x0000000068a828a0                OpenW
                0x0000000068a82930                ExitFARW
                0x0000000068a829c0                atexit
                0x0000000068a829d0                __cxa_pure_virtual
                0x0000000068a829e0                _pei386_runtime_relocator
                0x0000000068a829f0                DllMainCRTStartup
 .text          0x0000000068a82a20        0x0 src\guid.o
 .text          0x0000000068a82a20      0x850 src\globalinfo.o
                0x0000000068a82a50                FarGlobalInfo::get_author() const
                0x0000000068a82a60                FarGlobalInfo::get_description() const
                0x0000000068a82a70                FarGlobalInfo::get_guid() const
                0x0000000068a82a80                FarGlobalInfo::get_title() const
                0x0000000068a82a90                FarGlobalInfo::get_version() const
                0x0000000068a82ac0                FarGlobalInfo::get_min_version() const
                0x0000000068a82af0                FarGlobalInfo::~FarGlobalInfo()
                0x0000000068a82af0                FarGlobalInfo::~FarGlobalInfo()
                0x0000000068a82b50                FarGlobalInfo::CreatePlugin(PluginStartupInfo const*) const
                0x0000000068a82ba0                FarGlobalInfo::~FarGlobalInfo()
                0x0000000068a82c00                FarGlobalInfo::FarGlobalInfo()
                0x0000000068a82c00                FarGlobalInfo::FarGlobalInfo()
                0x0000000068a82ca0                FarGlobalInfo::load_settings()
                0x0000000068a82f60                FarGlobalInfo::save_settings() const
                0x0000000068a831a0                FarGlobalInfo::load_editor_info()
                0x0000000068a83230                get_global_info()
 .text          0x0000000068a83270      0x2c0 src\farplugin.o
                0x0000000068a83270                FarPlugin::~FarPlugin()
                0x0000000068a83270                FarPlugin::~FarPlugin()
                0x0000000068a832d0                FarPlugin::GetPluginInfo(PluginInfo*)
                0x0000000068a83390                FarPlugin::Open(OpenInfo const*)
                0x0000000068a833e0                FarPlugin::~FarPlugin()
                0x0000000068a83440                FarPlugin::FarPlugin(PluginStartupInfo const*)
                0x0000000068a83440                FarPlugin::FarPlugin(PluginStartupInfo const*)
                0x0000000068a834a0                create_FarPlugin(PluginStartupInfo const*)
                0x0000000068a83510                destroy(Far::Plugin_i*)
 .text          0x0000000068a83530      0x7c0 D:\projects\andrew-grechkin\LIB\libfar3\Release-x64-NoStr\liblibfar3.a(editor.o)
                0x0000000068a83560                Far::Editor::get_filename(wchar_t*, long long)
                0x0000000068a83620                Far::Editor::get_string(long long, wchar_t const*&)
                0x0000000068a836b0                Far::Editor::set_position(long long, long long)
                0x0000000068a83750                Far::Editor::set_string(long long, wchar_t const*, unsigned long long, wchar_t const*)
                0x0000000068a837d0                Far::Editor::insert_string(long long, wchar_t const*, int, wchar_t const*)
                0x0000000068a83960                Far::Editor::del_string(long long)
                0x0000000068a83a50                Far::Editor::unselect_block()
                0x0000000068a83ad0                Far::Editor::start_undo()
                0x0000000068a83b40                Far::Editor::stop_undo()
                0x0000000068a83bb0                Far::Editor::redraw()
                0x0000000068a83c10                Far::Editor::get_info(EditorInfo&)
                0x0000000068a83c80                Far::Editor::get_string(unsigned long long, EditorGetString&)
 .text          0x0000000068a83cf0       0xe0 D:\projects\andrew-grechkin\LIB\libfar3\Release-x64-NoStr\liblibfar3.a(message.o)
                0x0000000068a83d20                Far::get_msg(long long)
 .text          0x0000000068a83dd0     0x1bd0 D:\projects\andrew-grechkin\LIB\libfar3\Release-x64-NoStr\liblibfar3.a(dialog_builder.o)
                0x0000000068a83e00                Far::SimpleDialogBuilder_impl::start_column_()
                0x0000000068a83e10                Far::SimpleDialogBuilder_impl::break_column_()
                0x0000000068a83e20                Far::SimpleDialogBuilder_impl::end_column_()
                0x0000000068a83e30                Far::SimpleDialogBuilder_impl::end_singlebox_()
                0x0000000068a83e70                Far::DialogBuilder_i::~DialogBuilder_i()
                0x0000000068a83e70                Far::DialogBuilder_i::~DialogBuilder_i()
                0x0000000068a83ec0                Far::SimpleDialogBuilder_impl::add_empty_line_()
                0x0000000068a83f10                Far::DialogBuilder_i::~DialogBuilder_i()
                0x0000000068a83f70                Far::SimpleDialogBuilder_impl::~SimpleDialogBuilder_impl()
                0x0000000068a83f70                Far::SimpleDialogBuilder_impl::~SimpleDialogBuilder_impl()
                0x0000000068a84080                Far::SimpleDialogBuilder_impl::~SimpleDialogBuilder_impl()
                0x0000000068a840a0                Far::CompareX2_less(Far::FarDialogItem_t const&, Far::FarDialogItem_t const&)
                0x0000000068a840b0                Far::CompareWidth_less(Far::FarDialogItem_t const&, Far::FarDialogItem_t const&)
                0x0000000068a840f0                Far::SimpleDialogBuilder_impl::GetMaxItemX2() const
                0x0000000068a84200                Far::SimpleDialogBuilder_impl::save()
                0x0000000068a84270                Far::SimpleDialogBuilder_impl::set_next_y(Far::FarDialogItem_t*)
                0x0000000068a842f0                Far::SimpleDialogBuilder_impl::show_dialog_()
                0x0000000068a844a0                Far::SimpleDialogBuilder_impl::UpdateBorderSize()
                0x0000000068a84580                Far::SimpleDialogBuilder_impl::show_()
                0x0000000068a84660                Far::SimpleDialogBuilder_impl::add_dialog_item(Far::FarDialogItem_t*)
                0x0000000068a84730                Far::SimpleDialogBuilder_impl::add_item_(Far::FarDialogItem_t*)
                0x0000000068a84880                Far::SimpleDialogBuilder_impl::add_item_before_(Far::FarDialogItem_t*)
                0x0000000068a849d0                Far::SimpleDialogBuilder_impl::add_item_after_(Far::FarDialogItem_t*)
                0x0000000068a84b40                Far::SimpleDialogBuilder_impl::add_radiobuttons_(long long*, long long, Far::AddRadioButton_t const*, bool)
                0x0000000068a84db0                Far::SimpleDialogBuilder_impl::add_dialog_item(FARDIALOGITEMTYPES, wchar_t const*, unsigned long long)
                0x0000000068a84e90                Far::SimpleDialogBuilder_impl::start_singlebox_(long long, wchar_t const*, bool)
                0x0000000068a84ff0                Far::SimpleDialogBuilder_impl::create_border(wchar_t const*)
                0x0000000068a85150                Far::SimpleDialogBuilder_impl::SimpleDialogBuilder_impl(_GUID const&, wchar_t const*, wchar_t const*, long long (*)(void*, long long, long long, void*), void*)
                0x0000000068a85150                Far::SimpleDialogBuilder_impl::SimpleDialogBuilder_impl(_GUID const&, wchar_t const*, wchar_t const*, long long (*)(void*, long long, long long, void*), void*)
                0x0000000068a85360                Far::create_dialog_builder(_GUID const&, wchar_t const*, wchar_t const*, long long (*)(void*, long long, long long, void*), void*)
                0x0000000068a85600                Far::SimpleDialogBuilder_impl::add_OKCancel_(wchar_t const*, wchar_t const*, wchar_t const*)
 .text          0x0000000068a859a0       0x80 D:\projects\andrew-grechkin\LIB\libfar3\Release-x64-NoStr\liblibfar3.a(create_label.o)
                0x0000000068a859a0                Far::create_label(wchar_t const*, unsigned long long)
 .text          0x0000000068a85a20      0x330 D:\projects\andrew-grechkin\LIB\libfar3\Release-x64-NoStr\liblibfar3.a(create_combobox.o)
                0x0000000068a85a50                Far::ComboBoxBinding::save_() const
                0x0000000068a85b10                Far::ComboBoxBinding::get_width_() const
                0x0000000068a85bc0                Far::ComboBoxBinding::ComboBoxBinding(long long*, FarListItem*, unsigned long long)
                0x0000000068a85bc0                Far::ComboBoxBinding::ComboBoxBinding(long long*, FarListItem*, unsigned long long)
                0x0000000068a85bf0                Far::ComboBoxBinding::get_items() const
                0x0000000068a85c00                Far::create_combobox(long long*, FarListItem*, unsigned long long, unsigned long long)
 .text          0x0000000068a85d50       0x80 D:\projects\andrew-grechkin\LIB\libfar3\Release-x64-NoStr\liblibfar3.a(create_separator.o)
                0x0000000068a85d50                Far::create_separator(wchar_t const*, unsigned long long)
 .text          0x0000000068a85dd0      0x220 D:\projects\andrew-grechkin\LIB\libfar3\Release-x64-NoStr\liblibfar3.a(create_checkbox.o)
                0x0000000068a85e00                Far::CheckBoxBinding::get_width_() const
                0x0000000068a85e10                Far::CheckBoxBinding::save_() const
                0x0000000068a85f00                Far::CheckBoxBinding::CheckBoxBinding(long long*)
                0x0000000068a85f00                Far::CheckBoxBinding::CheckBoxBinding(long long*)
                0x0000000068a85f20                Far::create_checkbox(long long*, wchar_t const*, unsigned long long)
 .text          0x0000000068a85ff0      0x480 D:\projects\andrew-grechkin\LIB\libfar3\Release-x64-NoStr\liblibfar3.a(create_edit.o)
                0x0000000068a86020                Far::PluginEditFieldBinding::get_width_() const
                0x0000000068a86070                Far::PluginEditFieldBinding::save_() const
                0x0000000068a86140                Far::PluginEditFieldBinding::PluginEditFieldBinding(wchar_t*, long long)
                0x0000000068a86140                Far::PluginEditFieldBinding::PluginEditFieldBinding(wchar_t*, long long)
                0x0000000068a861b0                Far::create_edit(wchar_t*, long long, long long, wchar_t const*, bool, unsigned long long)
                0x0000000068a86350                Far::create_password(wchar_t*, long long, long long, unsigned long long)
 .text          0x0000000068a86470      0x3a0 D:\projects\andrew-grechkin\LIB\libfar3\Release-x64-NoStr\liblibfar3.a(globalinfo_i.o)
                0x0000000068a86470                Far::GlobalInfo_i::get_min_version() const
                0x0000000068a864a0                Far::GlobalInfo_i::~GlobalInfo_i()
                0x0000000068a864a0                Far::GlobalInfo_i::~GlobalInfo_i()
                0x0000000068a86500                Far::GlobalInfo_i::Configure(ConfigureInfo const*)
                0x0000000068a86550                Far::GlobalInfo_i::~GlobalInfo_i()
                0x0000000068a865c0                Far::GlobalInfo_i::GetGlobalInfoW(GlobalInfo*) const
                0x0000000068a866b0                Far::GlobalInfo_i::ConfigureW(ConfigureInfo const*)
                0x0000000068a86720                Far::GlobalInfo_i::SetStartupInfoW(PluginStartupInfo const*)
                0x0000000068a867a0                Far::GlobalInfo_i::get_plugin() const
                0x0000000068a867b0                Far::GlobalInfo_i::GlobalInfo_i()
                0x0000000068a867b0                Far::GlobalInfo_i::GlobalInfo_i()
 .text          0x0000000068a86810      0x2e0 D:\projects\andrew-grechkin\LIB\libfar3\Release-x64-NoStr\liblibfar3.a(plugin_i.o)
                0x0000000068a86810                Far::Plugin_i::~Plugin_i()
                0x0000000068a86810                Far::Plugin_i::~Plugin_i()
                0x0000000068a86860                Far::Plugin_i::Open(OpenInfo const*)
                0x0000000068a868b0                Far::Plugin_i::ExitFAR(ExitInfo const*)
                0x0000000068a86900                Far::Plugin_i::~Plugin_i()
                0x0000000068a86960                Far::Plugin_i::GetPluginInfoW(PluginInfo*)
                0x0000000068a86980                Far::Plugin_i::OpenW(OpenInfo const*)
                0x0000000068a869f0                Far::Plugin_i::ExitFARW(ExitInfo const*)
                0x0000000068a86a60                Far::Plugin_i::Plugin_i(PluginStartupInfo const*)
                0x0000000068a86a60                Far::Plugin_i::Plugin_i(PluginStartupInfo const*)
 .text          0x0000000068a86af0      0xdc0 D:\projects\andrew-grechkin\LIB\libfar3\Release-x64-NoStr\liblibfar3.a(settings.o)
                0x0000000068a86b20                Far::Settings_t::~Settings_t()
                0x0000000068a86b20                Far::Settings_t::~Settings_t()
                0x0000000068a86bf0                Far::Settings_t::Settings_t(_GUID const&)
                0x0000000068a86bf0                Far::Settings_t::Settings_t(_GUID const&)
                0x0000000068a86cc0                Far::Settings_t::create_key(wchar_t const*, FARSETTINGS_SUBFOLDERS)
                0x0000000068a86d70                Far::Settings_t::open_key(wchar_t const*, FARSETTINGS_SUBFOLDERS) const
                0x0000000068a86e20                Far::Settings_t::del(wchar_t const*, FARSETTINGS_SUBFOLDERS)
                0x0000000068a86ed0                Far::Settings_t::get(wchar_t const*, void*, unsigned long long, FARSETTINGS_SUBFOLDERS) const
                0x0000000068a86fe0                Far::Settings_t::get(wchar_t const*, wchar_t const*, FARSETTINGS_SUBFOLDERS) const
                0x0000000068a870d0                Far::Settings_t::get(wchar_t const*, unsigned long long, FARSETTINGS_SUBFOLDERS) const
                0x0000000068a871c0                Far::Settings_t::get(wchar_t const*, long long, FARSETTINGS_SUBFOLDERS) const
                0x0000000068a872e0                Far::Settings_t::get(wchar_t const*, bool, FARSETTINGS_SUBFOLDERS) const
                0x0000000068a87400                Far::Settings_t::set(wchar_t const*, void const*, unsigned long long, FARSETTINGS_SUBFOLDERS)
                0x0000000068a874f0                Far::Settings_t::set(wchar_t const*, wchar_t const*, FARSETTINGS_SUBFOLDERS)
                0x0000000068a875d0                Far::Settings_t::set(wchar_t const*, unsigned long long, FARSETTINGS_SUBFOLDERS)
                0x0000000068a876b0                Far::Settings_t::set(wchar_t const*, long long, FARSETTINGS_SUBFOLDERS)
                0x0000000068a87790                Far::Settings_t::set(wchar_t const*, bool, FARSETTINGS_SUBFOLDERS)
 .text          0x0000000068a878b0      0x540 D:\projects\andrew-grechkin\LIB\libfar3\Release-x64-NoStr\liblibfar3.a(FarDialogItem.o)
                0x0000000068a878b0                Far::FarDialogItem_t::~FarDialogItem_t()
                0x0000000068a878b0                Far::FarDialogItem_t::~FarDialogItem_t()
                0x0000000068a878d0                Far::FarDialogItem_t::FarDialogItem_t(FARDIALOGITEMTYPES, wchar_t const*, unsigned long long)
                0x0000000068a878d0                Far::FarDialogItem_t::FarDialogItem_t(FARDIALOGITEMTYPES, wchar_t const*, unsigned long long)
                0x0000000068a879d0                Far::FarDialogItem_t::FarDialogItem_t(Far::DialogItemBinding_i*, FARDIALOGITEMTYPES, wchar_t const*, unsigned long long)
                0x0000000068a879d0                Far::FarDialogItem_t::FarDialogItem_t(Far::DialogItemBinding_i*, FARDIALOGITEMTYPES, wchar_t const*, unsigned long long)
                0x0000000068a87b00                Far::FarDialogItem_t::FarDialogItem_t(Far::FarDialogItem_t&&)
                0x0000000068a87b00                Far::FarDialogItem_t::FarDialogItem_t(Far::FarDialogItem_t&&)
                0x0000000068a87bc0                Far::FarDialogItem_t::operator=(Far::FarDialogItem_t&&)
                0x0000000068a87c90                Far::FarDialogItem_t::get_height() const
                0x0000000068a87ce0                Far::FarDialogItem_t::get_width() const
                0x0000000068a87dc0                Far::FarDialogItem_t::set_dlg(void**)
                0x0000000068a87dd0                Far::FarDialogItem_t::set_index(long long)
                0x0000000068a87de0                Far::FarDialogItem_t::save() const
 .text          0x0000000068a87df0       0xe0 D:\projects\andrew-grechkin\LIB\libfar3\Release-x64-NoStr\liblibfar3.a(DlgBuilder_c.o)
                0x0000000068a87e20                Far::PluginRadioButtonBinding::get_width_() const
                0x0000000068a87e30                Far::PluginRadioButtonBinding::save_() const
                0x0000000068a87eb0                Far::PluginRadioButtonBinding::PluginRadioButtonBinding(void*&, long long, long long*, long long)
                0x0000000068a87eb0                Far::PluginRadioButtonBinding::PluginRadioButtonBinding(void*&, long long, long long*, long long)
 .text          0x0000000068a87ed0       0xf0 D:\projects\andrew-grechkin\LIB\libfar3\Release-x64-NoStr\liblibfar3.a(DialogItemBinding.o)
                0x0000000068a87ed0                Far::DialogItemBinding_i::~DialogItemBinding_i()
                0x0000000068a87ed0                Far::DialogItemBinding_i::~DialogItemBinding_i()
                0x0000000068a87ee0                Far::DialogItemBinding_i::get_height_() const
                0x0000000068a87ef0                Far::DialogItemBinding_i::~DialogItemBinding_i()
                0x0000000068a87f00                Far::DialogItemBinding_i::get_dlg() const
                0x0000000068a87f20                Far::DialogItemBinding_i::get_index() const
                0x0000000068a87f40                Far::DialogItemBinding_i::set_dlg(void**)
                0x0000000068a87f50                Far::DialogItemBinding_i::set_index(long long)
                0x0000000068a87f60                Far::DialogItemBinding_i::save() const
                0x0000000068a87f80                Far::DialogItemBinding_i::get_height() const
                0x0000000068a87fa0                Far::DialogItemBinding_i::get_width() const
 .text          0x0000000068a87fc0      0x1c0 D:\projects\andrew-grechkin\LIB\liblog\Release-x64-stub\libliblog.a(logger_stub.o)
                0x0000000068a87fc0                Logger::Target_i::~Target_i()
                0x0000000068a87fc0                Logger::Target_i::~Target_i()
                0x0000000068a87fd0                Logger::Module_i::~Module_i()
                0x0000000068a87fd0                Logger::Module_i::~Module_i()
                0x0000000068a87ff0                Logger::Target_i::~Target_i()
                0x0000000068a88000                Logger::Module_i::~Module_i()
                0x0000000068a88010                Logger::get_default_level()
                0x0000000068a88020                Logger::set_default_level(Logger::Level)
                0x0000000068a88030                Logger::get_default_prefix()
                0x0000000068a88040                Logger::set_default_prefix(unsigned long long)
                0x0000000068a88050                Logger::get_default_target()
                0x0000000068a88070                Logger::set_default_target(std::shared_ptr<Logger::Target_i>)
                0x0000000068a88080                Logger::get_default_module()
                0x0000000068a880c0                Logger::get_module(wchar_t const*, std::shared_ptr<Logger::Target_i> const&, Logger::Level)
                0x0000000068a88100                Logger::get_TargetToConsole()
                0x0000000068a88120                Logger::get_TargetToFile(wchar_t const*, bool)
                0x0000000068a88140                Logger::get_TargetToSys(wchar_t const*, wchar_t const*)
                0x0000000068a88160                Logger::get_TargetToMult(std::shared_ptr<Logger::Target_i> const&, std::shared_ptr<Logger::Target_i> const&)
 .text          0x0000000068a88180      0x190 D:\projects\andrew-grechkin\LIB\liblog\Release-x64-stub\libliblog.a(target_null.o)
                0x0000000068a88180                Logger::LogToNull::out(Logger::Module_i const*, Logger::Level, wchar_t const*, unsigned long long) const
                0x0000000068a88190                Logger::LogToNull::out(wchar_t const*, unsigned long long) const
                0x0000000068a881a0                Logger::LogToNull::lock() const
                0x0000000068a881b0                Logger::LogToNull::unlock() const
                0x0000000068a881c0                Logger::LogToNull::~LogToNull()
                0x0000000068a881c0                Logger::LogToNull::~LogToNull()
                0x0000000068a881d0                Logger::LogToNull::~LogToNull()
                0x0000000068a88250                Logger::LogToNull::LogToNull()
                0x0000000068a88250                Logger::LogToNull::LogToNull()
                0x0000000068a88260                Logger::get_TargetToNull()
 .text          0x0000000068a88310       0x30 D:\projects\andrew-grechkin\LIB\libbase\Release-x64-NoStr\liblibbase.a(ref_cnt.o)
                0x0000000068a88310                Base::ref_counter::~ref_counter()
                0x0000000068a88310                Base::ref_counter::~ref_counter()
                0x0000000068a88320                Base::ref_counter::destroy() const
                0x0000000068a88330                Base::ref_counter::~ref_counter()
 .text          0x0000000068a88340       0xc0 D:\projects\andrew-grechkin\LIB\libbase\Release-x64-NoStr\liblibbase.a(new_delete.o)
                0x0000000068a88340                operator new(unsigned long long)
                0x0000000068a88370                operator new[](unsigned long long)
                0x0000000068a883a0                operator delete(void*)
                0x0000000068a883d0                operator delete[](void*)
 .text          0x0000000068a88400      0x1d0 D:\projects\andrew-grechkin\LIB\libbase\Release-x64-NoStr\liblibbase.a(crt.o)
                0x0000000068a88400                Base::invoke_dtors()
                0x0000000068a88440                Base::invoke_crt_functions(void (* const*)(), long long)
                0x0000000068a88480                Base::invoke_ctors()
                0x0000000068a884c0                Base::init_atexit()
                0x0000000068a88550                Base::invoke_atexit()
                0x0000000068a88590                Base::atexit(void (*)())
                0x0000000068a885c0                Base::cxa_pure_virtual()
 .text          0x0000000068a885d0        0x0 c:/mingw/bin/../lib/gcc/x86_64-w64-mingw32/4.8.1\libgcc.a(_ctors.o)
 .text          0x0000000068a885d0      0x170 c:/mingw/bin/../lib/gcc/x86_64-w64-mingw32/4.8.1/../../../../x86_64-w64-mingw32/lib/../lib\libmingwex.a(lib64_libmingwex_a-wcstold.o)
                0x0000000068a885d0                wcstold
 .text          0x0000000068a88740      0x8e0 c:/mingw/bin/../lib/gcc/x86_64-w64-mingw32/4.8.1/../../../../x86_64-w64-mingw32/lib/../lib\libmingwex.a(lib64_libmingwex_a-strtold.o)
                0x0000000068a88740                __asctoe64
                0x0000000068a88fd0                strtold
 .text          0x0000000068a89020     0x12e0 c:/mingw/bin/../lib/gcc/x86_64-w64-mingw32/4.8.1/../../../../x86_64-w64-mingw32/lib/../lib\libmingwex.a(lib64_libmingwex_a-cephes_emath.o)
                0x0000000068a890e0                __emovi
                0x0000000068a891d0                __eaddm
                0x0000000068a89210                __esubm
                0x0000000068a89250                __edivm
                0x0000000068a894b0                __emulm
                0x0000000068a89590                __toe64
                0x0000000068a896f0                __ecmp
                0x0000000068a89850                __eshift
                0x0000000068a89a50                __enormlz
                0x0000000068a89c10                __emdnorm
                0x0000000068a89f00                __emovo
                0x0000000068a89fc0                __emul
 .text          0x0000000068a8a300        0x8 c:/mingw/bin/../lib/gcc/x86_64-w64-mingw32/4.8.1/../../../../x86_64-w64-mingw32/lib/../lib\libntdll.a(dyubbs02011.o)
                0x0000000068a8a300                wcscmp
 .text          0x0000000068a8a308        0x8 c:/mingw/bin/../lib/gcc/x86_64-w64-mingw32/4.8.1/../../../../x86_64-w64-mingw32/lib/../lib\libntdll.a(dyubbs02010.o)
                0x0000000068a8a308                wcschr
 .text          0x0000000068a8a310        0x8 c:/mingw/bin/../lib/gcc/x86_64-w64-mingw32/4.8.1/../../../../x86_64-w64-mingw32/lib/../lib\libntdll.a(dyubbs01961.o)
                0x0000000068a8a310                memcpy
 .text          0x0000000068a8a318        0x8 c:/mingw/bin/../lib/gcc/x86_64-w64-mingw32/4.8.1/../../../../x86_64-w64-mingw32/lib/../lib\libntdll.a(dyubbs02015.o)
                0x0000000068a8a318                wcslen
 .text          0x0000000068a8a320        0x8 c:/mingw/bin/../lib/gcc/x86_64-w64-mingw32/4.8.1/../../../../x86_64-w64-mingw32/lib/../lib\libntdll.a(dyubbs02014.o)
                0x0000000068a8a320                wcscspn
 .text          0x0000000068a8a328        0x8 c:/mingw/bin/../lib/gcc/x86_64-w64-mingw32/4.8.1/../../../../x86_64-w64-mingw32/lib/../lib\libntdll.a(dyubbs02019.o)
                0x0000000068a8a328                wcsncpy
 .text          0x0000000068a8a330        0x8 c:/mingw/bin/../lib/gcc/x86_64-w64-mingw32/4.8.1/../../../../x86_64-w64-mingw32/lib/../lib\libntdll.a(dyubbs01981.o)
                0x0000000068a8a330                strlen
 .text          0x0000000068a8a338        0x8 c:/mingw/bin/../lib/gcc/x86_64-w64-mingw32/4.8.1/../../../../x86_64-w64-mingw32/lib/../lib\libntdll.a(dyubbs01946.o)
                0x0000000068a8a338                isspace
 .text          0x0000000068a8a340        0x8 c:/mingw/bin/../lib/gcc/x86_64-w64-mingw32/4.8.1/../../../../x86_64-w64-mingw32/lib/../lib\libntdll.a(dyubbs01896.o)
                0x0000000068a8a340                _strnicmp
 *fill*         0x0000000068a8a348        0x8 
 .text          0x0000000068a8a350        0x0 c:/mingw/bin/../lib/gcc/x86_64-w64-mingw32/4.8.1/../../../../x86_64-w64-mingw32/lib/../lib\libntdll.a(dyubbh.o)
 .text          0x0000000068a8a350        0x0 c:/mingw/bin/../lib/gcc/x86_64-w64-mingw32/4.8.1/../../../../x86_64-w64-mingw32/lib/../lib\libntdll.a(dyubbt.o)
 .text          0x0000000068a8a350        0x0 c:/mingw/bin/../lib/gcc/x86_64-w64-mingw32/4.8.1/../../../../x86_64-w64-mingw32/lib/../lib\libmsvcrt.a(dqows00092.o)
 .text          0x0000000068a8a350        0x8 c:/mingw/bin/../lib/gcc/x86_64-w64-mingw32/4.8.1/../../../../x86_64-w64-mingw32/lib/../lib\libmsvcrt.a(dqows00063.o)
                0x0000000068a8a350                ___lc_codepage_func
 .text          0x0000000068a8a358        0x8 c:/mingw/bin/../lib/gcc/x86_64-w64-mingw32/4.8.1/../../../../x86_64-w64-mingw32/lib/../lib\libmsvcrt.a(dqows01137.o)
                0x0000000068a8a358                malloc
 .text          0x0000000068a8a360        0x8 c:/mingw/bin/../lib/gcc/x86_64-w64-mingw32/4.8.1/../../../../x86_64-w64-mingw32/lib/../lib\libmsvcrt.a(dqows00508.o)
                0x0000000068a8a360                _mbslen
 .text          0x0000000068a8a368        0x8 c:/mingw/bin/../lib/gcc/x86_64-w64-mingw32/4.8.1/../../../../x86_64-w64-mingw32/lib/../lib\libmsvcrt.a(dqows01079.o)
                0x0000000068a8a368                free
 .text          0x0000000068a8a370        0x8 c:/mingw/bin/../lib/gcc/x86_64-w64-mingw32/4.8.1/../../../../x86_64-w64-mingw32/lib/../lib\libmsvcrt.a(dqows01130.o)
                0x0000000068a8a370                localeconv
 .text          0x0000000068a8a378        0x8 c:/mingw/bin/../lib/gcc/x86_64-w64-mingw32/4.8.1/../../../../x86_64-w64-mingw32/lib/../lib\libmsvcrt.a(dqows00201.o)
                0x0000000068a8a378                _errno
 .text          0x0000000068a8a380        0x0 c:/mingw/bin/../lib/gcc/x86_64-w64-mingw32/4.8.1/../../../../x86_64-w64-mingw32/lib/../lib\libmsvcrt.a(dqowh.o)
 .text          0x0000000068a8a380        0x0 c:/mingw/bin/../lib/gcc/x86_64-w64-mingw32/4.8.1/../../../../x86_64-w64-mingw32/lib/../lib\libmsvcrt.a(dqowt.o)
 .text          0x0000000068a8a380        0x8 c:/mingw/bin/../lib/gcc/x86_64-w64-mingw32/4.8.1/../../../../x86_64-w64-mingw32/lib/../lib\libkernel32.a(dspqs00103.o)
                0x0000000068a8a380                CompareStringW
 .text          0x0000000068a8a388        0x8 c:/mingw/bin/../lib/gcc/x86_64-w64-mingw32/4.8.1/../../../../x86_64-w64-mingw32/lib/../lib\libkernel32.a(dspqs00603.o)
                0x0000000068a8a388                GetProcessHeap
 .text          0x0000000068a8a390        0x8 c:/mingw/bin/../lib/gcc/x86_64-w64-mingw32/4.8.1/../../../../x86_64-w64-mingw32/lib/../lib\libkernel32.a(dspqs00740.o)
                0x0000000068a8a390                HeapFree
 .text          0x0000000068a8a398        0x8 c:/mingw/bin/../lib/gcc/x86_64-w64-mingw32/4.8.1/../../../../x86_64-w64-mingw32/lib/../lib\libkernel32.a(dspqs00734.o)
                0x0000000068a8a398                HeapAlloc
 .text          0x0000000068a8a3a0        0x8 c:/mingw/bin/../lib/gcc/x86_64-w64-mingw32/4.8.1/../../../../x86_64-w64-mingw32/lib/../lib\libkernel32.a(dspqs00744.o)
                0x0000000068a8a3a0                HeapReAlloc
 .text          0x0000000068a8a3a8        0x8 c:/mingw/bin/../lib/gcc/x86_64-w64-mingw32/4.8.1/../../../../x86_64-w64-mingw32/lib/../lib\libkernel32.a(dspqs01358.o)
                0x0000000068a8a3a8                lstrlenW
 .text          0x0000000068a8a3b0        0x8 c:/mingw/bin/../lib/gcc/x86_64-w64-mingw32/4.8.1/../../../../x86_64-w64-mingw32/lib/../lib\libkernel32.a(dspqs01355.o)
                0x0000000068a8a3b0                lstrcpynW
 .text          0x0000000068a8a3b8        0x8 c:/mingw/bin/../lib/gcc/x86_64-w64-mingw32/4.8.1/../../../../x86_64-w64-mingw32/lib/../lib\libkernel32.a(dspqs01294.o)
                0x0000000068a8a3b8                WideCharToMultiByte
 .text          0x0000000068a8a3c0        0x0 c:/mingw/bin/../lib/gcc/x86_64-w64-mingw32/4.8.1/../../../../x86_64-w64-mingw32/lib/../lib\libkernel32.a(dspqh.o)
 .text          0x0000000068a8a3c0        0x0 c:/mingw/bin/../lib/gcc/x86_64-w64-mingw32/4.8.1/../../../../x86_64-w64-mingw32/lib/../lib\libkernel32.a(dspqt.o)
 *(SORT(.text$*))
 .text$_Z16InsertFromVectorIN9__gnu_cxx17__normal_iteratorIP8SortInfoSt6vectorIS2_SaIS2_EEEEEvRKS4_I10StringInfoSaIS8_EET_SD_
                0x0000000068a8a3c0     0x1350 src\process.o
                0x0000000068a8a3c0                void InsertFromVector<__gnu_cxx::__normal_iterator<SortInfo*, std::vector<SortInfo, std::allocator<SortInfo> > > >(std::vector<StringInfo, std::allocator<StringInfo> > const&, __gnu_cxx::__normal_iterator<SortInfo*, std::vector<SortInfo, std::allocator<SortInfo> > >, __gnu_cxx::__normal_iterator<SortInfo*, std::vector<SortInfo, std::allocator<SortInfo> > >)
 .text$_Z16InsertFromVectorISt16reverse_iteratorIN9__gnu_cxx17__normal_iteratorIP8SortInfoSt6vectorIS3_SaIS3_EEEEEEvRKS5_I10StringInfoSaISA_EET_SF_
                0x0000000068a8b710     0x1380 src\process.o
                0x0000000068a8b710                void InsertFromVector<std::reverse_iterator<__gnu_cxx::__normal_iterator<SortInfo*, std::vector<SortInfo, std::allocator<SortInfo> > > > >(std::vector<StringInfo, std::allocator<StringInfo> > const&, std::reverse_iterator<__gnu_cxx::__normal_iterator<SortInfo*, std::vector<SortInfo, std::allocator<SortInfo> > > >, std::reverse_iterator<__gnu_cxx::__normal_iterator<SortInfo*, std::vector<SortInfo, std::allocator<SortInfo> > > >)
 .text$_ZN3Far15CheckBoxBindingD0Ev
                0x0000000068a8ca90       0x30 D:\projects\andrew-grechkin\LIB\libfar3\Release-x64-NoStr\liblibfar3.a(create_checkbox.o)
                0x0000000068a8ca90                Far::CheckBoxBinding::~CheckBoxBinding()
 .text$_ZN3Far15CheckBoxBindingD1Ev
                0x0000000068a8cac0       0x10 D:\projects\andrew-grechkin\LIB\libfar3\Release-x64-NoStr\liblibfar3.a(create_checkbox.o)
                0x0000000068a8cac0                Far::CheckBoxBinding::~CheckBoxBinding()
 .text$_ZN3Far15ComboBoxBindingD0Ev
                0x0000000068a8cad0       0x30 D:\projects\andrew-grechkin\LIB\libfar3\Release-x64-NoStr\liblibfar3.a(create_combobox.o)
                0x0000000068a8cad0                Far::ComboBoxBinding::~ComboBoxBinding()
 .text$_ZN3Far15ComboBoxBindingD1Ev
                0x0000000068a8cb00       0x10 D:\projects\andrew-grechkin\LIB\libfar3\Release-x64-NoStr\liblibfar3.a(create_combobox.o)
                0x0000000068a8cb00                Far::ComboBoxBinding::~ComboBoxBinding()
 .text$_ZN3Far22PluginEditFieldBindingD0Ev
                0x0000000068a8cb10       0x30 D:\projects\andrew-grechkin\LIB\libfar3\Release-x64-NoStr\liblibfar3.a(create_edit.o)
                0x0000000068a8cb10                Far::PluginEditFieldBinding::~PluginEditFieldBinding()
 .text$_ZN3Far22PluginEditFieldBindingD1Ev
                0x0000000068a8cb40       0x10 D:\projects\andrew-grechkin\LIB\libfar3\Release-x64-NoStr\liblibfar3.a(create_edit.o)
                0x0000000068a8cb40                Far::PluginEditFieldBinding::~PluginEditFieldBinding()
 .text$_ZN3Far24PluginRadioButtonBindingD0Ev
                0x0000000068a8cb50       0x30 D:\projects\andrew-grechkin\LIB\libfar3\Release-x64-NoStr\liblibfar3.a(DlgBuilder_c.o)
                0x0000000068a8cb50                Far::PluginRadioButtonBinding::~PluginRadioButtonBinding()
 .text$_ZN3Far24PluginRadioButtonBindingD1Ev
                0x0000000068a8cb80       0x10 D:\projects\andrew-grechkin\LIB\libfar3\Release-x64-NoStr\liblibfar3.a(DlgBuilder_c.o)
                0x0000000068a8cb80                Far::PluginRadioButtonBinding::~PluginRadioButtonBinding()
 .text$_ZN4Base12basic_stringIwNS_11char_traitsIwEEE11string_implD0Ev
                0x0000000068a8cb90       0x30 src\process.o
                0x0000000068a8cb90                Base::basic_string<wchar_t, Base::char_traits<wchar_t> >::string_impl::~string_impl()
 .text$_ZN4Base12basic_stringIwNS_11char_traitsIwEEE11string_implD1Ev
                0x0000000068a8cbc0       0x10 src\process.o
                0x0000000068a8cbc0                Base::basic_string<wchar_t, Base::char_traits<wchar_t> >::string_impl::~string_impl()
 .text$_ZN6Logger11Module_impl10set_prefixEy
                0x0000000068a8cbd0       0x10 D:\projects\andrew-grechkin\LIB\liblog\Release-x64-stub\libliblog.a(logger_stub.o)
                0x0000000068a8cbd0                Logger::Module_impl::set_prefix(unsigned long long)
 .text$_ZN6Logger11Module_impl10set_targetERKSt10shared_ptrINS_8Target_iEE
                0x0000000068a8cbe0       0x10 D:\projects\andrew-grechkin\LIB\liblog\Release-x64-stub\libliblog.a(logger_stub.o)
                0x0000000068a8cbe0                Logger::Module_impl::set_target(std::shared_ptr<Logger::Target_i> const&)
 .text$_ZN6Logger11Module_impl11set_enabledEb
                0x0000000068a8cbf0       0x10 D:\projects\andrew-grechkin\LIB\liblog\Release-x64-stub\libliblog.a(logger_stub.o)
                0x0000000068a8cbf0                Logger::Module_impl::set_enabled(bool)
 .text$_ZN6Logger11Module_impl14set_color_modeEb
                0x0000000068a8cc00       0x10 D:\projects\andrew-grechkin\LIB\liblog\Release-x64-stub\libliblog.a(logger_stub.o)
                0x0000000068a8cc00                Logger::Module_impl::set_color_mode(bool)
 .text$_ZN6Logger11Module_impl9set_levelENS_5LevelE
                0x0000000068a8cc10       0x10 D:\projects\andrew-grechkin\LIB\liblog\Release-x64-stub\libliblog.a(logger_stub.o)
                0x0000000068a8cc10                Logger::Module_impl::set_level(Logger::Level)
 .text$_ZN6Logger11Module_implD0Ev
                0x0000000068a8cc20       0x10 D:\projects\andrew-grechkin\LIB\liblog\Release-x64-stub\libliblog.a(logger_stub.o)
                0x0000000068a8cc20                Logger::Module_impl::~Module_impl()
 .text$_ZN6Logger11Module_implD1Ev
                0x0000000068a8cc30       0x10 D:\projects\andrew-grechkin\LIB\liblog\Release-x64-stub\libliblog.a(logger_stub.o)
                0x0000000068a8cc30                Logger::Module_impl::~Module_impl()
 .text$_ZNK4Base12basic_stringIwNS_11char_traitsIwEEE11string_impl10deallocateEv
                0x0000000068a8cc40       0x30 src\process.o
                0x0000000068a8cc40                Base::basic_string<wchar_t, Base::char_traits<wchar_t> >::string_impl::deallocate() const
 .text$_ZNK6Logger11Module_impl10batch_lockEv
                0x0000000068a8cc70       0x10 D:\projects\andrew-grechkin\LIB\liblog\Release-x64-stub\libliblog.a(logger_stub.o)
                0x0000000068a8cc70                Logger::Module_impl::batch_lock() const
 .text$_ZNK6Logger11Module_impl10get_prefixEv
                0x0000000068a8cc80       0x10 D:\projects\andrew-grechkin\LIB\liblog\Release-x64-stub\libliblog.a(logger_stub.o)
                0x0000000068a8cc80                Logger::Module_impl::get_prefix() const
 .text$_ZNK6Logger11Module_impl12batch_unlockEv
                0x0000000068a8cc90       0x10 D:\projects\andrew-grechkin\LIB\liblog\Release-x64-stub\libliblog.a(logger_stub.o)
                0x0000000068a8cc90                Logger::Module_impl::batch_unlock() const
 .text$_ZNK6Logger11Module_impl13is_color_modeEv
                0x0000000068a8cca0       0x10 D:\projects\andrew-grechkin\LIB\liblog\Release-x64-stub\libliblog.a(logger_stub.o)
                0x0000000068a8cca0                Logger::Module_impl::is_color_mode() const
 .text$_ZNK6Logger11Module_impl3outENS_5LevelEPKwz
                0x0000000068a8ccb0       0x10 D:\projects\andrew-grechkin\LIB\liblog\Release-x64-stub\libliblog.a(logger_stub.o)
                0x0000000068a8ccb0                Logger::Module_impl::out(Logger::Level, wchar_t const*, ...) const
 .text$_ZNK6Logger11Module_impl3outEPKciS2_NS_5LevelEPKwz
                0x0000000068a8ccc0       0x10 D:\projects\andrew-grechkin\LIB\liblog\Release-x64-stub\libliblog.a(logger_stub.o)
                0x0000000068a8ccc0                Logger::Module_impl::out(char const*, int, char const*, Logger::Level, wchar_t const*, ...) const
 .text$_ZNK6Logger11Module_impl8get_nameEv
                0x0000000068a8ccd0       0x10 D:\projects\andrew-grechkin\LIB\liblog\Release-x64-stub\libliblog.a(logger_stub.o)
                0x0000000068a8ccd0                Logger::Module_impl::get_name() const
 .text$_ZNK6Logger11Module_impl9get_levelEv
                0x0000000068a8cce0       0x10 D:\projects\andrew-grechkin\LIB\liblog\Release-x64-stub\libliblog.a(logger_stub.o)
                0x0000000068a8cce0                Logger::Module_impl::get_level() const
 .text$_ZNSt15_Sp_counted_ptrIPN6Logger9LogToNullELN9__gnu_cxx12_Lock_policyE2EE10_M_destroyEv
                0x0000000068a8ccf0       0x20 D:\projects\andrew-grechkin\LIB\liblog\Release-x64-stub\libliblog.a(target_null.o)
                0x0000000068a8ccf0                std::_Sp_counted_ptr<Logger::LogToNull*, (__gnu_cxx::_Lock_policy)2>::_M_destroy()
 .text$_ZNSt15_Sp_counted_ptrIPN6Logger9LogToNullELN9__gnu_cxx12_Lock_policyE2EE10_M_disposeEv
                0x0000000068a8cd10       0x20 D:\projects\andrew-grechkin\LIB\liblog\Release-x64-stub\libliblog.a(target_null.o)
                0x0000000068a8cd10                std::_Sp_counted_ptr<Logger::LogToNull*, (__gnu_cxx::_Lock_policy)2>::_M_dispose()
 .text$_ZNSt15_Sp_counted_ptrIPN6Logger9LogToNullELN9__gnu_cxx12_Lock_policyE2EE14_M_get_deleterERKSt9type_info
                0x0000000068a8cd30       0x10 D:\projects\andrew-grechkin\LIB\liblog\Release-x64-stub\libliblog.a(target_null.o)
                0x0000000068a8cd30                std::_Sp_counted_ptr<Logger::LogToNull*, (__gnu_cxx::_Lock_policy)2>::_M_get_deleter(std::type_info const&)
 .text$_ZNSt15_Sp_counted_ptrIPN6Logger9LogToNullELN9__gnu_cxx12_Lock_policyE2EED0Ev
                0x0000000068a8cd40       0x10 D:\projects\andrew-grechkin\LIB\liblog\Release-x64-stub\libliblog.a(target_null.o)
                0x0000000068a8cd40                std::_Sp_counted_ptr<Logger::LogToNull*, (__gnu_cxx::_Lock_policy)2>::~_Sp_counted_ptr()
 .text$_ZNSt15_Sp_counted_ptrIPN6Logger9LogToNullELN9__gnu_cxx12_Lock_policyE2EED1Ev
                0x0000000068a8cd50       0x10 D:\projects\andrew-grechkin\LIB\liblog\Release-x64-stub\libliblog.a(target_null.o)
                0x0000000068a8cd50                std::_Sp_counted_ptr<Logger::LogToNull*, (__gnu_cxx::_Lock_policy)2>::~_Sp_counted_ptr()
 .text$_ZNSt16_Sp_counted_baseILN9__gnu_cxx12_Lock_policyE2EE10_M_destroyEv
                0x0000000068a8cd60       0x20 D:\projects\andrew-grechkin\LIB\libfar3\Release-x64-NoStr\liblibfar3.a(dialog_builder.o)
                0x0000000068a8cd60                std::_Sp_counted_base<(__gnu_cxx::_Lock_policy)2>::_M_destroy()
 .text$_ZNSt16_Sp_counted_baseILN9__gnu_cxx12_Lock_policyE2EED0Ev
                0x0000000068a8cd80       0x10 D:\projects\andrew-grechkin\LIB\libfar3\Release-x64-NoStr\liblibfar3.a(dialog_builder.o)
                0x0000000068a8cd80                std::_Sp_counted_base<(__gnu_cxx::_Lock_policy)2>::~_Sp_counted_base()
 .text$_ZNSt16_Sp_counted_baseILN9__gnu_cxx12_Lock_policyE2EED1Ev
                0x0000000068a8cd90       0x10 D:\projects\andrew-grechkin\LIB\libfar3\Release-x64-NoStr\liblibfar3.a(dialog_builder.o)
                0x0000000068a8cd90                std::_Sp_counted_base<(__gnu_cxx::_Lock_policy)2>::~_Sp_counted_base()
 .text$_ZNSt19_Sp_counted_deleterIPN3Far24SimpleDialogBuilder_implENSt12__shared_ptrIS1_LN9__gnu_cxx12_Lock_policyE2EE8_DeleterISaIS1_EEES8_LS5_2EE10_M_destroyEv
                0x0000000068a8cda0       0x10 D:\projects\andrew-grechkin\LIB\libfar3\Release-x64-NoStr\liblibfar3.a(dialog_builder.o)
                0x0000000068a8cda0                std::_Sp_counted_deleter<Far::SimpleDialogBuilder_impl*, std::__shared_ptr<Far::SimpleDialogBuilder_impl, (__gnu_cxx::_Lock_policy)2>::_Deleter<std::allocator<Far::SimpleDialogBuilder_impl> >, std::allocator<Far::SimpleDialogBuilder_impl>, (__gnu_cxx::_Lock_policy)2>::_M_destroy()
 .text$_ZNSt19_Sp_counted_deleterIPN3Far24SimpleDialogBuilder_implENSt12__shared_ptrIS1_LN9__gnu_cxx12_Lock_policyE2EE8_DeleterISaIS1_EEES8_LS5_2EE10_M_disposeEv
                0x0000000068a8cdb0       0x20 D:\projects\andrew-grechkin\LIB\libfar3\Release-x64-NoStr\liblibfar3.a(dialog_builder.o)
                0x0000000068a8cdb0                std::_Sp_counted_deleter<Far::SimpleDialogBuilder_impl*, std::__shared_ptr<Far::SimpleDialogBuilder_impl, (__gnu_cxx::_Lock_policy)2>::_Deleter<std::allocator<Far::SimpleDialogBuilder_impl> >, std::allocator<Far::SimpleDialogBuilder_impl>, (__gnu_cxx::_Lock_policy)2>::_M_dispose()
 .text$_ZNSt19_Sp_counted_deleterIPN3Far24SimpleDialogBuilder_implENSt12__shared_ptrIS1_LN9__gnu_cxx12_Lock_policyE2EE8_DeleterISaIS1_EEES8_LS5_2EE14_M_get_deleterERKSt9type_info
                0x0000000068a8cdd0       0x10 D:\projects\andrew-grechkin\LIB\libfar3\Release-x64-NoStr\liblibfar3.a(dialog_builder.o)
                0x0000000068a8cdd0                std::_Sp_counted_deleter<Far::SimpleDialogBuilder_impl*, std::__shared_ptr<Far::SimpleDialogBuilder_impl, (__gnu_cxx::_Lock_policy)2>::_Deleter<std::allocator<Far::SimpleDialogBuilder_impl> >, std::allocator<Far::SimpleDialogBuilder_impl>, (__gnu_cxx::_Lock_policy)2>::_M_get_deleter(std::type_info const&)
 .text$_ZNSt19_Sp_counted_deleterIPN3Far24SimpleDialogBuilder_implENSt12__shared_ptrIS1_LN9__gnu_cxx12_Lock_policyE2EE8_DeleterISaIS1_EEES8_LS5_2EED0Ev
                0x0000000068a8cde0       0x10 D:\projects\andrew-grechkin\LIB\libfar3\Release-x64-NoStr\liblibfar3.a(dialog_builder.o)
                0x0000000068a8cde0                std::_Sp_counted_deleter<Far::SimpleDialogBuilder_impl*, std::__shared_ptr<Far::SimpleDialogBuilder_impl, (__gnu_cxx::_Lock_policy)2>::_Deleter<std::allocator<Far::SimpleDialogBuilder_impl> >, std::allocator<Far::SimpleDialogBuilder_impl>, (__gnu_cxx::_Lock_policy)2>::~_Sp_counted_deleter()
 .text$_ZNSt19_Sp_counted_deleterIPN3Far24SimpleDialogBuilder_implENSt12__shared_ptrIS1_LN9__gnu_cxx12_Lock_policyE2EE8_DeleterISaIS1_EEES8_LS5_2EED1Ev
                0x0000000068a8cdf0       0x10 D:\projects\andrew-grechkin\LIB\libfar3\Release-x64-NoStr\liblibfar3.a(dialog_builder.o)
                0x0000000068a8cdf0                std::_Sp_counted_deleter<Far::SimpleDialogBuilder_impl*, std::__shared_ptr<Far::SimpleDialogBuilder_impl, (__gnu_cxx::_Lock_policy)2>::_Deleter<std::allocator<Far::SimpleDialogBuilder_impl> >, std::allocator<Far::SimpleDialogBuilder_impl>, (__gnu_cxx::_Lock_policy)2>::~_Sp_counted_deleter()
 .text$_ZNSt6vectorI10StringInfoSaIS0_EE19_M_emplace_back_auxIIR15EditorGetStringRP13FarGlobalInfoEEEvDpOT_
                0x0000000068a8ce00      0x300 src\process.o
                0x0000000068a8ce00                .weak._ZNSt6vectorI10StringInfoSaIS0_EE19_M_emplace_back_auxIJR15EditorGetStringRP13FarGlobalInfoEEEvDpOT_._Z13SortInfoEqNumRK8SortInfoS1_
                0x0000000068a8ce00                void std::vector<StringInfo, std::allocator<StringInfo> >::_M_emplace_back_aux<EditorGetString&, FarGlobalInfo*&>(EditorGetString&, FarGlobalInfo*&)
 .text$_ZNSt6vectorI8SortInfoSaIS0_EE19_M_emplace_back_auxIIR10StringInfoRP13FarGlobalInfoEEEvDpOT_
                0x0000000068a8d100      0x1f0 src\process.o
                0x0000000068a8d100                void std::vector<SortInfo, std::allocator<SortInfo> >::_M_emplace_back_aux<StringInfo&, FarGlobalInfo*&>(StringInfo&, FarGlobalInfo*&)
                0x0000000068a8d100                .weak._ZNSt6vectorI8SortInfoSaIS0_EE19_M_emplace_back_auxIJR10StringInfoRP13FarGlobalInfoEEEvDpOT_._Z13SortInfoEqNumRK8SortInfoS1_
 .text$_ZNSt6vectorIN3Far15FarDialogItem_tESaIS1_EE19_M_emplace_back_auxIIR18FARDIALOGITEMTYPESRPKwRyEEEvDpOT_
                0x0000000068a8d2f0      0x180 D:\projects\andrew-grechkin\LIB\libfar3\Release-x64-NoStr\liblibfar3.a(dialog_builder.o)
                0x0000000068a8d2f0                void std::vector<Far::FarDialogItem_t, std::allocator<Far::FarDialogItem_t> >::_M_emplace_back_aux<FARDIALOGITEMTYPES&, wchar_t const*&, unsigned long long&>(FARDIALOGITEMTYPES&, wchar_t const*&, unsigned long long&)
                0x0000000068a8d2f0                .weak._ZNSt6vectorIN3Far15FarDialogItem_tESaIS1_EE19_M_emplace_back_auxIJR18FARDIALOGITEMTYPESRPKwRyEEEvDpOT_._ZN3Far24SimpleDialogBuilder_impl13start_column_Ev
 .text$_ZNSt6vectorIN3Far15FarDialogItem_tESaIS1_EE19_M_emplace_back_auxIIS1_EEEvDpOT_
                0x0000000068a8d470      0x160 D:\projects\andrew-grechkin\LIB\libfar3\Release-x64-NoStr\liblibfar3.a(dialog_builder.o)
                0x0000000068a8d470                void std::vector<Far::FarDialogItem_t, std::allocator<Far::FarDialogItem_t> >::_M_emplace_back_aux<Far::FarDialogItem_t>(Far::FarDialogItem_t&&)
                0x0000000068a8d470                .weak._ZNSt6vectorIN3Far15FarDialogItem_tESaIS1_EE19_M_emplace_back_auxIJS1_EEEvDpOT_._ZN3Far24SimpleDialogBuilder_impl13start_column_Ev
 .text$_ZSt13__adjust_heapIN9__gnu_cxx17__normal_iteratorIP8SortInfoSt6vectorIS2_SaIS2_EEEExS2_St26pointer_to_binary_functionIRKS2_SA_bEEvT_T0_SD_T1_T2_
                0x0000000068a8d5d0      0x230 src\process.o
                0x0000000068a8d5d0                void std::__adjust_heap<__gnu_cxx::__normal_iterator<SortInfo*, std::vector<SortInfo, std::allocator<SortInfo> > >, long long, SortInfo, std::pointer_to_binary_function<SortInfo const&, SortInfo const&, bool> >(__gnu_cxx::__normal_iterator<SortInfo*, std::vector<SortInfo, std::allocator<SortInfo> > >, long long, long long, SortInfo, std::pointer_to_binary_function<SortInfo const&, SortInfo const&, bool>)
 .text$_ZSt16__insertion_sortIN9__gnu_cxx17__normal_iteratorIP8SortInfoSt6vectorIS2_SaIS2_EEEESt26pointer_to_binary_functionIRKS2_SA_bEEvT_SC_T0_
                0x0000000068a8d800       0xf0 src\process.o
                0x0000000068a8d800                void std::__insertion_sort<__gnu_cxx::__normal_iterator<SortInfo*, std::vector<SortInfo, std::allocator<SortInfo> > >, std::pointer_to_binary_function<SortInfo const&, SortInfo const&, bool> >(__gnu_cxx::__normal_iterator<SortInfo*, std::vector<SortInfo, std::allocator<SortInfo> > >, __gnu_cxx::__normal_iterator<SortInfo*, std::vector<SortInfo, std::allocator<SortInfo> > >, std::pointer_to_binary_function<SortInfo const&, SortInfo const&, bool>)
 .text$_ZSt16__introsort_loopIN9__gnu_cxx17__normal_iteratorIP8SortInfoSt6vectorIS2_SaIS2_EEEExSt26pointer_to_binary_functionIRKS2_SA_bEEvT_SC_T0_T1_
                0x0000000068a8d8f0      0x3c0 src\process.o
                0x0000000068a8d8f0                void std::__introsort_loop<__gnu_cxx::__normal_iterator<SortInfo*, std::vector<SortInfo, std::allocator<SortInfo> > >, long long, std::pointer_to_binary_function<SortInfo const&, SortInfo const&, bool> >(__gnu_cxx::__normal_iterator<SortInfo*, std::vector<SortInfo, std::allocator<SortInfo> > >, __gnu_cxx::__normal_iterator<SortInfo*, std::vector<SortInfo, std::allocator<SortInfo> > >, long long, std::pointer_to_binary_function<SortInfo const&, SortInfo const&, bool>)
 .text$_ZSt25__unguarded_linear_insertIN9__gnu_cxx17__normal_iteratorIP8SortInfoSt6vectorIS2_SaIS2_EEEESt26pointer_to_binary_functionIRKS2_SA_bEEvT_T0_
                0x0000000068a8dcb0       0xb0 src\process.o
                0x0000000068a8dcb0                void std::__unguarded_linear_insert<__gnu_cxx::__normal_iterator<SortInfo*, std::vector<SortInfo, std::allocator<SortInfo> > >, std::pointer_to_binary_function<SortInfo const&, SortInfo const&, bool> >(__gnu_cxx::__normal_iterator<SortInfo*, std::vector<SortInfo, std::allocator<SortInfo> > >, std::pointer_to_binary_function<SortInfo const&, SortInfo const&, bool>)
 *(.text.*)
 *(.gnu.linkonce.t.*)
 *(.glue_7t)
 *(.glue_7)
                0x0000000068a8dd60                . = ALIGN (0x8)
                0x0000000068a8dd60                ___CTOR_LIST__ = .
                0x0000000068a8dd60                __CTOR_LIST__ = .
                0x0000000068a8dd60        0x4 LONG 0xffffffffffffffff
                0x0000000068a8dd64        0x4 LONG 0xffffffffffffffff
 *(.ctors)
 *(.ctor)
 *(SORT(.ctors.*))
                0x0000000068a8dd68        0x4 LONG 0x0
                0x0000000068a8dd6c        0x4 LONG 0x0
                0x0000000068a8dd70                ___DTOR_LIST__ = .
                0x0000000068a8dd70                __DTOR_LIST__ = .
                0x0000000068a8dd70        0x4 LONG 0xffffffffffffffff
                0x0000000068a8dd74        0x4 LONG 0xffffffffffffffff
 *(.dtors)
 *(.dtor)
 *(SORT(.dtors.*))
                0x0000000068a8dd78        0x4 LONG 0x0
                0x0000000068a8dd7c        0x4 LONG 0x0
 *(.fini)
 *(.gcc_exc)
                0x0000000068a8dd80                PROVIDE (etext, .)
 *(.gcc_except_table)

.data           0x0000000068a8e000      0x200
                0x0000000068a8e000                __data_start__ = .
 *(.data)
 .data          0x0000000068a8e000        0x0 src\process.o
 .data          0x0000000068a8e000        0x0 src\main.o
 .data          0x0000000068a8e000        0x0 src\guid.o
 .data          0x0000000068a8e000        0x0 src\globalinfo.o
 .data          0x0000000068a8e000        0x0 src\farplugin.o
 .data          0x0000000068a8e000        0x0 D:\projects\andrew-grechkin\LIB\libfar3\Release-x64-NoStr\liblibfar3.a(editor.o)
 .data          0x0000000068a8e000        0x0 D:\projects\andrew-grechkin\LIB\libfar3\Release-x64-NoStr\liblibfar3.a(message.o)
 .data          0x0000000068a8e000        0x0 D:\projects\andrew-grechkin\LIB\libfar3\Release-x64-NoStr\liblibfar3.a(dialog_builder.o)
 .data          0x0000000068a8e000        0x0 D:\projects\andrew-grechkin\LIB\libfar3\Release-x64-NoStr\liblibfar3.a(create_label.o)
 .data          0x0000000068a8e000        0x0 D:\projects\andrew-grechkin\LIB\libfar3\Release-x64-NoStr\liblibfar3.a(create_combobox.o)
 .data          0x0000000068a8e000        0x0 D:\projects\andrew-grechkin\LIB\libfar3\Release-x64-NoStr\liblibfar3.a(create_separator.o)
 .data          0x0000000068a8e000        0x0 D:\projects\andrew-grechkin\LIB\libfar3\Release-x64-NoStr\liblibfar3.a(create_checkbox.o)
 .data          0x0000000068a8e000        0x0 D:\projects\andrew-grechkin\LIB\libfar3\Release-x64-NoStr\liblibfar3.a(create_edit.o)
 .data          0x0000000068a8e000        0x0 D:\projects\andrew-grechkin\LIB\libfar3\Release-x64-NoStr\liblibfar3.a(globalinfo_i.o)
 .data          0x0000000068a8e000        0x0 D:\projects\andrew-grechkin\LIB\libfar3\Release-x64-NoStr\liblibfar3.a(plugin_i.o)
 .data          0x0000000068a8e000        0x0 D:\projects\andrew-grechkin\LIB\libfar3\Release-x64-NoStr\liblibfar3.a(settings.o)
 .data          0x0000000068a8e000        0x0 D:\projects\andrew-grechkin\LIB\libfar3\Release-x64-NoStr\liblibfar3.a(FarDialogItem.o)
 .data          0x0000000068a8e000        0x0 D:\projects\andrew-grechkin\LIB\libfar3\Release-x64-NoStr\liblibfar3.a(DlgBuilder_c.o)
 .data          0x0000000068a8e000        0x0 D:\projects\andrew-grechkin\LIB\libfar3\Release-x64-NoStr\liblibfar3.a(DialogItemBinding.o)
 .data          0x0000000068a8e000        0x0 D:\projects\andrew-grechkin\LIB\liblog\Release-x64-stub\libliblog.a(logger_stub.o)
 .data          0x0000000068a8e000        0x0 D:\projects\andrew-grechkin\LIB\liblog\Release-x64-stub\libliblog.a(target_null.o)
 .data          0x0000000068a8e000        0x0 D:\projects\andrew-grechkin\LIB\libbase\Release-x64-NoStr\liblibbase.a(ref_cnt.o)
 .data          0x0000000068a8e000        0x0 D:\projects\andrew-grechkin\LIB\libbase\Release-x64-NoStr\liblibbase.a(new_delete.o)
 .data          0x0000000068a8e000        0x0 D:\projects\andrew-grechkin\LIB\libbase\Release-x64-NoStr\liblibbase.a(crt.o)
 .data          0x0000000068a8e000        0x0 c:/mingw/bin/../lib/gcc/x86_64-w64-mingw32/4.8.1\libgcc.a(_ctors.o)
 .data          0x0000000068a8e000        0x0 c:/mingw/bin/../lib/gcc/x86_64-w64-mingw32/4.8.1/../../../../x86_64-w64-mingw32/lib/../lib\libmingwex.a(lib64_libmingwex_a-wcstold.o)
 .data          0x0000000068a8e000        0x0 c:/mingw/bin/../lib/gcc/x86_64-w64-mingw32/4.8.1/../../../../x86_64-w64-mingw32/lib/../lib\libmingwex.a(lib64_libmingwex_a-strtold.o)
 .data          0x0000000068a8e000        0x0 c:/mingw/bin/../lib/gcc/x86_64-w64-mingw32/4.8.1/../../../../x86_64-w64-mingw32/lib/../lib\libmingwex.a(lib64_libmingwex_a-cephes_emath.o)
 .data          0x0000000068a8e000        0x0 c:/mingw/bin/../lib/gcc/x86_64-w64-mingw32/4.8.1/../../../../x86_64-w64-mingw32/lib/../lib\libntdll.a(dyubbs02011.o)
 .data          0x0000000068a8e000        0x0 c:/mingw/bin/../lib/gcc/x86_64-w64-mingw32/4.8.1/../../../../x86_64-w64-mingw32/lib/../lib\libntdll.a(dyubbs02010.o)
 .data          0x0000000068a8e000        0x0 c:/mingw/bin/../lib/gcc/x86_64-w64-mingw32/4.8.1/../../../../x86_64-w64-mingw32/lib/../lib\libntdll.a(dyubbs01961.o)
 .data          0x0000000068a8e000        0x0 c:/mingw/bin/../lib/gcc/x86_64-w64-mingw32/4.8.1/../../../../x86_64-w64-mingw32/lib/../lib\libntdll.a(dyubbs02015.o)
 .data          0x0000000068a8e000        0x0 c:/mingw/bin/../lib/gcc/x86_64-w64-mingw32/4.8.1/../../../../x86_64-w64-mingw32/lib/../lib\libntdll.a(dyubbs02014.o)
 .data          0x0000000068a8e000        0x0 c:/mingw/bin/../lib/gcc/x86_64-w64-mingw32/4.8.1/../../../../x86_64-w64-mingw32/lib/../lib\libntdll.a(dyubbs02019.o)
 .data          0x0000000068a8e000        0x0 c:/mingw/bin/../lib/gcc/x86_64-w64-mingw32/4.8.1/../../../../x86_64-w64-mingw32/lib/../lib\libntdll.a(dyubbs01981.o)
 .data          0x0000000068a8e000        0x0 c:/mingw/bin/../lib/gcc/x86_64-w64-mingw32/4.8.1/../../../../x86_64-w64-mingw32/lib/../lib\libntdll.a(dyubbs01946.o)
 .data          0x0000000068a8e000        0x0 c:/mingw/bin/../lib/gcc/x86_64-w64-mingw32/4.8.1/../../../../x86_64-w64-mingw32/lib/../lib\libntdll.a(dyubbs01896.o)
 .data          0x0000000068a8e000        0x0 c:/mingw/bin/../lib/gcc/x86_64-w64-mingw32/4.8.1/../../../../x86_64-w64-mingw32/lib/../lib\libntdll.a(dyubbh.o)
 .data          0x0000000068a8e000        0x0 c:/mingw/bin/../lib/gcc/x86_64-w64-mingw32/4.8.1/../../../../x86_64-w64-mingw32/lib/../lib\libntdll.a(dyubbt.o)
 .data          0x0000000068a8e000        0x0 c:/mingw/bin/../lib/gcc/x86_64-w64-mingw32/4.8.1/../../../../x86_64-w64-mingw32/lib/../lib\libmsvcrt.a(dqows00092.o)
 .data          0x0000000068a8e000        0x0 c:/mingw/bin/../lib/gcc/x86_64-w64-mingw32/4.8.1/../../../../x86_64-w64-mingw32/lib/../lib\libmsvcrt.a(dqows00063.o)
 .data          0x0000000068a8e000        0x0 c:/mingw/bin/../lib/gcc/x86_64-w64-mingw32/4.8.1/../../../../x86_64-w64-mingw32/lib/../lib\libmsvcrt.a(dqows01137.o)
 .data          0x0000000068a8e000        0x0 c:/mingw/bin/../lib/gcc/x86_64-w64-mingw32/4.8.1/../../../../x86_64-w64-mingw32/lib/../lib\libmsvcrt.a(dqows00508.o)
 .data          0x0000000068a8e000        0x0 c:/mingw/bin/../lib/gcc/x86_64-w64-mingw32/4.8.1/../../../../x86_64-w64-mingw32/lib/../lib\libmsvcrt.a(dqows01079.o)
 .data          0x0000000068a8e000        0x0 c:/mingw/bin/../lib/gcc/x86_64-w64-mingw32/4.8.1/../../../../x86_64-w64-mingw32/lib/../lib\libmsvcrt.a(dqows01130.o)
 .data          0x0000000068a8e000        0x0 c:/mingw/bin/../lib/gcc/x86_64-w64-mingw32/4.8.1/../../../../x86_64-w64-mingw32/lib/../lib\libmsvcrt.a(dqows00201.o)
 .data          0x0000000068a8e000        0x0 c:/mingw/bin/../lib/gcc/x86_64-w64-mingw32/4.8.1/../../../../x86_64-w64-mingw32/lib/../lib\libmsvcrt.a(dqowh.o)
 .data          0x0000000068a8e000        0x0 c:/mingw/bin/../lib/gcc/x86_64-w64-mingw32/4.8.1/../../../../x86_64-w64-mingw32/lib/../lib\libmsvcrt.a(dqowt.o)
 .data          0x0000000068a8e000        0x0 c:/mingw/bin/../lib/gcc/x86_64-w64-mingw32/4.8.1/../../../../x86_64-w64-mingw32/lib/../lib\libkernel32.a(dspqs00103.o)
 .data          0x0000000068a8e000        0x0 c:/mingw/bin/../lib/gcc/x86_64-w64-mingw32/4.8.1/../../../../x86_64-w64-mingw32/lib/../lib\libkernel32.a(dspqs00603.o)
 .data          0x0000000068a8e000        0x0 c:/mingw/bin/../lib/gcc/x86_64-w64-mingw32/4.8.1/../../../../x86_64-w64-mingw32/lib/../lib\libkernel32.a(dspqs00740.o)
 .data          0x0000000068a8e000        0x0 c:/mingw/bin/../lib/gcc/x86_64-w64-mingw32/4.8.1/../../../../x86_64-w64-mingw32/lib/../lib\libkernel32.a(dspqs00734.o)
 .data          0x0000000068a8e000        0x0 c:/mingw/bin/../lib/gcc/x86_64-w64-mingw32/4.8.1/../../../../x86_64-w64-mingw32/lib/../lib\libkernel32.a(dspqs00744.o)
 .data          0x0000000068a8e000        0x0 c:/mingw/bin/../lib/gcc/x86_64-w64-mingw32/4.8.1/../../../../x86_64-w64-mingw32/lib/../lib\libkernel32.a(dspqs01358.o)
 .data          0x0000000068a8e000        0x0 c:/mingw/bin/../lib/gcc/x86_64-w64-mingw32/4.8.1/../../../../x86_64-w64-mingw32/lib/../lib\libkernel32.a(dspqs01355.o)
 .data          0x0000000068a8e000        0x0 c:/mingw/bin/../lib/gcc/x86_64-w64-mingw32/4.8.1/../../../../x86_64-w64-mingw32/lib/../lib\libkernel32.a(dspqs01294.o)
 .data          0x0000000068a8e000        0x0 c:/mingw/bin/../lib/gcc/x86_64-w64-mingw32/4.8.1/../../../../x86_64-w64-mingw32/lib/../lib\libkernel32.a(dspqh.o)
 .data          0x0000000068a8e000        0x0 c:/mingw/bin/../lib/gcc/x86_64-w64-mingw32/4.8.1/../../../../x86_64-w64-mingw32/lib/../lib\libkernel32.a(dspqt.o)
 *(.data2)
 *(SORT(.data$*))
 .data$_ZGVZN3Far8helper_t4instEvE3ret
                0x0000000068a8e000       0x10 src\main.o
                0x0000000068a8e000                guard variable for Far::helper_t::inst()::ret
 .data$_ZGVZN6Logger11Module_impl4instEvE8instance
                0x0000000068a8e010       0x10 D:\projects\andrew-grechkin\LIB\liblog\Release-x64-stub\libliblog.a(logger_stub.o)
                0x0000000068a8e010                guard variable for Logger::Module_impl::inst()::instance
 .data$_ZZN3Far8helper_t4instEvE3ret
                0x0000000068a8e020       0x10 src\main.o
                0x0000000068a8e020                Far::helper_t::inst()::ret
 .data$_ZZN6Logger11Module_impl4instEvE8instance
                0x0000000068a8e030       0x10 D:\projects\andrew-grechkin\LIB\liblog\Release-x64-stub\libliblog.a(logger_stub.o)
                0x0000000068a8e030                Logger::Module_impl::inst()::instance
 *(.jcr)
                0x0000000068a8e040                __data_end__ = .
 *(.data_cygwin_nocopy)

.rdata          0x0000000068a8f000     0x4400
 *(.rdata)
 .rdata         0x0000000068a8f000      0x440 src\process.o
 .rdata         0x0000000068a8f440      0x1a0 src\main.o
 .rdata         0x0000000068a8f5e0      0x3e0 src\globalinfo.o
 .rdata         0x0000000068a8f9c0      0x120 src\farplugin.o
 .rdata         0x0000000068a8fae0       0x10 D:\projects\andrew-grechkin\LIB\libfar3\Release-x64-NoStr\liblibfar3.a(message.o)
 *fill*         0x0000000068a8faf0       0x10 
 .rdata         0x0000000068a8fb00      0x640 D:\projects\andrew-grechkin\LIB\libfar3\Release-x64-NoStr\liblibfar3.a(dialog_builder.o)
 .rdata         0x0000000068a90140       0xa0 D:\projects\andrew-grechkin\LIB\libfar3\Release-x64-NoStr\liblibfar3.a(create_label.o)
 .rdata         0x0000000068a901e0      0x1a0 D:\projects\andrew-grechkin\LIB\libfar3\Release-x64-NoStr\liblibfar3.a(create_combobox.o)
 .rdata         0x0000000068a90380       0xa0 D:\projects\andrew-grechkin\LIB\libfar3\Release-x64-NoStr\liblibfar3.a(create_separator.o)
 .rdata         0x0000000068a90420      0x140 D:\projects\andrew-grechkin\LIB\libfar3\Release-x64-NoStr\liblibfar3.a(create_checkbox.o)
 .rdata         0x0000000068a90560      0x260 D:\projects\andrew-grechkin\LIB\libfar3\Release-x64-NoStr\liblibfar3.a(create_edit.o)
 .rdata         0x0000000068a907c0      0x200 D:\projects\andrew-grechkin\LIB\libfar3\Release-x64-NoStr\liblibfar3.a(globalinfo_i.o)
 .rdata         0x0000000068a909c0      0x1c0 D:\projects\andrew-grechkin\LIB\libfar3\Release-x64-NoStr\liblibfar3.a(plugin_i.o)
 .rdata         0x0000000068a90b80      0x560 D:\projects\andrew-grechkin\LIB\libfar3\Release-x64-NoStr\liblibfar3.a(settings.o)
 .rdata         0x0000000068a910e0      0x2c0 D:\projects\andrew-grechkin\LIB\libfar3\Release-x64-NoStr\liblibfar3.a(FarDialogItem.o)
 .rdata         0x0000000068a913a0       0x10 D:\projects\andrew-grechkin\LIB\liblog\Release-x64-stub\libliblog.a(logger_stub.o)
 *fill*         0x0000000068a913b0       0x10 
 .rdata         0x0000000068a913c0       0xe0 c:/mingw/bin/../lib/gcc/x86_64-w64-mingw32/4.8.1/../../../../x86_64-w64-mingw32/lib/../lib\libmingwex.a(lib64_libmingwex_a-strtold.o)
 *(SORT(.rdata$*))
 .rdata$ALL_POWERSCHEMES_GUID
                0x0000000068a914a0       0x10 src\guid.o
                0x0000000068a914a0                ALL_POWERSCHEMES_GUID
 .rdata$ConfigGuid
                0x0000000068a914b0       0x10 src\guid.o
                0x0000000068a914b0                ConfigGuid
 .rdata$DialogGuid
                0x0000000068a914c0       0x10 src\guid.o
                0x0000000068a914c0                DialogGuid
 .rdata$GUID_ACDC_POWER_SOURCE
                0x0000000068a914d0       0x10 src\guid.o
                0x0000000068a914d0                GUID_ACDC_POWER_SOURCE
 .rdata$GUID_ACTIVE_POWERSCHEME
                0x0000000068a914e0       0x10 src\guid.o
                0x0000000068a914e0                GUID_ACTIVE_POWERSCHEME
 .rdata$GUID_ADAPTIVE_POWER_BEHAVIOR_SUBGROUP
                0x0000000068a914f0       0x10 src\guid.o
                0x0000000068a914f0                GUID_ADAPTIVE_POWER_BEHAVIOR_SUBGROUP
 .rdata$GUID_ALLOW_AWAYMODE
                0x0000000068a91500       0x10 src\guid.o
                0x0000000068a91500                GUID_ALLOW_AWAYMODE
 .rdata$GUID_ALLOW_DISPLAY_REQUIRED
                0x0000000068a91510       0x10 src\guid.o
                0x0000000068a91510                GUID_ALLOW_DISPLAY_REQUIRED
 .rdata$GUID_ALLOW_RTC_WAKE
                0x0000000068a91520       0x10 src\guid.o
                0x0000000068a91520                GUID_ALLOW_RTC_WAKE
 .rdata$GUID_ALLOW_STANDBY_STATES
                0x0000000068a91530       0x10 src\guid.o
                0x0000000068a91530                GUID_ALLOW_STANDBY_STATES
 .rdata$GUID_ALLOW_SYSTEM_REQUIRED
                0x0000000068a91540       0x10 src\guid.o
                0x0000000068a91540                GUID_ALLOW_SYSTEM_REQUIRED
 .rdata$GUID_APPLAUNCH_BUTTON
                0x0000000068a91550       0x10 src\guid.o
                0x0000000068a91550                GUID_APPLAUNCH_BUTTON
 .rdata$GUID_BACKGROUND_TASK_NOTIFICATION
                0x0000000068a91560       0x10 src\guid.o
                0x0000000068a91560                GUID_BACKGROUND_TASK_NOTIFICATION
 .rdata$GUID_BATTERY_DISCHARGE_ACTION_0
                0x0000000068a91570       0x10 src\guid.o
                0x0000000068a91570                GUID_BATTERY_DISCHARGE_ACTION_0
 .rdata$GUID_BATTERY_DISCHARGE_ACTION_1
                0x0000000068a91580       0x10 src\guid.o
                0x0000000068a91580                GUID_BATTERY_DISCHARGE_ACTION_1
 .rdata$GUID_BATTERY_DISCHARGE_ACTION_2
                0x0000000068a91590       0x10 src\guid.o
                0x0000000068a91590                GUID_BATTERY_DISCHARGE_ACTION_2
 .rdata$GUID_BATTERY_DISCHARGE_ACTION_3
                0x0000000068a915a0       0x10 src\guid.o
                0x0000000068a915a0                GUID_BATTERY_DISCHARGE_ACTION_3
 .rdata$GUID_BATTERY_DISCHARGE_FLAGS_0
                0x0000000068a915b0       0x10 src\guid.o
                0x0000000068a915b0                GUID_BATTERY_DISCHARGE_FLAGS_0
 .rdata$GUID_BATTERY_DISCHARGE_FLAGS_1
                0x0000000068a915c0       0x10 src\guid.o
                0x0000000068a915c0                GUID_BATTERY_DISCHARGE_FLAGS_1
 .rdata$GUID_BATTERY_DISCHARGE_FLAGS_2
                0x0000000068a915d0       0x10 src\guid.o
                0x0000000068a915d0                GUID_BATTERY_DISCHARGE_FLAGS_2
 .rdata$GUID_BATTERY_DISCHARGE_FLAGS_3
                0x0000000068a915e0       0x10 src\guid.o
                0x0000000068a915e0                GUID_BATTERY_DISCHARGE_FLAGS_3
 .rdata$GUID_BATTERY_DISCHARGE_LEVEL_0
                0x0000000068a915f0       0x10 src\guid.o
                0x0000000068a915f0                GUID_BATTERY_DISCHARGE_LEVEL_0
 .rdata$GUID_BATTERY_DISCHARGE_LEVEL_1
                0x0000000068a91600       0x10 src\guid.o
                0x0000000068a91600                GUID_BATTERY_DISCHARGE_LEVEL_1
 .rdata$GUID_BATTERY_DISCHARGE_LEVEL_2
                0x0000000068a91610       0x10 src\guid.o
                0x0000000068a91610                GUID_BATTERY_DISCHARGE_LEVEL_2
 .rdata$GUID_BATTERY_DISCHARGE_LEVEL_3
                0x0000000068a91620       0x10 src\guid.o
                0x0000000068a91620                GUID_BATTERY_DISCHARGE_LEVEL_3
 .rdata$GUID_BATTERY_PERCENTAGE_REMAINING
                0x0000000068a91630       0x10 src\guid.o
                0x0000000068a91630                GUID_BATTERY_PERCENTAGE_REMAINING
 .rdata$GUID_BATTERY_SUBGROUP
                0x0000000068a91640       0x10 src\guid.o
                0x0000000068a91640                GUID_BATTERY_SUBGROUP
 .rdata$GUID_CONSOLE_DISPLAY_STATE
                0x0000000068a91650       0x10 src\guid.o
                0x0000000068a91650                GUID_CONSOLE_DISPLAY_STATE
 .rdata$GUID_CRITICAL_POWER_TRANSITION
                0x0000000068a91660       0x10 src\guid.o
                0x0000000068a91660                GUID_CRITICAL_POWER_TRANSITION
 .rdata$GUID_DEVICE_IDLE_POLICY
                0x0000000068a91670       0x10 src\guid.o
                0x0000000068a91670                GUID_DEVICE_IDLE_POLICY
 .rdata$GUID_DEVICE_POWER_POLICY_VIDEO_BRIGHTNESS
                0x0000000068a91680       0x10 src\guid.o
                0x0000000068a91680                GUID_DEVICE_POWER_POLICY_VIDEO_BRIGHTNESS
 .rdata$GUID_DEVICE_POWER_POLICY_VIDEO_DIM_BRIGHTNESS
                0x0000000068a91690       0x10 src\guid.o
                0x0000000068a91690                GUID_DEVICE_POWER_POLICY_VIDEO_DIM_BRIGHTNESS
 .rdata$GUID_DEVINTERFACE_CDCHANGER
                0x0000000068a916a0       0x10 src\guid.o
                0x0000000068a916a0                GUID_DEVINTERFACE_CDCHANGER
 .rdata$GUID_DEVINTERFACE_CDROM
                0x0000000068a916b0       0x10 src\guid.o
                0x0000000068a916b0                GUID_DEVINTERFACE_CDROM
 .rdata$GUID_DEVINTERFACE_COMPORT
                0x0000000068a916c0       0x10 src\guid.o
                0x0000000068a916c0                GUID_DEVINTERFACE_COMPORT
 .rdata$GUID_DEVINTERFACE_DISK
                0x0000000068a916d0       0x10 src\guid.o
                0x0000000068a916d0                GUID_DEVINTERFACE_DISK
 .rdata$GUID_DEVINTERFACE_FLOPPY
                0x0000000068a916e0       0x10 src\guid.o
                0x0000000068a916e0                GUID_DEVINTERFACE_FLOPPY
 .rdata$GUID_DEVINTERFACE_MEDIUMCHANGER
                0x0000000068a916f0       0x10 src\guid.o
                0x0000000068a916f0                GUID_DEVINTERFACE_MEDIUMCHANGER
 .rdata$GUID_DEVINTERFACE_PARTITION
                0x0000000068a91700       0x10 src\guid.o
                0x0000000068a91700                GUID_DEVINTERFACE_PARTITION
 .rdata$GUID_DEVINTERFACE_SERENUM_BUS_ENUMERATOR
                0x0000000068a91710       0x10 src\guid.o
                0x0000000068a91710                GUID_DEVINTERFACE_SERENUM_BUS_ENUMERATOR
 .rdata$GUID_DEVINTERFACE_STORAGEPORT
                0x0000000068a91720       0x10 src\guid.o
                0x0000000068a91720                GUID_DEVINTERFACE_STORAGEPORT
 .rdata$GUID_DEVINTERFACE_TAPE
                0x0000000068a91730       0x10 src\guid.o
                0x0000000068a91730                GUID_DEVINTERFACE_TAPE
 .rdata$GUID_DEVINTERFACE_VOLUME
                0x0000000068a91740       0x10 src\guid.o
                0x0000000068a91740                GUID_DEVINTERFACE_VOLUME
 .rdata$GUID_DEVINTERFACE_WRITEONCEDISK
                0x0000000068a91750       0x10 src\guid.o
                0x0000000068a91750                GUID_DEVINTERFACE_WRITEONCEDISK
 .rdata$GUID_DISK_ADAPTIVE_POWERDOWN
                0x0000000068a91760       0x10 src\guid.o
                0x0000000068a91760                GUID_DISK_ADAPTIVE_POWERDOWN
 .rdata$GUID_DISK_BURST_IGNORE_THRESHOLD
                0x0000000068a91770       0x10 src\guid.o
                0x0000000068a91770                GUID_DISK_BURST_IGNORE_THRESHOLD
 .rdata$GUID_DISK_COALESCING_POWERDOWN_TIMEOUT
                0x0000000068a91780       0x10 src\guid.o
                0x0000000068a91780                GUID_DISK_COALESCING_POWERDOWN_TIMEOUT
 .rdata$GUID_DISK_IDLE_TIMEOUT
                0x0000000068a91790       0x10 src\guid.o
                0x0000000068a91790                GUID_DISK_IDLE_TIMEOUT
 .rdata$GUID_DISK_POWERDOWN_TIMEOUT
                0x0000000068a917a0       0x10 src\guid.o
                0x0000000068a917a0                GUID_DISK_POWERDOWN_TIMEOUT
 .rdata$GUID_DISK_SUBGROUP
                0x0000000068a917b0       0x10 src\guid.o
                0x0000000068a917b0                GUID_DISK_SUBGROUP
 .rdata$GUID_ENABLE_SWITCH_FORCED_SHUTDOWN
                0x0000000068a917c0       0x10 src\guid.o
                0x0000000068a917c0                GUID_ENABLE_SWITCH_FORCED_SHUTDOWN
 .rdata$GUID_EXECUTION_REQUIRED_REQUEST_TIMEOUT
                0x0000000068a917d0       0x10 src\guid.o
                0x0000000068a917d0                GUID_EXECUTION_REQUIRED_REQUEST_TIMEOUT
 .rdata$GUID_GLOBAL_USER_PRESENCE
                0x0000000068a917e0       0x10 src\guid.o
                0x0000000068a917e0                GUID_GLOBAL_USER_PRESENCE
 .rdata$GUID_HIBERNATE_FASTS4_POLICY
                0x0000000068a917f0       0x10 src\guid.o
                0x0000000068a917f0                GUID_HIBERNATE_FASTS4_POLICY
 .rdata$GUID_HIBERNATE_TIMEOUT
                0x0000000068a91800       0x10 src\guid.o
                0x0000000068a91800                GUID_HIBERNATE_TIMEOUT
 .rdata$GUID_IDLE_BACKGROUND_TASK
                0x0000000068a91810       0x10 src\guid.o
                0x0000000068a91810                GUID_IDLE_BACKGROUND_TASK
 .rdata$GUID_IDLE_RESILIENCY_PERIOD
                0x0000000068a91820       0x10 src\guid.o
                0x0000000068a91820                GUID_IDLE_RESILIENCY_PERIOD
 .rdata$GUID_IDLE_RESILIENCY_SUBGROUP
                0x0000000068a91830       0x10 src\guid.o
                0x0000000068a91830                GUID_IDLE_RESILIENCY_SUBGROUP
 .rdata$GUID_LIDCLOSE_ACTION
                0x0000000068a91840       0x10 src\guid.o
                0x0000000068a91840                GUID_LIDCLOSE_ACTION
 .rdata$GUID_LIDOPEN_POWERSTATE
                0x0000000068a91850       0x10 src\guid.o
                0x0000000068a91850                GUID_LIDOPEN_POWERSTATE
 .rdata$GUID_LIDSWITCH_STATE_CHANGE
                0x0000000068a91860       0x10 src\guid.o
                0x0000000068a91860                GUID_LIDSWITCH_STATE_CHANGE
 .rdata$GUID_LOCK_CONSOLE_ON_WAKE
                0x0000000068a91870       0x10 src\guid.o
                0x0000000068a91870                GUID_LOCK_CONSOLE_ON_WAKE
 .rdata$GUID_MAX_POWER_SAVINGS
                0x0000000068a91880       0x10 src\guid.o
                0x0000000068a91880                GUID_MAX_POWER_SAVINGS
 .rdata$GUID_MIN_POWER_SAVINGS
                0x0000000068a91890       0x10 src\guid.o
                0x0000000068a91890                GUID_MIN_POWER_SAVINGS
 .rdata$GUID_MONITOR_POWER_ON
                0x0000000068a918a0       0x10 src\guid.o
                0x0000000068a918a0                GUID_MONITOR_POWER_ON
 .rdata$GUID_NON_ADAPTIVE_INPUT_TIMEOUT
                0x0000000068a918b0       0x10 src\guid.o
                0x0000000068a918b0                GUID_NON_ADAPTIVE_INPUT_TIMEOUT
 .rdata$GUID_PCIEXPRESS_ASPM_POLICY
                0x0000000068a918c0       0x10 src\guid.o
                0x0000000068a918c0                GUID_PCIEXPRESS_ASPM_POLICY
 .rdata$GUID_PCIEXPRESS_SETTINGS_SUBGROUP
                0x0000000068a918d0       0x10 src\guid.o
                0x0000000068a918d0                GUID_PCIEXPRESS_SETTINGS_SUBGROUP
 .rdata$GUID_POWERBUTTON_ACTION
                0x0000000068a918e0       0x10 src\guid.o
                0x0000000068a918e0                GUID_POWERBUTTON_ACTION
 .rdata$GUID_POWERSCHEME_PERSONALITY
                0x0000000068a918f0       0x10 src\guid.o
                0x0000000068a918f0                GUID_POWERSCHEME_PERSONALITY
 .rdata$GUID_PROCESSOR_ALLOW_THROTTLING
                0x0000000068a91900       0x10 src\guid.o
                0x0000000068a91900                GUID_PROCESSOR_ALLOW_THROTTLING
 .rdata$GUID_PROCESSOR_CORE_PARKING_AFFINITY_HISTORY_DECREASE_FACTOR
                0x0000000068a91910       0x10 src\guid.o
                0x0000000068a91910                GUID_PROCESSOR_CORE_PARKING_AFFINITY_HISTORY_DECREASE_FACTOR
 .rdata$GUID_PROCESSOR_CORE_PARKING_AFFINITY_HISTORY_THRESHOLD
                0x0000000068a91920       0x10 src\guid.o
                0x0000000068a91920                GUID_PROCESSOR_CORE_PARKING_AFFINITY_HISTORY_THRESHOLD
 .rdata$GUID_PROCESSOR_CORE_PARKING_AFFINITY_WEIGHTING
                0x0000000068a91930       0x10 src\guid.o
                0x0000000068a91930                GUID_PROCESSOR_CORE_PARKING_AFFINITY_WEIGHTING
 .rdata$GUID_PROCESSOR_CORE_PARKING_DECREASE_POLICY
                0x0000000068a91940       0x10 src\guid.o
                0x0000000068a91940                GUID_PROCESSOR_CORE_PARKING_DECREASE_POLICY
 .rdata$GUID_PROCESSOR_CORE_PARKING_DECREASE_THRESHOLD
                0x0000000068a91950       0x10 src\guid.o
                0x0000000068a91950                GUID_PROCESSOR_CORE_PARKING_DECREASE_THRESHOLD
 .rdata$GUID_PROCESSOR_CORE_PARKING_DECREASE_TIME
                0x0000000068a91960       0x10 src\guid.o
                0x0000000068a91960                GUID_PROCESSOR_CORE_PARKING_DECREASE_TIME
 .rdata$GUID_PROCESSOR_CORE_PARKING_INCREASE_POLICY
                0x0000000068a91970       0x10 src\guid.o
                0x0000000068a91970                GUID_PROCESSOR_CORE_PARKING_INCREASE_POLICY
 .rdata$GUID_PROCESSOR_CORE_PARKING_INCREASE_THRESHOLD
                0x0000000068a91980       0x10 src\guid.o
                0x0000000068a91980                GUID_PROCESSOR_CORE_PARKING_INCREASE_THRESHOLD
 .rdata$GUID_PROCESSOR_CORE_PARKING_INCREASE_TIME
                0x0000000068a91990       0x10 src\guid.o
                0x0000000068a91990                GUID_PROCESSOR_CORE_PARKING_INCREASE_TIME
 .rdata$GUID_PROCESSOR_CORE_PARKING_MAX_CORES
                0x0000000068a919a0       0x10 src\guid.o
                0x0000000068a919a0                GUID_PROCESSOR_CORE_PARKING_MAX_CORES
 .rdata$GUID_PROCESSOR_CORE_PARKING_MIN_CORES
                0x0000000068a919b0       0x10 src\guid.o
                0x0000000068a919b0                GUID_PROCESSOR_CORE_PARKING_MIN_CORES
 .rdata$GUID_PROCESSOR_CORE_PARKING_OVER_UTILIZATION_HISTORY_DECREASE_FACTOR
                0x0000000068a919c0       0x10 src\guid.o
                0x0000000068a919c0                GUID_PROCESSOR_CORE_PARKING_OVER_UTILIZATION_HISTORY_DECREASE_FACTOR
 .rdata$GUID_PROCESSOR_CORE_PARKING_OVER_UTILIZATION_HISTORY_THRESHOLD
                0x0000000068a919d0       0x10 src\guid.o
                0x0000000068a919d0                GUID_PROCESSOR_CORE_PARKING_OVER_UTILIZATION_HISTORY_THRESHOLD
 .rdata$GUID_PROCESSOR_CORE_PARKING_OVER_UTILIZATION_THRESHOLD
                0x0000000068a919e0       0x10 src\guid.o
                0x0000000068a919e0                GUID_PROCESSOR_CORE_PARKING_OVER_UTILIZATION_THRESHOLD
 .rdata$GUID_PROCESSOR_CORE_PARKING_OVER_UTILIZATION_WEIGHTING
                0x0000000068a919f0       0x10 src\guid.o
                0x0000000068a919f0                GUID_PROCESSOR_CORE_PARKING_OVER_UTILIZATION_WEIGHTING
 .rdata$GUID_PROCESSOR_DISTRIBUTE_UTILITY
                0x0000000068a91a00       0x10 src\guid.o
                0x0000000068a91a00                GUID_PROCESSOR_DISTRIBUTE_UTILITY
 .rdata$GUID_PROCESSOR_IDLESTATE_POLICY
                0x0000000068a91a10       0x10 src\guid.o
                0x0000000068a91a10                GUID_PROCESSOR_IDLESTATE_POLICY
 .rdata$GUID_PROCESSOR_IDLE_ALLOW_SCALING
                0x0000000068a91a20       0x10 src\guid.o
                0x0000000068a91a20                GUID_PROCESSOR_IDLE_ALLOW_SCALING
 .rdata$GUID_PROCESSOR_IDLE_DEMOTE_THRESHOLD
                0x0000000068a91a30       0x10 src\guid.o
                0x0000000068a91a30                GUID_PROCESSOR_IDLE_DEMOTE_THRESHOLD
 .rdata$GUID_PROCESSOR_IDLE_DISABLE
                0x0000000068a91a40       0x10 src\guid.o
                0x0000000068a91a40                GUID_PROCESSOR_IDLE_DISABLE
 .rdata$GUID_PROCESSOR_IDLE_PROMOTE_THRESHOLD
                0x0000000068a91a50       0x10 src\guid.o
                0x0000000068a91a50                GUID_PROCESSOR_IDLE_PROMOTE_THRESHOLD
 .rdata$GUID_PROCESSOR_IDLE_STATE_MAXIMUM
                0x0000000068a91a60       0x10 src\guid.o
                0x0000000068a91a60                GUID_PROCESSOR_IDLE_STATE_MAXIMUM
 .rdata$GUID_PROCESSOR_IDLE_TIME_CHECK
                0x0000000068a91a70       0x10 src\guid.o
                0x0000000068a91a70                GUID_PROCESSOR_IDLE_TIME_CHECK
 .rdata$GUID_PROCESSOR_PARKING_CONCURRENCY_THRESHOLD
                0x0000000068a91a80       0x10 src\guid.o
                0x0000000068a91a80                GUID_PROCESSOR_PARKING_CONCURRENCY_THRESHOLD
 .rdata$GUID_PROCESSOR_PARKING_CORE_OVERRIDE
                0x0000000068a91a90       0x10 src\guid.o
                0x0000000068a91a90                GUID_PROCESSOR_PARKING_CORE_OVERRIDE
 .rdata$GUID_PROCESSOR_PARKING_HEADROOM_THRESHOLD
                0x0000000068a91aa0       0x10 src\guid.o
                0x0000000068a91aa0                GUID_PROCESSOR_PARKING_HEADROOM_THRESHOLD
 .rdata$GUID_PROCESSOR_PARKING_PERF_STATE
                0x0000000068a91ab0       0x10 src\guid.o
                0x0000000068a91ab0                GUID_PROCESSOR_PARKING_PERF_STATE
 .rdata$GUID_PROCESSOR_PERFSTATE_POLICY
                0x0000000068a91ac0       0x10 src\guid.o
                0x0000000068a91ac0                GUID_PROCESSOR_PERFSTATE_POLICY
 .rdata$GUID_PROCESSOR_PERF_BOOST_MODE
                0x0000000068a91ad0       0x10 src\guid.o
                0x0000000068a91ad0                GUID_PROCESSOR_PERF_BOOST_MODE
 .rdata$GUID_PROCESSOR_PERF_BOOST_POLICY
                0x0000000068a91ae0       0x10 src\guid.o
                0x0000000068a91ae0                GUID_PROCESSOR_PERF_BOOST_POLICY
 .rdata$GUID_PROCESSOR_PERF_DECREASE_POLICY
                0x0000000068a91af0       0x10 src\guid.o
                0x0000000068a91af0                GUID_PROCESSOR_PERF_DECREASE_POLICY
 .rdata$GUID_PROCESSOR_PERF_DECREASE_THRESHOLD
                0x0000000068a91b00       0x10 src\guid.o
                0x0000000068a91b00                GUID_PROCESSOR_PERF_DECREASE_THRESHOLD
 .rdata$GUID_PROCESSOR_PERF_DECREASE_TIME
                0x0000000068a91b10       0x10 src\guid.o
                0x0000000068a91b10                GUID_PROCESSOR_PERF_DECREASE_TIME
 .rdata$GUID_PROCESSOR_PERF_HISTORY
                0x0000000068a91b20       0x10 src\guid.o
                0x0000000068a91b20                GUID_PROCESSOR_PERF_HISTORY
 .rdata$GUID_PROCESSOR_PERF_INCREASE_POLICY
                0x0000000068a91b30       0x10 src\guid.o
                0x0000000068a91b30                GUID_PROCESSOR_PERF_INCREASE_POLICY
 .rdata$GUID_PROCESSOR_PERF_INCREASE_THRESHOLD
                0x0000000068a91b40       0x10 src\guid.o
                0x0000000068a91b40                GUID_PROCESSOR_PERF_INCREASE_THRESHOLD
 .rdata$GUID_PROCESSOR_PERF_INCREASE_TIME
                0x0000000068a91b50       0x10 src\guid.o
                0x0000000068a91b50                GUID_PROCESSOR_PERF_INCREASE_TIME
 .rdata$GUID_PROCESSOR_PERF_LATENCY_HINT
                0x0000000068a91b60       0x10 src\guid.o
                0x0000000068a91b60                GUID_PROCESSOR_PERF_LATENCY_HINT
 .rdata$GUID_PROCESSOR_PERF_TIME_CHECK
                0x0000000068a91b70       0x10 src\guid.o
                0x0000000068a91b70                GUID_PROCESSOR_PERF_TIME_CHECK
 .rdata$GUID_PROCESSOR_SETTINGS_SUBGROUP
                0x0000000068a91b80       0x10 src\guid.o
                0x0000000068a91b80                GUID_PROCESSOR_SETTINGS_SUBGROUP
 .rdata$GUID_PROCESSOR_THROTTLE_MAXIMUM
                0x0000000068a91b90       0x10 src\guid.o
                0x0000000068a91b90                GUID_PROCESSOR_THROTTLE_MAXIMUM
 .rdata$GUID_PROCESSOR_THROTTLE_MINIMUM
                0x0000000068a91ba0       0x10 src\guid.o
                0x0000000068a91ba0                GUID_PROCESSOR_THROTTLE_MINIMUM
 .rdata$GUID_PROCESSOR_THROTTLE_POLICY
                0x0000000068a91bb0       0x10 src\guid.o
                0x0000000068a91bb0                GUID_PROCESSOR_THROTTLE_POLICY
 .rdata$GUID_SESSION_DISPLAY_STATUS
                0x0000000068a91bc0       0x10 src\guid.o
                0x0000000068a91bc0                GUID_SESSION_DISPLAY_STATUS
 .rdata$GUID_SESSION_USER_PRESENCE
                0x0000000068a91bd0       0x10 src\guid.o
                0x0000000068a91bd0                GUID_SESSION_USER_PRESENCE
 .rdata$GUID_SLEEPBUTTON_ACTION
                0x0000000068a91be0       0x10 src\guid.o
                0x0000000068a91be0                GUID_SLEEPBUTTON_ACTION
 .rdata$GUID_SLEEP_IDLE_THRESHOLD
                0x0000000068a91bf0       0x10 src\guid.o
                0x0000000068a91bf0                GUID_SLEEP_IDLE_THRESHOLD
 .rdata$GUID_SLEEP_SUBGROUP
                0x0000000068a91c00       0x10 src\guid.o
                0x0000000068a91c00                GUID_SLEEP_SUBGROUP
 .rdata$GUID_STANDBY_TIMEOUT
                0x0000000068a91c10       0x10 src\guid.o
                0x0000000068a91c10                GUID_STANDBY_TIMEOUT
 .rdata$GUID_SYSTEM_AWAYMODE
                0x0000000068a91c20       0x10 src\guid.o
                0x0000000068a91c20                GUID_SYSTEM_AWAYMODE
 .rdata$GUID_SYSTEM_BUTTON_SUBGROUP
                0x0000000068a91c30       0x10 src\guid.o
                0x0000000068a91c30                GUID_SYSTEM_BUTTON_SUBGROUP
 .rdata$GUID_SYSTEM_COOLING_POLICY
                0x0000000068a91c40       0x10 src\guid.o
                0x0000000068a91c40                GUID_SYSTEM_COOLING_POLICY
 .rdata$GUID_TYPICAL_POWER_SAVINGS
                0x0000000068a91c50       0x10 src\guid.o
                0x0000000068a91c50                GUID_TYPICAL_POWER_SAVINGS
 .rdata$GUID_UNATTEND_SLEEP_TIMEOUT
                0x0000000068a91c60       0x10 src\guid.o
                0x0000000068a91c60                GUID_UNATTEND_SLEEP_TIMEOUT
 .rdata$GUID_USERINTERFACEBUTTON_ACTION
                0x0000000068a91c70       0x10 src\guid.o
                0x0000000068a91c70                GUID_USERINTERFACEBUTTON_ACTION
 .rdata$GUID_VIDEO_ADAPTIVE_DISPLAY_BRIGHTNESS
                0x0000000068a91c80       0x10 src\guid.o
                0x0000000068a91c80                GUID_VIDEO_ADAPTIVE_DISPLAY_BRIGHTNESS
 .rdata$GUID_VIDEO_ADAPTIVE_PERCENT_INCREASE
                0x0000000068a91c90       0x10 src\guid.o
                0x0000000068a91c90                GUID_VIDEO_ADAPTIVE_PERCENT_INCREASE
 .rdata$GUID_VIDEO_ADAPTIVE_POWERDOWN
                0x0000000068a91ca0       0x10 src\guid.o
                0x0000000068a91ca0                GUID_VIDEO_ADAPTIVE_POWERDOWN
 .rdata$GUID_VIDEO_ANNOYANCE_TIMEOUT
                0x0000000068a91cb0       0x10 src\guid.o
                0x0000000068a91cb0                GUID_VIDEO_ANNOYANCE_TIMEOUT
 .rdata$GUID_VIDEO_CONSOLE_LOCK_TIMEOUT
                0x0000000068a91cc0       0x10 src\guid.o
                0x0000000068a91cc0                GUID_VIDEO_CONSOLE_LOCK_TIMEOUT
 .rdata$GUID_VIDEO_CURRENT_MONITOR_BRIGHTNESS
                0x0000000068a91cd0       0x10 src\guid.o
                0x0000000068a91cd0                GUID_VIDEO_CURRENT_MONITOR_BRIGHTNESS
 .rdata$GUID_VIDEO_DIM_TIMEOUT
                0x0000000068a91ce0       0x10 src\guid.o
                0x0000000068a91ce0                GUID_VIDEO_DIM_TIMEOUT
 .rdata$GUID_VIDEO_POWERDOWN_TIMEOUT
                0x0000000068a91cf0       0x10 src\guid.o
                0x0000000068a91cf0                GUID_VIDEO_POWERDOWN_TIMEOUT
 .rdata$GUID_VIDEO_SUBGROUP
                0x0000000068a91d00       0x10 src\guid.o
                0x0000000068a91d00                GUID_VIDEO_SUBGROUP
 .rdata$IID_AsyncIAdviseSink
                0x0000000068a91d10       0x10 src\guid.o
                0x0000000068a91d10                IID_AsyncIAdviseSink
 .rdata$IID_AsyncIAdviseSink2
                0x0000000068a91d20       0x10 src\guid.o
                0x0000000068a91d20                IID_AsyncIAdviseSink2
 .rdata$IID_AsyncIMultiQI
                0x0000000068a91d30       0x10 src\guid.o
                0x0000000068a91d30                IID_AsyncIMultiQI
 .rdata$IID_AsyncIUnknown
                0x0000000068a91d40       0x10 src\guid.o
                0x0000000068a91d40                IID_AsyncIUnknown
 .rdata$IID_IAddrExclusionControl
                0x0000000068a91d50       0x10 src\guid.o
                0x0000000068a91d50                IID_IAddrExclusionControl
 .rdata$IID_IAddrTrackingControl
                0x0000000068a91d60       0x10 src\guid.o
                0x0000000068a91d60                IID_IAddrTrackingControl
 .rdata$IID_IAdviseSink
                0x0000000068a91d70       0x10 src\guid.o
                0x0000000068a91d70                IID_IAdviseSink
 .rdata$IID_IAdviseSink2
                0x0000000068a91d80       0x10 src\guid.o
                0x0000000068a91d80                IID_IAdviseSink2
 .rdata$IID_IAgileObject
                0x0000000068a91d90       0x10 src\guid.o
                0x0000000068a91d90                IID_IAgileObject
 .rdata$IID_IApartmentShutdown
                0x0000000068a91da0       0x10 src\guid.o
                0x0000000068a91da0                IID_IApartmentShutdown
 .rdata$IID_IAsyncManager
                0x0000000068a91db0       0x10 src\guid.o
                0x0000000068a91db0                IID_IAsyncManager
 .rdata$IID_IAsyncRpcChannelBuffer
                0x0000000068a91dc0       0x10 src\guid.o
                0x0000000068a91dc0                IID_IAsyncRpcChannelBuffer
 .rdata$IID_IAuthenticate
                0x0000000068a91dd0       0x10 src\guid.o
                0x0000000068a91dd0                IID_IAuthenticate
 .rdata$IID_IAuthenticateEx
                0x0000000068a91de0       0x10 src\guid.o
                0x0000000068a91de0                IID_IAuthenticateEx
 .rdata$IID_IBindCallbackRedirect
                0x0000000068a91df0       0x10 src\guid.o
                0x0000000068a91df0                IID_IBindCallbackRedirect
 .rdata$IID_IBindCtx
                0x0000000068a91e00       0x10 src\guid.o
                0x0000000068a91e00                IID_IBindCtx
 .rdata$IID_IBindHost
                0x0000000068a91e10       0x10 src\guid.o
                0x0000000068a91e10                IID_IBindHost
 .rdata$IID_IBindProtocol
                0x0000000068a91e20       0x10 src\guid.o
                0x0000000068a91e20                IID_IBindProtocol
 .rdata$IID_IBindStatusCallback
                0x0000000068a91e30       0x10 src\guid.o
                0x0000000068a91e30                IID_IBindStatusCallback
 .rdata$IID_IBindStatusCallbackEx
                0x0000000068a91e40       0x10 src\guid.o
                0x0000000068a91e40                IID_IBindStatusCallbackEx
 .rdata$IID_IBinding
                0x0000000068a91e50       0x10 src\guid.o
                0x0000000068a91e50                IID_IBinding
 .rdata$IID_IBlockingLock
                0x0000000068a91e60       0x10 src\guid.o
                0x0000000068a91e60                IID_IBlockingLock
 .rdata$IID_ICallFactory
                0x0000000068a91e70       0x10 src\guid.o
                0x0000000068a91e70                IID_ICallFactory
 .rdata$IID_ICancelMethodCalls
                0x0000000068a91e80       0x10 src\guid.o
                0x0000000068a91e80                IID_ICancelMethodCalls
 .rdata$IID_ICatalogFileInfo
                0x0000000068a91e90       0x10 src\guid.o
                0x0000000068a91e90                IID_ICatalogFileInfo
 .rdata$IID_IChannelHook
                0x0000000068a91ea0       0x10 src\guid.o
                0x0000000068a91ea0                IID_IChannelHook
 .rdata$IID_IClassActivator
                0x0000000068a91eb0       0x10 src\guid.o
                0x0000000068a91eb0                IID_IClassActivator
 .rdata$IID_IClassFactory
                0x0000000068a91ec0       0x10 src\guid.o
                0x0000000068a91ec0                IID_IClassFactory
 .rdata$IID_IClientSecurity
                0x0000000068a91ed0       0x10 src\guid.o
                0x0000000068a91ed0                IID_IClientSecurity
 .rdata$IID_ICodeInstall
                0x0000000068a91ee0       0x10 src\guid.o
                0x0000000068a91ee0                IID_ICodeInstall
 .rdata$IID_IComThreadingInfo
                0x0000000068a91ef0       0x10 src\guid.o
                0x0000000068a91ef0                IID_IComThreadingInfo
 .rdata$IID_IContinue
                0x0000000068a91f00       0x10 src\guid.o
                0x0000000068a91f00                IID_IContinue
 .rdata$IID_ICreateErrorInfo
                0x0000000068a91f10       0x10 src\guid.o
                0x0000000068a91f10                IID_ICreateErrorInfo
 .rdata$IID_ICreateTypeInfo
                0x0000000068a91f20       0x10 src\guid.o
                0x0000000068a91f20                IID_ICreateTypeInfo
 .rdata$IID_ICreateTypeInfo2
                0x0000000068a91f30       0x10 src\guid.o
                0x0000000068a91f30                IID_ICreateTypeInfo2
 .rdata$IID_ICreateTypeLib
                0x0000000068a91f40       0x10 src\guid.o
                0x0000000068a91f40                IID_ICreateTypeLib
 .rdata$IID_ICreateTypeLib2
                0x0000000068a91f50       0x10 src\guid.o
                0x0000000068a91f50                IID_ICreateTypeLib2
 .rdata$IID_IDataAdviseHolder
                0x0000000068a91f60       0x10 src\guid.o
                0x0000000068a91f60                IID_IDataAdviseHolder
 .rdata$IID_IDataFilter
                0x0000000068a91f70       0x10 src\guid.o
                0x0000000068a91f70                IID_IDataFilter
 .rdata$IID_IDataObject
                0x0000000068a91f80       0x10 src\guid.o
                0x0000000068a91f80                IID_IDataObject
 .rdata$IID_IDirectWriterLock
                0x0000000068a91f90       0x10 src\guid.o
                0x0000000068a91f90                IID_IDirectWriterLock
 .rdata$IID_IDispatch
                0x0000000068a91fa0       0x10 src\guid.o
                0x0000000068a91fa0                IID_IDispatch
 .rdata$IID_IDropSource
                0x0000000068a91fb0       0x10 src\guid.o
                0x0000000068a91fb0                IID_IDropSource
 .rdata$IID_IDropSourceNotify
                0x0000000068a91fc0       0x10 src\guid.o
                0x0000000068a91fc0                IID_IDropSourceNotify
 .rdata$IID_IDropTarget
                0x0000000068a91fd0       0x10 src\guid.o
                0x0000000068a91fd0                IID_IDropTarget
 .rdata$IID_IDummyHICONIncluder
                0x0000000068a91fe0       0x10 src\guid.o
                0x0000000068a91fe0                IID_IDummyHICONIncluder
 .rdata$IID_IEncodingFilterFactory
                0x0000000068a91ff0       0x10 src\guid.o
                0x0000000068a91ff0                IID_IEncodingFilterFactory
 .rdata$IID_IEnumFORMATETC
                0x0000000068a92000       0x10 src\guid.o
                0x0000000068a92000                IID_IEnumFORMATETC
 .rdata$IID_IEnumMoniker
                0x0000000068a92010       0x10 src\guid.o
                0x0000000068a92010                IID_IEnumMoniker
 .rdata$IID_IEnumOLEVERB
                0x0000000068a92020       0x10 src\guid.o
                0x0000000068a92020                IID_IEnumOLEVERB
 .rdata$IID_IEnumSTATDATA
                0x0000000068a92030       0x10 src\guid.o
                0x0000000068a92030                IID_IEnumSTATDATA
 .rdata$IID_IEnumSTATPROPSETSTG
                0x0000000068a92040       0x10 src\guid.o
                0x0000000068a92040                IID_IEnumSTATPROPSETSTG
 .rdata$IID_IEnumSTATPROPSTG
                0x0000000068a92050       0x10 src\guid.o
                0x0000000068a92050                IID_IEnumSTATPROPSTG
 .rdata$IID_IEnumSTATSTG
                0x0000000068a92060       0x10 src\guid.o
                0x0000000068a92060                IID_IEnumSTATSTG
 .rdata$IID_IEnumString
                0x0000000068a92070       0x10 src\guid.o
                0x0000000068a92070                IID_IEnumString
 .rdata$IID_IEnumUnknown
                0x0000000068a92080       0x10 src\guid.o
                0x0000000068a92080                IID_IEnumUnknown
 .rdata$IID_IEnumVARIANT
                0x0000000068a92090       0x10 src\guid.o
                0x0000000068a92090                IID_IEnumVARIANT
 .rdata$IID_IErrorInfo
                0x0000000068a920a0       0x10 src\guid.o
                0x0000000068a920a0                IID_IErrorInfo
 .rdata$IID_IErrorLog
                0x0000000068a920b0       0x10 src\guid.o
                0x0000000068a920b0                IID_IErrorLog
 .rdata$IID_IExternalConnection
                0x0000000068a920c0       0x10 src\guid.o
                0x0000000068a920c0                IID_IExternalConnection
 .rdata$IID_IFastRundown
                0x0000000068a920d0       0x10 src\guid.o
                0x0000000068a920d0                IID_IFastRundown
 .rdata$IID_IFillLockBytes
                0x0000000068a920e0       0x10 src\guid.o
                0x0000000068a920e0                IID_IFillLockBytes
 .rdata$IID_IForegroundTransfer
                0x0000000068a920f0       0x10 src\guid.o
                0x0000000068a920f0                IID_IForegroundTransfer
 .rdata$IID_IGetBindHandle
                0x0000000068a92100       0x10 src\guid.o
                0x0000000068a92100                IID_IGetBindHandle
 .rdata$IID_IGlobalInterfaceTable
                0x0000000068a92110       0x10 src\guid.o
                0x0000000068a92110                IID_IGlobalInterfaceTable
 .rdata$IID_IGlobalOptions
                0x0000000068a92120       0x10 src\guid.o
                0x0000000068a92120                IID_IGlobalOptions
 .rdata$IID_IHttpNegotiate
                0x0000000068a92130       0x10 src\guid.o
                0x0000000068a92130                IID_IHttpNegotiate
 .rdata$IID_IHttpNegotiate2
                0x0000000068a92140       0x10 src\guid.o
                0x0000000068a92140                IID_IHttpNegotiate2
 .rdata$IID_IHttpNegotiate3
                0x0000000068a92150       0x10 src\guid.o
                0x0000000068a92150                IID_IHttpNegotiate3
 .rdata$IID_IHttpSecurity
                0x0000000068a92160       0x10 src\guid.o
                0x0000000068a92160                IID_IHttpSecurity
 .rdata$IID_IInitializeSpy
                0x0000000068a92170       0x10 src\guid.o
                0x0000000068a92170                IID_IInitializeSpy
 .rdata$IID_IInternalUnknown
                0x0000000068a92180       0x10 src\guid.o
                0x0000000068a92180                IID_IInternalUnknown
 .rdata$IID_IInternet
                0x0000000068a92190       0x10 src\guid.o
                0x0000000068a92190                IID_IInternet
 .rdata$IID_IInternetBindInfo
                0x0000000068a921a0       0x10 src\guid.o
                0x0000000068a921a0                IID_IInternetBindInfo
 .rdata$IID_IInternetBindInfoEx
                0x0000000068a921b0       0x10 src\guid.o
                0x0000000068a921b0                IID_IInternetBindInfoEx
 .rdata$IID_IInternetHostSecurityManager
                0x0000000068a921c0       0x10 src\guid.o
                0x0000000068a921c0                IID_IInternetHostSecurityManager
 .rdata$IID_IInternetPriority
                0x0000000068a921d0       0x10 src\guid.o
                0x0000000068a921d0                IID_IInternetPriority
 .rdata$IID_IInternetProtocol
                0x0000000068a921e0       0x10 src\guid.o
                0x0000000068a921e0                IID_IInternetProtocol
 .rdata$IID_IInternetProtocolInfo
                0x0000000068a921f0       0x10 src\guid.o
                0x0000000068a921f0                IID_IInternetProtocolInfo
 .rdata$IID_IInternetProtocolRoot
                0x0000000068a92200       0x10 src\guid.o
                0x0000000068a92200                IID_IInternetProtocolRoot
 .rdata$IID_IInternetProtocolSink
                0x0000000068a92210       0x10 src\guid.o
                0x0000000068a92210                IID_IInternetProtocolSink
 .rdata$IID_IInternetProtocolSinkStackable
                0x0000000068a92220       0x10 src\guid.o
                0x0000000068a92220                IID_IInternetProtocolSinkStackable
 .rdata$IID_IInternetSecurityManager
                0x0000000068a92230       0x10 src\guid.o
                0x0000000068a92230                IID_IInternetSecurityManager
 .rdata$IID_IInternetSecurityMgrSite
                0x0000000068a92240       0x10 src\guid.o
                0x0000000068a92240                IID_IInternetSecurityMgrSite
 .rdata$IID_IInternetSession
                0x0000000068a92250       0x10 src\guid.o
                0x0000000068a92250                IID_IInternetSession
 .rdata$IID_IInternetThreadSwitch
                0x0000000068a92260       0x10 src\guid.o
                0x0000000068a92260                IID_IInternetThreadSwitch
 .rdata$IID_IInternetZoneManager
                0x0000000068a92270       0x10 src\guid.o
                0x0000000068a92270                IID_IInternetZoneManager
 .rdata$IID_ILayoutStorage
                0x0000000068a92280       0x10 src\guid.o
                0x0000000068a92280                IID_ILayoutStorage
 .rdata$IID_ILockBytes
                0x0000000068a92290       0x10 src\guid.o
                0x0000000068a92290                IID_ILockBytes
 .rdata$IID_IMalloc
                0x0000000068a922a0       0x10 src\guid.o
                0x0000000068a922a0                IID_IMalloc
 .rdata$IID_IMallocSpy
                0x0000000068a922b0       0x10 src\guid.o
                0x0000000068a922b0                IID_IMallocSpy
 .rdata$IID_IMarshal
                0x0000000068a922c0       0x10 src\guid.o
                0x0000000068a922c0                IID_IMarshal
 .rdata$IID_IMarshal2
                0x0000000068a922d0       0x10 src\guid.o
                0x0000000068a922d0                IID_IMarshal2
 .rdata$IID_IMarshalingStream
                0x0000000068a922e0       0x10 src\guid.o
                0x0000000068a922e0                IID_IMarshalingStream
 .rdata$IID_IMessageFilter
                0x0000000068a922f0       0x10 src\guid.o
                0x0000000068a922f0                IID_IMessageFilter
 .rdata$IID_IMoniker
                0x0000000068a92300       0x10 src\guid.o
                0x0000000068a92300                IID_IMoniker
 .rdata$IID_IMonikerProp
                0x0000000068a92310       0x10 src\guid.o
                0x0000000068a92310                IID_IMonikerProp
 .rdata$IID_IMultiQI
                0x0000000068a92320       0x10 src\guid.o
                0x0000000068a92320                IID_IMultiQI
 .rdata$IID_INoMarshal
                0x0000000068a92330       0x10 src\guid.o
                0x0000000068a92330                IID_INoMarshal
 .rdata$IID_IOleAdviseHolder
                0x0000000068a92340       0x10 src\guid.o
                0x0000000068a92340                IID_IOleAdviseHolder
 .rdata$IID_IOleCache
                0x0000000068a92350       0x10 src\guid.o
                0x0000000068a92350                IID_IOleCache
 .rdata$IID_IOleCache2
                0x0000000068a92360       0x10 src\guid.o
                0x0000000068a92360                IID_IOleCache2
 .rdata$IID_IOleCacheControl
                0x0000000068a92370       0x10 src\guid.o
                0x0000000068a92370                IID_IOleCacheControl
 .rdata$IID_IOleClientSite
                0x0000000068a92380       0x10 src\guid.o
                0x0000000068a92380                IID_IOleClientSite
 .rdata$IID_IOleContainer
                0x0000000068a92390       0x10 src\guid.o
                0x0000000068a92390                IID_IOleContainer
 .rdata$IID_IOleInPlaceActiveObject
                0x0000000068a923a0       0x10 src\guid.o
                0x0000000068a923a0                IID_IOleInPlaceActiveObject
 .rdata$IID_IOleInPlaceFrame
                0x0000000068a923b0       0x10 src\guid.o
                0x0000000068a923b0                IID_IOleInPlaceFrame
 .rdata$IID_IOleInPlaceObject
                0x0000000068a923c0       0x10 src\guid.o
                0x0000000068a923c0                IID_IOleInPlaceObject
 .rdata$IID_IOleInPlaceSite
                0x0000000068a923d0       0x10 src\guid.o
                0x0000000068a923d0                IID_IOleInPlaceSite
 .rdata$IID_IOleInPlaceUIWindow
                0x0000000068a923e0       0x10 src\guid.o
                0x0000000068a923e0                IID_IOleInPlaceUIWindow
 .rdata$IID_IOleItemContainer
                0x0000000068a923f0       0x10 src\guid.o
                0x0000000068a923f0                IID_IOleItemContainer
 .rdata$IID_IOleLink
                0x0000000068a92400       0x10 src\guid.o
                0x0000000068a92400                IID_IOleLink
 .rdata$IID_IOleObject
                0x0000000068a92410       0x10 src\guid.o
                0x0000000068a92410                IID_IOleObject
 .rdata$IID_IOleWindow
                0x0000000068a92420       0x10 src\guid.o
                0x0000000068a92420                IID_IOleWindow
 .rdata$IID_IOplockStorage
                0x0000000068a92430       0x10 src\guid.o
                0x0000000068a92430                IID_IOplockStorage
 .rdata$IID_IPSFactoryBuffer
                0x0000000068a92440       0x10 src\guid.o
                0x0000000068a92440                IID_IPSFactoryBuffer
 .rdata$IID_IParseDisplayName
                0x0000000068a92450       0x10 src\guid.o
                0x0000000068a92450                IID_IParseDisplayName
 .rdata$IID_IPersist
                0x0000000068a92460       0x10 src\guid.o
                0x0000000068a92460                IID_IPersist
 .rdata$IID_IPersistFile
                0x0000000068a92470       0x10 src\guid.o
                0x0000000068a92470                IID_IPersistFile
 .rdata$IID_IPersistMoniker
                0x0000000068a92480       0x10 src\guid.o
                0x0000000068a92480                IID_IPersistMoniker
 .rdata$IID_IPersistStorage
                0x0000000068a92490       0x10 src\guid.o
                0x0000000068a92490                IID_IPersistStorage
 .rdata$IID_IPersistStream
                0x0000000068a924a0       0x10 src\guid.o
                0x0000000068a924a0                IID_IPersistStream
 .rdata$IID_IPipeByte
                0x0000000068a924b0       0x10 src\guid.o
                0x0000000068a924b0                IID_IPipeByte
 .rdata$IID_IPipeDouble
                0x0000000068a924c0       0x10 src\guid.o
                0x0000000068a924c0                IID_IPipeDouble
 .rdata$IID_IPipeLong
                0x0000000068a924d0       0x10 src\guid.o
                0x0000000068a924d0                IID_IPipeLong
 .rdata$IID_IPrintDialogCallback
                0x0000000068a924e0       0x10 src\guid.o
                0x0000000068a924e0                IID_IPrintDialogCallback
 .rdata$IID_IPrintDialogServices
                0x0000000068a924f0       0x10 src\guid.o
                0x0000000068a924f0                IID_IPrintDialogServices
 .rdata$IID_IProcessInitControl
                0x0000000068a92500       0x10 src\guid.o
                0x0000000068a92500                IID_IProcessInitControl
 .rdata$IID_IProcessLock
                0x0000000068a92510       0x10 src\guid.o
                0x0000000068a92510                IID_IProcessLock
 .rdata$IID_IProgressNotify
                0x0000000068a92520       0x10 src\guid.o
                0x0000000068a92520                IID_IProgressNotify
 .rdata$IID_IPropertyBag
                0x0000000068a92530       0x10 src\guid.o
                0x0000000068a92530                IID_IPropertyBag
 .rdata$IID_IPropertySetStorage
                0x0000000068a92540       0x10 src\guid.o
                0x0000000068a92540                IID_IPropertySetStorage
 .rdata$IID_IPropertyStorage
                0x0000000068a92550       0x10 src\guid.o
                0x0000000068a92550                IID_IPropertyStorage
 .rdata$IID_IROTData
                0x0000000068a92560       0x10 src\guid.o
                0x0000000068a92560                IID_IROTData
 .rdata$IID_IRecordInfo
                0x0000000068a92570       0x10 src\guid.o
                0x0000000068a92570                IID_IRecordInfo
 .rdata$IID_IReleaseMarshalBuffers
                0x0000000068a92580       0x10 src\guid.o
                0x0000000068a92580                IID_IReleaseMarshalBuffers
 .rdata$IID_IRootStorage
                0x0000000068a92590       0x10 src\guid.o
                0x0000000068a92590                IID_IRootStorage
 .rdata$IID_IRpcChannelBuffer
                0x0000000068a925a0       0x10 src\guid.o
                0x0000000068a925a0                IID_IRpcChannelBuffer
 .rdata$IID_IRpcChannelBuffer2
                0x0000000068a925b0       0x10 src\guid.o
                0x0000000068a925b0                IID_IRpcChannelBuffer2
 .rdata$IID_IRpcChannelBuffer3
                0x0000000068a925c0       0x10 src\guid.o
                0x0000000068a925c0                IID_IRpcChannelBuffer3
 .rdata$IID_IRpcHelper
                0x0000000068a925d0       0x10 src\guid.o
                0x0000000068a925d0                IID_IRpcHelper
 .rdata$IID_IRpcOptions
                0x0000000068a925e0       0x10 src\guid.o
                0x0000000068a925e0                IID_IRpcOptions
 .rdata$IID_IRpcProxyBuffer
                0x0000000068a925f0       0x10 src\guid.o
                0x0000000068a925f0                IID_IRpcProxyBuffer
 .rdata$IID_IRpcStubBuffer
                0x0000000068a92600       0x10 src\guid.o
                0x0000000068a92600                IID_IRpcStubBuffer
 .rdata$IID_IRpcSyntaxNegotiate
                0x0000000068a92610       0x10 src\guid.o
                0x0000000068a92610                IID_IRpcSyntaxNegotiate
 .rdata$IID_IRunnableObject
                0x0000000068a92620       0x10 src\guid.o
                0x0000000068a92620                IID_IRunnableObject
 .rdata$IID_IRunningObjectTable
                0x0000000068a92630       0x10 src\guid.o
                0x0000000068a92630                IID_IRunningObjectTable
 .rdata$IID_ISequentialStream
                0x0000000068a92640       0x10 src\guid.o
                0x0000000068a92640                IID_ISequentialStream
 .rdata$IID_IServerSecurity
                0x0000000068a92650       0x10 src\guid.o
                0x0000000068a92650                IID_IServerSecurity
 .rdata$IID_ISoftDistExt
                0x0000000068a92660       0x10 src\guid.o
                0x0000000068a92660                IID_ISoftDistExt
 .rdata$IID_IStdMarshalInfo
                0x0000000068a92670       0x10 src\guid.o
                0x0000000068a92670                IID_IStdMarshalInfo
 .rdata$IID_IStorage
                0x0000000068a92680       0x10 src\guid.o
                0x0000000068a92680                IID_IStorage
 .rdata$IID_IStream
                0x0000000068a92690       0x10 src\guid.o
                0x0000000068a92690                IID_IStream
 .rdata$IID_ISupportErrorInfo
                0x0000000068a926a0       0x10 src\guid.o
                0x0000000068a926a0                IID_ISupportErrorInfo
 .rdata$IID_ISurrogate
                0x0000000068a926b0       0x10 src\guid.o
                0x0000000068a926b0                IID_ISurrogate
 .rdata$IID_ISurrogateService
                0x0000000068a926c0       0x10 src\guid.o
                0x0000000068a926c0                IID_ISurrogateService
 .rdata$IID_ISynchronize
                0x0000000068a926d0       0x10 src\guid.o
                0x0000000068a926d0                IID_ISynchronize
 .rdata$IID_ISynchronizeContainer
                0x0000000068a926e0       0x10 src\guid.o
                0x0000000068a926e0                IID_ISynchronizeContainer
 .rdata$IID_ISynchronizeEvent
                0x0000000068a926f0       0x10 src\guid.o
                0x0000000068a926f0                IID_ISynchronizeEvent
 .rdata$IID_ISynchronizeHandle
                0x0000000068a92700       0x10 src\guid.o
                0x0000000068a92700                IID_ISynchronizeHandle
 .rdata$IID_ISynchronizeMutex
                0x0000000068a92710       0x10 src\guid.o
                0x0000000068a92710                IID_ISynchronizeMutex
 .rdata$IID_IThumbnailExtractor
                0x0000000068a92720       0x10 src\guid.o
                0x0000000068a92720                IID_IThumbnailExtractor
 .rdata$IID_ITimeAndNoticeControl
                0x0000000068a92730       0x10 src\guid.o
                0x0000000068a92730                IID_ITimeAndNoticeControl
 .rdata$IID_ITypeChangeEvents
                0x0000000068a92740       0x10 src\guid.o
                0x0000000068a92740                IID_ITypeChangeEvents
 .rdata$IID_ITypeComp
                0x0000000068a92750       0x10 src\guid.o
                0x0000000068a92750                IID_ITypeComp
 .rdata$IID_ITypeFactory
                0x0000000068a92760       0x10 src\guid.o
                0x0000000068a92760                IID_ITypeFactory
 .rdata$IID_ITypeInfo
                0x0000000068a92770       0x10 src\guid.o
                0x0000000068a92770                IID_ITypeInfo
 .rdata$IID_ITypeInfo2
                0x0000000068a92780       0x10 src\guid.o
                0x0000000068a92780                IID_ITypeInfo2
 .rdata$IID_ITypeLib
                0x0000000068a92790       0x10 src\guid.o
                0x0000000068a92790                IID_ITypeLib
 .rdata$IID_ITypeLib2
                0x0000000068a927a0       0x10 src\guid.o
                0x0000000068a927a0                IID_ITypeLib2
 .rdata$IID_ITypeMarshal
                0x0000000068a927b0       0x10 src\guid.o
                0x0000000068a927b0                IID_ITypeMarshal
 .rdata$IID_IUrlMon
                0x0000000068a927c0       0x10 src\guid.o
                0x0000000068a927c0                IID_IUrlMon
 .rdata$IID_IViewObject
                0x0000000068a927d0       0x10 src\guid.o
                0x0000000068a927d0                IID_IViewObject
 .rdata$IID_IViewObject2
                0x0000000068a927e0       0x10 src\guid.o
                0x0000000068a927e0                IID_IViewObject2
 .rdata$IID_IWaitMultiple
                0x0000000068a927f0       0x10 src\guid.o
                0x0000000068a927f0                IID_IWaitMultiple
 .rdata$IID_IWinInetFileStream
                0x0000000068a92800       0x10 src\guid.o
                0x0000000068a92800                IID_IWinInetFileStream
 .rdata$IID_IWinInetHttpInfo
                0x0000000068a92810       0x10 src\guid.o
                0x0000000068a92810                IID_IWinInetHttpInfo
 .rdata$IID_IWinInetHttpTimeouts
                0x0000000068a92820       0x10 src\guid.o
                0x0000000068a92820                IID_IWinInetHttpTimeouts
 .rdata$IID_IWinInetInfo
                0x0000000068a92830       0x10 src\guid.o
                0x0000000068a92830                IID_IWinInetInfo
 .rdata$IID_IWindowForBindingUI
                0x0000000068a92840       0x10 src\guid.o
                0x0000000068a92840                IID_IWindowForBindingUI
 .rdata$IID_IWrappedProtocol
                0x0000000068a92850       0x10 src\guid.o
                0x0000000068a92850                IID_IWrappedProtocol
 .rdata$MenuGuid
                0x0000000068a92860       0x10 src\guid.o
                0x0000000068a92860                MenuGuid
 .rdata$NO_SUBGROUP_GUID
                0x0000000068a92870       0x10 src\guid.o
                0x0000000068a92870                NO_SUBGROUP_GUID
 .rdata$PPM_IDLESTATES_DATA_GUID
                0x0000000068a92880       0x10 src\guid.o
                0x0000000068a92880                PPM_IDLESTATES_DATA_GUID
 .rdata$PPM_IDLESTATE_CHANGE_GUID
                0x0000000068a92890       0x10 src\guid.o
                0x0000000068a92890                PPM_IDLESTATE_CHANGE_GUID
 .rdata$PPM_IDLE_ACCOUNTING_EX_GUID
                0x0000000068a928a0       0x10 src\guid.o
                0x0000000068a928a0                PPM_IDLE_ACCOUNTING_EX_GUID
 .rdata$PPM_IDLE_ACCOUNTING_GUID
                0x0000000068a928b0       0x10 src\guid.o
                0x0000000068a928b0                PPM_IDLE_ACCOUNTING_GUID
 .rdata$PPM_PERFMON_PERFSTATE_GUID
                0x0000000068a928c0       0x10 src\guid.o
                0x0000000068a928c0                PPM_PERFMON_PERFSTATE_GUID
 .rdata$PPM_PERFSTATES_DATA_GUID
                0x0000000068a928d0       0x10 src\guid.o
                0x0000000068a928d0                PPM_PERFSTATES_DATA_GUID
 .rdata$PPM_PERFSTATE_CHANGE_GUID
                0x0000000068a928e0       0x10 src\guid.o
                0x0000000068a928e0                PPM_PERFSTATE_CHANGE_GUID
 .rdata$PPM_PERFSTATE_DOMAIN_CHANGE_GUID
                0x0000000068a928f0       0x10 src\guid.o
                0x0000000068a928f0                PPM_PERFSTATE_DOMAIN_CHANGE_GUID
 .rdata$PPM_THERMALCONSTRAINT_GUID
                0x0000000068a92900       0x10 src\guid.o
                0x0000000068a92900                PPM_THERMALCONSTRAINT_GUID
 .rdata$PPM_THERMAL_POLICY_CHANGE_GUID
                0x0000000068a92910       0x10 src\guid.o
                0x0000000068a92910                PPM_THERMAL_POLICY_CHANGE_GUID
 .rdata$PluginGuid
                0x0000000068a92920       0x10 src\guid.o
                0x0000000068a92920                PluginGuid
 *fill*         0x0000000068a92930       0x10 
 .rdata$_ZTV13FarGlobalInfo
                0x0000000068a92940       0x60 src\globalinfo.o
                0x0000000068a92940                vtable for FarGlobalInfo
 .rdata$_ZTV9FarPlugin
                0x0000000068a929a0       0x40 src\farplugin.o
                0x0000000068a929a0                vtable for FarPlugin
 .rdata$_ZTVN3Far12GlobalInfo_iE
                0x0000000068a929e0       0x60 D:\projects\andrew-grechkin\LIB\libfar3\Release-x64-NoStr\liblibfar3.a(globalinfo_i.o)
                0x0000000068a929e0                vtable for Far::GlobalInfo_i
 .rdata$_ZTVN3Far15CheckBoxBindingE
                0x0000000068a92a40       0x40 D:\projects\andrew-grechkin\LIB\libfar3\Release-x64-NoStr\liblibfar3.a(create_checkbox.o)
                0x0000000068a92a40                vtable for Far::CheckBoxBinding
 .rdata$_ZTVN3Far15ComboBoxBindingE
                0x0000000068a92a80       0x40 D:\projects\andrew-grechkin\LIB\libfar3\Release-x64-NoStr\liblibfar3.a(create_combobox.o)
                0x0000000068a92a80                vtable for Far::ComboBoxBinding
 .rdata$_ZTVN3Far15DialogBuilder_iE
                0x0000000068a92ac0       0x80 D:\projects\andrew-grechkin\LIB\libfar3\Release-x64-NoStr\liblibfar3.a(dialog_builder.o)
                0x0000000068a92ac0                vtable for Far::DialogBuilder_i
 .rdata$_ZTVN3Far19DialogItemBinding_iE
                0x0000000068a92b40       0x40 D:\projects\andrew-grechkin\LIB\libfar3\Release-x64-NoStr\liblibfar3.a(DialogItemBinding.o)
                0x0000000068a92b40                vtable for Far::DialogItemBinding_i
 .rdata$_ZTVN3Far22PluginEditFieldBindingE
                0x0000000068a92b80       0x40 D:\projects\andrew-grechkin\LIB\libfar3\Release-x64-NoStr\liblibfar3.a(create_edit.o)
                0x0000000068a92b80                vtable for Far::PluginEditFieldBinding
 .rdata$_ZTVN3Far24PluginRadioButtonBindingE
                0x0000000068a92bc0       0x40 D:\projects\andrew-grechkin\LIB\libfar3\Release-x64-NoStr\liblibfar3.a(DlgBuilder_c.o)
                0x0000000068a92bc0                vtable for Far::PluginRadioButtonBinding
 .rdata$_ZTVN3Far24SimpleDialogBuilder_implE
                0x0000000068a92c00       0x80 D:\projects\andrew-grechkin\LIB\libfar3\Release-x64-NoStr\liblibfar3.a(dialog_builder.o)
                0x0000000068a92c00                vtable for Far::SimpleDialogBuilder_impl
 .rdata$_ZTVN3Far8Plugin_iE
                0x0000000068a92c80       0x40 D:\projects\andrew-grechkin\LIB\libfar3\Release-x64-NoStr\liblibfar3.a(plugin_i.o)
                0x0000000068a92c80                vtable for Far::Plugin_i
 .rdata$_ZTVN4Base11ref_counterE
                0x0000000068a92cc0       0x40 D:\projects\andrew-grechkin\LIB\libbase\Release-x64-NoStr\liblibbase.a(ref_cnt.o)
                0x0000000068a92cc0                vtable for Base::ref_counter
 .rdata$_ZTVN4Base12basic_stringIwNS_11char_traitsIwEEE11string_implE
                0x0000000068a92d00       0x40 src\process.o
                0x0000000068a92d00                vtable for Base::basic_string<wchar_t, Base::char_traits<wchar_t> >::string_impl
 .rdata$_ZTVN6Logger11Module_implE
                0x0000000068a92d40       0xa0 D:\projects\andrew-grechkin\LIB\liblog\Release-x64-stub\libliblog.a(logger_stub.o)
                0x0000000068a92d40                vtable for Logger::Module_impl
 .rdata$_ZTVN6Logger8Module_iE
                0x0000000068a92de0       0xa0 D:\projects\andrew-grechkin\LIB\liblog\Release-x64-stub\libliblog.a(logger_stub.o)
                0x0000000068a92de0                vtable for Logger::Module_i
 .rdata$_ZTVN6Logger8Target_iE
                0x0000000068a92e80       0x40 D:\projects\andrew-grechkin\LIB\liblog\Release-x64-stub\libliblog.a(logger_stub.o)
                0x0000000068a92e80                vtable for Logger::Target_i
 .rdata$_ZTVN6Logger9LogToNullE
                0x0000000068a92ec0       0x40 D:\projects\andrew-grechkin\LIB\liblog\Release-x64-stub\libliblog.a(target_null.o)
                0x0000000068a92ec0                vtable for Logger::LogToNull
 .rdata$_ZTVSt15_Sp_counted_ptrIPN6Logger9LogToNullELN9__gnu_cxx12_Lock_policyE2EE
                0x0000000068a92f00       0x40 D:\projects\andrew-grechkin\LIB\liblog\Release-x64-stub\libliblog.a(target_null.o)
                0x0000000068a92f00                vtable for std::_Sp_counted_ptr<Logger::LogToNull*, (__gnu_cxx::_Lock_policy)2>
 .rdata$_ZTVSt16_Sp_counted_baseILN9__gnu_cxx12_Lock_policyE2EE
                0x0000000068a92f40       0x40 D:\projects\andrew-grechkin\LIB\libfar3\Release-x64-NoStr\liblibfar3.a(dialog_builder.o)
                0x0000000068a92f40                vtable for std::_Sp_counted_base<(__gnu_cxx::_Lock_policy)2>
 .rdata$_ZTVSt19_Sp_counted_deleterIPN3Far24SimpleDialogBuilder_implENSt12__shared_ptrIS1_LN9__gnu_cxx12_Lock_policyE2EE8_DeleterISaIS1_EEES8_LS5_2EE
                0x0000000068a92f80       0x40 D:\projects\andrew-grechkin\LIB\libfar3\Release-x64-NoStr\liblibfar3.a(dialog_builder.o)
                0x0000000068a92f80                vtable for std::_Sp_counted_deleter<Far::SimpleDialogBuilder_impl*, std::__shared_ptr<Far::SimpleDialogBuilder_impl, (__gnu_cxx::_Lock_policy)2>::_Deleter<std::allocator<Far::SimpleDialogBuilder_impl> >, std::allocator<Far::SimpleDialogBuilder_impl>, (__gnu_cxx::_Lock_policy)2>
 .rdata$zzz     0x0000000068a92fc0       0x20 src\process.o
 .rdata$zzz     0x0000000068a92fe0       0x20 src\main.o
 .rdata$zzz     0x0000000068a93000       0x20 src\guid.o
 .rdata$zzz     0x0000000068a93020       0x20 src\globalinfo.o
 .rdata$zzz     0x0000000068a93040       0x20 src\farplugin.o
 .rdata$zzz     0x0000000068a93060       0x20 D:\projects\andrew-grechkin\LIB\libfar3\Release-x64-NoStr\liblibfar3.a(editor.o)
 .rdata$zzz     0x0000000068a93080       0x20 D:\projects\andrew-grechkin\LIB\libfar3\Release-x64-NoStr\liblibfar3.a(message.o)
 .rdata$zzz     0x0000000068a930a0       0x20 D:\projects\andrew-grechkin\LIB\libfar3\Release-x64-NoStr\liblibfar3.a(dialog_builder.o)
 .rdata$zzz     0x0000000068a930c0       0x20 D:\projects\andrew-grechkin\LIB\libfar3\Release-x64-NoStr\liblibfar3.a(create_label.o)
 .rdata$zzz     0x0000000068a930e0       0x20 D:\projects\andrew-grechkin\LIB\libfar3\Release-x64-NoStr\liblibfar3.a(create_combobox.o)
 .rdata$zzz     0x0000000068a93100       0x20 D:\projects\andrew-grechkin\LIB\libfar3\Release-x64-NoStr\liblibfar3.a(create_separator.o)
 .rdata$zzz     0x0000000068a93120       0x20 D:\projects\andrew-grechkin\LIB\libfar3\Release-x64-NoStr\liblibfar3.a(create_checkbox.o)
 .rdata$zzz     0x0000000068a93140       0x20 D:\projects\andrew-grechkin\LIB\libfar3\Release-x64-NoStr\liblibfar3.a(create_edit.o)
 .rdata$zzz     0x0000000068a93160       0x20 D:\projects\andrew-grechkin\LIB\libfar3\Release-x64-NoStr\liblibfar3.a(globalinfo_i.o)
 .rdata$zzz     0x0000000068a93180       0x20 D:\projects\andrew-grechkin\LIB\libfar3\Release-x64-NoStr\liblibfar3.a(plugin_i.o)
 .rdata$zzz     0x0000000068a931a0       0x20 D:\projects\andrew-grechkin\LIB\libfar3\Release-x64-NoStr\liblibfar3.a(settings.o)
 .rdata$zzz     0x0000000068a931c0       0x20 D:\projects\andrew-grechkin\LIB\libfar3\Release-x64-NoStr\liblibfar3.a(FarDialogItem.o)
 .rdata$zzz     0x0000000068a931e0       0x20 D:\projects\andrew-grechkin\LIB\libfar3\Release-x64-NoStr\liblibfar3.a(DlgBuilder_c.o)
 .rdata$zzz     0x0000000068a93200       0x20 D:\projects\andrew-grechkin\LIB\libfar3\Release-x64-NoStr\liblibfar3.a(DialogItemBinding.o)
 .rdata$zzz     0x0000000068a93220       0x20 D:\projects\andrew-grechkin\LIB\liblog\Release-x64-stub\libliblog.a(logger_stub.o)
 .rdata$zzz     0x0000000068a93240       0x20 D:\projects\andrew-grechkin\LIB\liblog\Release-x64-stub\libliblog.a(target_null.o)
 .rdata$zzz     0x0000000068a93260       0x20 D:\projects\andrew-grechkin\LIB\libbase\Release-x64-NoStr\liblibbase.a(ref_cnt.o)
 .rdata$zzz     0x0000000068a93280       0x20 D:\projects\andrew-grechkin\LIB\libbase\Release-x64-NoStr\liblibbase.a(new_delete.o)
 .rdata$zzz     0x0000000068a932a0       0x20 D:\projects\andrew-grechkin\LIB\libbase\Release-x64-NoStr\liblibbase.a(crt.o)
 .rdata$zzz     0x0000000068a932c0       0x20 c:/mingw/bin/../lib/gcc/x86_64-w64-mingw32/4.8.1\libgcc.a(_ctors.o)
 .rdata$zzz     0x0000000068a932e0       0x20 c:/mingw/bin/../lib/gcc/x86_64-w64-mingw32/4.8.1/../../../../x86_64-w64-mingw32/lib/../lib\libmingwex.a(lib64_libmingwex_a-wcstold.o)
 .rdata$zzz     0x0000000068a93300       0x20 c:/mingw/bin/../lib/gcc/x86_64-w64-mingw32/4.8.1/../../../../x86_64-w64-mingw32/lib/../lib\libmingwex.a(lib64_libmingwex_a-strtold.o)
 .rdata$zzz     0x0000000068a93320       0x20 c:/mingw/bin/../lib/gcc/x86_64-w64-mingw32/4.8.1/../../../../x86_64-w64-mingw32/lib/../lib\libmingwex.a(lib64_libmingwex_a-cephes_emath.o)
                0x0000000068a93340                __rt_psrelocs_start = .
 *(.rdata_runtime_pseudo_reloc)
                0x0000000068a93340                __rt_psrelocs_end = .
                0x0000000000000000                __rt_psrelocs_size = (__rt_psrelocs_end - __rt_psrelocs_start)
                0x0000000068a93340                ___RUNTIME_PSEUDO_RELOC_LIST_END__ = .
                0x0000000068a93340                __RUNTIME_PSEUDO_RELOC_LIST_END__ = .
                0x0000000068a93340                ___RUNTIME_PSEUDO_RELOC_LIST__ = (. - __rt_psrelocs_size)
                0x0000000068a93340                __RUNTIME_PSEUDO_RELOC_LIST__ = (. - __rt_psrelocs_size)

.eh_frame
 *(.eh_frame*)

.pdata          0x0000000068a94000      0xe00
 *(.pdata*)
 .pdata         0x0000000068a94000       0xcc src\process.o
 .pdata$_ZN4Base12basic_stringIwNS_11char_traitsIwEEE11string_implD1Ev
                0x0000000068a940cc        0xc src\process.o
 .pdata$_ZN4Base12basic_stringIwNS_11char_traitsIwEEE11string_implD0Ev
                0x0000000068a940d8        0xc src\process.o
 .pdata$_ZNK4Base12basic_stringIwNS_11char_traitsIwEEE11string_impl10deallocateEv
                0x0000000068a940e4        0xc src\process.o
 .pdata$_Z16InsertFromVectorISt16reverse_iteratorIN9__gnu_cxx17__normal_iteratorIP8SortInfoSt6vectorIS3_SaIS3_EEEEEEvRKS5_I10StringInfoSaISA_EET_SF_
                0x0000000068a940f0        0xc src\process.o
 .pdata$_Z16InsertFromVectorIN9__gnu_cxx17__normal_iteratorIP8SortInfoSt6vectorIS2_SaIS2_EEEEEvRKS4_I10StringInfoSaIS8_EET_SD_
                0x0000000068a940fc        0xc src\process.o
 .pdata$_ZNSt6vectorI10StringInfoSaIS0_EE19_M_emplace_back_auxIIR15EditorGetStringRP13FarGlobalInfoEEEvDpOT_
                0x0000000068a94108        0xc src\process.o
 .pdata$_ZNSt6vectorI8SortInfoSaIS0_EE19_M_emplace_back_auxIIR10StringInfoRP13FarGlobalInfoEEEvDpOT_
                0x0000000068a94114        0xc src\process.o
 .pdata$_ZSt25__unguarded_linear_insertIN9__gnu_cxx17__normal_iteratorIP8SortInfoSt6vectorIS2_SaIS2_EEEESt26pointer_to_binary_functionIRKS2_SA_bEEvT_T0_
                0x0000000068a94120        0xc src\process.o
 .pdata$_ZSt16__insertion_sortIN9__gnu_cxx17__normal_iteratorIP8SortInfoSt6vectorIS2_SaIS2_EEEESt26pointer_to_binary_functionIRKS2_SA_bEEvT_SC_T0_
                0x0000000068a9412c        0xc src\process.o
 .pdata$_ZSt13__adjust_heapIN9__gnu_cxx17__normal_iteratorIP8SortInfoSt6vectorIS2_SaIS2_EEEExS2_St26pointer_to_binary_functionIRKS2_SA_bEEvT_T0_SD_T1_T2_
                0x0000000068a94138        0xc src\process.o
 .pdata$_ZSt16__introsort_loopIN9__gnu_cxx17__normal_iteratorIP8SortInfoSt6vectorIS2_SaIS2_EEEExSt26pointer_to_binary_functionIRKS2_SA_bEEvT_SC_T0_T1_
                0x0000000068a94144        0xc src\process.o
 .pdata         0x0000000068a94150       0x84 src\main.o
 .pdata         0x0000000068a941d4       0xb4 src\globalinfo.o
 .pdata         0x0000000068a94288       0x54 src\farplugin.o
 .pdata         0x0000000068a942dc       0x9c D:\projects\andrew-grechkin\LIB\libfar3\Release-x64-NoStr\liblibfar3.a(editor.o)
 .pdata         0x0000000068a94378       0x18 D:\projects\andrew-grechkin\LIB\libfar3\Release-x64-NoStr\liblibfar3.a(message.o)
 .pdata         0x0000000068a94390      0x15c D:\projects\andrew-grechkin\LIB\libfar3\Release-x64-NoStr\liblibfar3.a(dialog_builder.o)
 .pdata$_ZNSt16_Sp_counted_baseILN9__gnu_cxx12_Lock_policyE2EE10_M_destroyEv
                0x0000000068a944ec        0xc D:\projects\andrew-grechkin\LIB\libfar3\Release-x64-NoStr\liblibfar3.a(dialog_builder.o)
 .pdata$_ZNSt16_Sp_counted_baseILN9__gnu_cxx12_Lock_policyE2EED1Ev
                0x0000000068a944f8        0xc D:\projects\andrew-grechkin\LIB\libfar3\Release-x64-NoStr\liblibfar3.a(dialog_builder.o)
 .pdata$_ZNSt19_Sp_counted_deleterIPN3Far24SimpleDialogBuilder_implENSt12__shared_ptrIS1_LN9__gnu_cxx12_Lock_policyE2EE8_DeleterISaIS1_EEES8_LS5_2EED1Ev
                0x0000000068a94504        0xc D:\projects\andrew-grechkin\LIB\libfar3\Release-x64-NoStr\liblibfar3.a(dialog_builder.o)
 .pdata$_ZNSt19_Sp_counted_deleterIPN3Far24SimpleDialogBuilder_implENSt12__shared_ptrIS1_LN9__gnu_cxx12_Lock_policyE2EE8_DeleterISaIS1_EEES8_LS5_2EE14_M_get_deleterERKSt9type_info
                0x0000000068a94510        0xc D:\projects\andrew-grechkin\LIB\libfar3\Release-x64-NoStr\liblibfar3.a(dialog_builder.o)
 .pdata$_ZNSt16_Sp_counted_baseILN9__gnu_cxx12_Lock_policyE2EED0Ev
                0x0000000068a9451c        0xc D:\projects\andrew-grechkin\LIB\libfar3\Release-x64-NoStr\liblibfar3.a(dialog_builder.o)
 .pdata$_ZNSt19_Sp_counted_deleterIPN3Far24SimpleDialogBuilder_implENSt12__shared_ptrIS1_LN9__gnu_cxx12_Lock_policyE2EE8_DeleterISaIS1_EEES8_LS5_2EED0Ev
                0x0000000068a94528        0xc D:\projects\andrew-grechkin\LIB\libfar3\Release-x64-NoStr\liblibfar3.a(dialog_builder.o)
 .pdata$_ZNSt19_Sp_counted_deleterIPN3Far24SimpleDialogBuilder_implENSt12__shared_ptrIS1_LN9__gnu_cxx12_Lock_policyE2EE8_DeleterISaIS1_EEES8_LS5_2EE10_M_destroyEv
                0x0000000068a94534        0xc D:\projects\andrew-grechkin\LIB\libfar3\Release-x64-NoStr\liblibfar3.a(dialog_builder.o)
 .pdata$_ZNSt19_Sp_counted_deleterIPN3Far24SimpleDialogBuilder_implENSt12__shared_ptrIS1_LN9__gnu_cxx12_Lock_policyE2EE8_DeleterISaIS1_EEES8_LS5_2EE10_M_disposeEv
                0x0000000068a94540        0xc D:\projects\andrew-grechkin\LIB\libfar3\Release-x64-NoStr\liblibfar3.a(dialog_builder.o)
 .pdata$_ZNSt6vectorIN3Far15FarDialogItem_tESaIS1_EE19_M_emplace_back_auxIIS1_EEEvDpOT_
                0x0000000068a9454c        0xc D:\projects\andrew-grechkin\LIB\libfar3\Release-x64-NoStr\liblibfar3.a(dialog_builder.o)
 .pdata$_ZNSt6vectorIN3Far15FarDialogItem_tESaIS1_EE19_M_emplace_back_auxIIR18FARDIALOGITEMTYPESRPKwRyEEEvDpOT_
                0x0000000068a94558        0xc D:\projects\andrew-grechkin\LIB\libfar3\Release-x64-NoStr\liblibfar3.a(dialog_builder.o)
 .pdata         0x0000000068a94564        0xc D:\projects\andrew-grechkin\LIB\libfar3\Release-x64-NoStr\liblibfar3.a(create_label.o)
 .pdata         0x0000000068a94570       0x48 D:\projects\andrew-grechkin\LIB\libfar3\Release-x64-NoStr\liblibfar3.a(create_combobox.o)
 .pdata$_ZN3Far15ComboBoxBindingD1Ev
                0x0000000068a945b8        0xc D:\projects\andrew-grechkin\LIB\libfar3\Release-x64-NoStr\liblibfar3.a(create_combobox.o)
 .pdata$_ZN3Far15ComboBoxBindingD0Ev
                0x0000000068a945c4        0xc D:\projects\andrew-grechkin\LIB\libfar3\Release-x64-NoStr\liblibfar3.a(create_combobox.o)
 .pdata         0x0000000068a945d0        0xc D:\projects\andrew-grechkin\LIB\libfar3\Release-x64-NoStr\liblibfar3.a(create_separator.o)
 .pdata         0x0000000068a945dc       0x3c D:\projects\andrew-grechkin\LIB\libfar3\Release-x64-NoStr\liblibfar3.a(create_checkbox.o)
 .pdata$_ZN3Far15CheckBoxBindingD1Ev
                0x0000000068a94618        0xc D:\projects\andrew-grechkin\LIB\libfar3\Release-x64-NoStr\liblibfar3.a(create_checkbox.o)
 .pdata$_ZN3Far15CheckBoxBindingD0Ev
                0x0000000068a94624        0xc D:\projects\andrew-grechkin\LIB\libfar3\Release-x64-NoStr\liblibfar3.a(create_checkbox.o)
 .pdata         0x0000000068a94630       0x48 D:\projects\andrew-grechkin\LIB\libfar3\Release-x64-NoStr\liblibfar3.a(create_edit.o)
 .pdata$_ZN3Far22PluginEditFieldBindingD1Ev
                0x0000000068a94678        0xc D:\projects\andrew-grechkin\LIB\libfar3\Release-x64-NoStr\liblibfar3.a(create_edit.o)
 .pdata$_ZN3Far22PluginEditFieldBindingD0Ev
                0x0000000068a94684        0xc D:\projects\andrew-grechkin\LIB\libfar3\Release-x64-NoStr\liblibfar3.a(create_edit.o)
 .pdata         0x0000000068a94690       0x6c D:\projects\andrew-grechkin\LIB\libfar3\Release-x64-NoStr\liblibfar3.a(globalinfo_i.o)
 .pdata         0x0000000068a946fc       0x60 D:\projects\andrew-grechkin\LIB\libfar3\Release-x64-NoStr\liblibfar3.a(plugin_i.o)
 .pdata         0x0000000068a9475c       0xc0 D:\projects\andrew-grechkin\LIB\libfar3\Release-x64-NoStr\liblibfar3.a(settings.o)
 .pdata         0x0000000068a9481c       0x78 D:\projects\andrew-grechkin\LIB\libfar3\Release-x64-NoStr\liblibfar3.a(FarDialogItem.o)
 .pdata         0x0000000068a94894       0x30 D:\projects\andrew-grechkin\LIB\libfar3\Release-x64-NoStr\liblibfar3.a(DlgBuilder_c.o)
 .pdata$_ZN3Far24PluginRadioButtonBindingD1Ev
                0x0000000068a948c4        0xc D:\projects\andrew-grechkin\LIB\libfar3\Release-x64-NoStr\liblibfar3.a(DlgBuilder_c.o)
 .pdata$_ZN3Far24PluginRadioButtonBindingD0Ev
                0x0000000068a948d0        0xc D:\projects\andrew-grechkin\LIB\libfar3\Release-x64-NoStr\liblibfar3.a(DlgBuilder_c.o)
 .pdata         0x0000000068a948dc       0x78 D:\projects\andrew-grechkin\LIB\libfar3\Release-x64-NoStr\liblibfar3.a(DialogItemBinding.o)
 .pdata         0x0000000068a94954       0xcc D:\projects\andrew-grechkin\LIB\liblog\Release-x64-stub\libliblog.a(logger_stub.o)
 .pdata$_ZNK6Logger11Module_impl8get_nameEv
                0x0000000068a94a20        0xc D:\projects\andrew-grechkin\LIB\liblog\Release-x64-stub\libliblog.a(logger_stub.o)
 .pdata$_ZNK6Logger11Module_impl9get_levelEv
                0x0000000068a94a2c        0xc D:\projects\andrew-grechkin\LIB\liblog\Release-x64-stub\libliblog.a(logger_stub.o)
 .pdata$_ZNK6Logger11Module_impl10get_prefixEv
                0x0000000068a94a38        0xc D:\projects\andrew-grechkin\LIB\liblog\Release-x64-stub\libliblog.a(logger_stub.o)
 .pdata$_ZNK6Logger11Module_impl13is_color_modeEv
                0x0000000068a94a44        0xc D:\projects\andrew-grechkin\LIB\liblog\Release-x64-stub\libliblog.a(logger_stub.o)
 .pdata$_ZN6Logger11Module_impl9set_levelENS_5LevelE
                0x0000000068a94a50        0xc D:\projects\andrew-grechkin\LIB\liblog\Release-x64-stub\libliblog.a(logger_stub.o)
 .pdata$_ZN6Logger11Module_impl10set_prefixEy
                0x0000000068a94a5c        0xc D:\projects\andrew-grechkin\LIB\liblog\Release-x64-stub\libliblog.a(logger_stub.o)
 .pdata$_ZN6Logger11Module_impl14set_color_modeEb
                0x0000000068a94a68        0xc D:\projects\andrew-grechkin\LIB\liblog\Release-x64-stub\libliblog.a(logger_stub.o)
 .pdata$_ZN6Logger11Module_impl10set_targetERKSt10shared_ptrINS_8Target_iEE
                0x0000000068a94a74        0xc D:\projects\andrew-grechkin\LIB\liblog\Release-x64-stub\libliblog.a(logger_stub.o)
 .pdata$_ZN6Logger11Module_impl11set_enabledEb
                0x0000000068a94a80        0xc D:\projects\andrew-grechkin\LIB\liblog\Release-x64-stub\libliblog.a(logger_stub.o)
 .pdata$_ZNK6Logger11Module_impl3outEPKciS2_NS_5LevelEPKwz
                0x0000000068a94a8c        0xc D:\projects\andrew-grechkin\LIB\liblog\Release-x64-stub\libliblog.a(logger_stub.o)
 .pdata$_ZNK6Logger11Module_impl3outENS_5LevelEPKwz
                0x0000000068a94a98        0xc D:\projects\andrew-grechkin\LIB\liblog\Release-x64-stub\libliblog.a(logger_stub.o)
 .pdata$_ZNK6Logger11Module_impl10batch_lockEv
                0x0000000068a94aa4        0xc D:\projects\andrew-grechkin\LIB\liblog\Release-x64-stub\libliblog.a(logger_stub.o)
 .pdata$_ZNK6Logger11Module_impl12batch_unlockEv
                0x0000000068a94ab0        0xc D:\projects\andrew-grechkin\LIB\liblog\Release-x64-stub\libliblog.a(logger_stub.o)
 .pdata$_ZN6Logger11Module_implD1Ev
                0x0000000068a94abc        0xc D:\projects\andrew-grechkin\LIB\liblog\Release-x64-stub\libliblog.a(logger_stub.o)
 .pdata$_ZN6Logger11Module_implD0Ev
                0x0000000068a94ac8        0xc D:\projects\andrew-grechkin\LIB\liblog\Release-x64-stub\libliblog.a(logger_stub.o)
 .pdata         0x0000000068a94ad4       0x6c D:\projects\andrew-grechkin\LIB\liblog\Release-x64-stub\libliblog.a(target_null.o)
 .pdata$_ZNSt15_Sp_counted_ptrIPN6Logger9LogToNullELN9__gnu_cxx12_Lock_policyE2EED1Ev
                0x0000000068a94b40        0xc D:\projects\andrew-grechkin\LIB\liblog\Release-x64-stub\libliblog.a(target_null.o)
 .pdata$_ZNSt15_Sp_counted_ptrIPN6Logger9LogToNullELN9__gnu_cxx12_Lock_policyE2EE10_M_disposeEv
                0x0000000068a94b4c        0xc D:\projects\andrew-grechkin\LIB\liblog\Release-x64-stub\libliblog.a(target_null.o)
 .pdata$_ZNSt15_Sp_counted_ptrIPN6Logger9LogToNullELN9__gnu_cxx12_Lock_policyE2EE14_M_get_deleterERKSt9type_info
                0x0000000068a94b58        0xc D:\projects\andrew-grechkin\LIB\liblog\Release-x64-stub\libliblog.a(target_null.o)
 .pdata$_ZNSt15_Sp_counted_ptrIPN6Logger9LogToNullELN9__gnu_cxx12_Lock_policyE2EED0Ev
                0x0000000068a94b64        0xc D:\projects\andrew-grechkin\LIB\liblog\Release-x64-stub\libliblog.a(target_null.o)
 .pdata$_ZNSt15_Sp_counted_ptrIPN6Logger9LogToNullELN9__gnu_cxx12_Lock_policyE2EE10_M_destroyEv
                0x0000000068a94b70        0xc D:\projects\andrew-grechkin\LIB\liblog\Release-x64-stub\libliblog.a(target_null.o)
 .pdata         0x0000000068a94b7c       0x24 D:\projects\andrew-grechkin\LIB\libbase\Release-x64-NoStr\liblibbase.a(ref_cnt.o)
 .pdata         0x0000000068a94ba0       0x30 D:\projects\andrew-grechkin\LIB\libbase\Release-x64-NoStr\liblibbase.a(new_delete.o)
 .pdata         0x0000000068a94bd0       0x54 D:\projects\andrew-grechkin\LIB\libbase\Release-x64-NoStr\liblibbase.a(crt.o)
 .pdata         0x0000000068a94c24        0xc c:/mingw/bin/../lib/gcc/x86_64-w64-mingw32/4.8.1/../../../../x86_64-w64-mingw32/lib/../lib\libmingwex.a(lib64_libmingwex_a-wcstold.o)
 .pdata         0x0000000068a94c30       0x18 c:/mingw/bin/../lib/gcc/x86_64-w64-mingw32/4.8.1/../../../../x86_64-w64-mingw32/lib/../lib\libmingwex.a(lib64_libmingwex_a-strtold.o)
 .pdata         0x0000000068a94c48       0x9c c:/mingw/bin/../lib/gcc/x86_64-w64-mingw32/4.8.1/../../../../x86_64-w64-mingw32/lib/../lib\libmingwex.a(lib64_libmingwex_a-cephes_emath.o)

.xdata          0x0000000068a95000      0xa00
 *(.xdata*)
 .xdata         0x0000000068a95000       0xb8 src\process.o
 .xdata$_ZN4Base12basic_stringIwNS_11char_traitsIwEEE11string_implD1Ev
                0x0000000068a950b8        0x4 src\process.o
 .xdata$_ZN4Base12basic_stringIwNS_11char_traitsIwEEE11string_implD0Ev
                0x0000000068a950bc        0x8 src\process.o
 .xdata$_ZNK4Base12basic_stringIwNS_11char_traitsIwEEE11string_impl10deallocateEv
                0x0000000068a950c4        0x8 src\process.o
 .xdata$_Z16InsertFromVectorISt16reverse_iteratorIN9__gnu_cxx17__normal_iteratorIP8SortInfoSt6vectorIS3_SaIS3_EEEEEEvRKS5_I10StringInfoSaISA_EET_SF_
                0x0000000068a950cc       0x1c src\process.o
 .xdata$_Z16InsertFromVectorIN9__gnu_cxx17__normal_iteratorIP8SortInfoSt6vectorIS2_SaIS2_EEEEEvRKS4_I10StringInfoSaIS8_EET_SD_
                0x0000000068a950e8       0x1c src\process.o
 .xdata$_ZNSt6vectorI10StringInfoSaIS0_EE19_M_emplace_back_auxIIR15EditorGetStringRP13FarGlobalInfoEEEvDpOT_
                0x0000000068a95104       0x18 src\process.o
 .xdata$_ZNSt6vectorI8SortInfoSaIS0_EE19_M_emplace_back_auxIIR10StringInfoRP13FarGlobalInfoEEEvDpOT_
                0x0000000068a9511c       0x18 src\process.o
 .xdata$_ZSt25__unguarded_linear_insertIN9__gnu_cxx17__normal_iteratorIP8SortInfoSt6vectorIS2_SaIS2_EEEESt26pointer_to_binary_functionIRKS2_SA_bEEvT_T0_
                0x0000000068a95134       0x10 src\process.o
 .xdata$_ZSt16__insertion_sortIN9__gnu_cxx17__normal_iteratorIP8SortInfoSt6vectorIS2_SaIS2_EEEESt26pointer_to_binary_functionIRKS2_SA_bEEvT_SC_T0_
                0x0000000068a95144       0x14 src\process.o
 .xdata$_ZSt13__adjust_heapIN9__gnu_cxx17__normal_iteratorIP8SortInfoSt6vectorIS2_SaIS2_EEEExS2_St26pointer_to_binary_functionIRKS2_SA_bEEvT_T0_SD_T1_T2_
                0x0000000068a95158       0x18 src\process.o
 .xdata$_ZSt16__introsort_loopIN9__gnu_cxx17__normal_iteratorIP8SortInfoSt6vectorIS2_SaIS2_EEEExSt26pointer_to_binary_functionIRKS2_SA_bEEvT_SC_T0_T1_
                0x0000000068a95170       0x18 src\process.o
 .xdata         0x0000000068a95188       0x4c src\main.o
 .xdata         0x0000000068a951d4       0x6c src\globalinfo.o
 .xdata         0x0000000068a95240       0x38 src\farplugin.o
 .xdata         0x0000000068a95278       0x74 D:\projects\andrew-grechkin\LIB\libfar3\Release-x64-NoStr\liblibfar3.a(editor.o)
 .xdata         0x0000000068a952ec       0x10 D:\projects\andrew-grechkin\LIB\libfar3\Release-x64-NoStr\liblibfar3.a(message.o)
 .xdata         0x0000000068a952fc      0x160 D:\projects\andrew-grechkin\LIB\libfar3\Release-x64-NoStr\liblibfar3.a(dialog_builder.o)
 .xdata$_ZNSt16_Sp_counted_baseILN9__gnu_cxx12_Lock_policyE2EE10_M_destroyEv
                0x0000000068a9545c        0x4 D:\projects\andrew-grechkin\LIB\libfar3\Release-x64-NoStr\liblibfar3.a(dialog_builder.o)
 .xdata$_ZNSt16_Sp_counted_baseILN9__gnu_cxx12_Lock_policyE2EED1Ev
                0x0000000068a95460        0x4 D:\projects\andrew-grechkin\LIB\libfar3\Release-x64-NoStr\liblibfar3.a(dialog_builder.o)
 .xdata$_ZNSt19_Sp_counted_deleterIPN3Far24SimpleDialogBuilder_implENSt12__shared_ptrIS1_LN9__gnu_cxx12_Lock_policyE2EE8_DeleterISaIS1_EEES8_LS5_2EED1Ev
                0x0000000068a95464        0x4 D:\projects\andrew-grechkin\LIB\libfar3\Release-x64-NoStr\liblibfar3.a(dialog_builder.o)
 .xdata$_ZNSt19_Sp_counted_deleterIPN3Far24SimpleDialogBuilder_implENSt12__shared_ptrIS1_LN9__gnu_cxx12_Lock_policyE2EE8_DeleterISaIS1_EEES8_LS5_2EE14_M_get_deleterERKSt9type_info
                0x0000000068a95468        0x4 D:\projects\andrew-grechkin\LIB\libfar3\Release-x64-NoStr\liblibfar3.a(dialog_builder.o)
 .xdata$_ZNSt16_Sp_counted_baseILN9__gnu_cxx12_Lock_policyE2EED0Ev
                0x0000000068a9546c        0x4 D:\projects\andrew-grechkin\LIB\libfar3\Release-x64-NoStr\liblibfar3.a(dialog_builder.o)
 .xdata$_ZNSt19_Sp_counted_deleterIPN3Far24SimpleDialogBuilder_implENSt12__shared_ptrIS1_LN9__gnu_cxx12_Lock_policyE2EE8_DeleterISaIS1_EEES8_LS5_2EED0Ev
                0x0000000068a95470        0x4 D:\projects\andrew-grechkin\LIB\libfar3\Release-x64-NoStr\liblibfar3.a(dialog_builder.o)
 .xdata$_ZNSt19_Sp_counted_deleterIPN3Far24SimpleDialogBuilder_implENSt12__shared_ptrIS1_LN9__gnu_cxx12_Lock_policyE2EE8_DeleterISaIS1_EEES8_LS5_2EE10_M_destroyEv
                0x0000000068a95474        0x4 D:\projects\andrew-grechkin\LIB\libfar3\Release-x64-NoStr\liblibfar3.a(dialog_builder.o)
 .xdata$_ZNSt19_Sp_counted_deleterIPN3Far24SimpleDialogBuilder_implENSt12__shared_ptrIS1_LN9__gnu_cxx12_Lock_policyE2EE8_DeleterISaIS1_EEES8_LS5_2EE10_M_disposeEv
                0x0000000068a95478        0x8 D:\projects\andrew-grechkin\LIB\libfar3\Release-x64-NoStr\liblibfar3.a(dialog_builder.o)
 .xdata$_ZNSt6vectorIN3Far15FarDialogItem_tESaIS1_EE19_M_emplace_back_auxIIS1_EEEvDpOT_
                0x0000000068a95480       0x14 D:\projects\andrew-grechkin\LIB\libfar3\Release-x64-NoStr\liblibfar3.a(dialog_builder.o)
 .xdata$_ZNSt6vectorIN3Far15FarDialogItem_tESaIS1_EE19_M_emplace_back_auxIIR18FARDIALOGITEMTYPESRPKwRyEEEvDpOT_
                0x0000000068a95494       0x14 D:\projects\andrew-grechkin\LIB\libfar3\Release-x64-NoStr\liblibfar3.a(dialog_builder.o)
 .xdata         0x0000000068a954a8        0xc D:\projects\andrew-grechkin\LIB\libfar3\Release-x64-NoStr\liblibfar3.a(create_label.o)
 .xdata         0x0000000068a954b4       0x3c D:\projects\andrew-grechkin\LIB\libfar3\Release-x64-NoStr\liblibfar3.a(create_combobox.o)
 .xdata$_ZN3Far15ComboBoxBindingD1Ev
                0x0000000068a954f0        0x4 D:\projects\andrew-grechkin\LIB\libfar3\Release-x64-NoStr\liblibfar3.a(create_combobox.o)
 .xdata$_ZN3Far15ComboBoxBindingD0Ev
                0x0000000068a954f4        0x8 D:\projects\andrew-grechkin\LIB\libfar3\Release-x64-NoStr\liblibfar3.a(create_combobox.o)
 .xdata         0x0000000068a954fc        0xc D:\projects\andrew-grechkin\LIB\libfar3\Release-x64-NoStr\liblibfar3.a(create_separator.o)
 .xdata         0x0000000068a95508       0x2c D:\projects\andrew-grechkin\LIB\libfar3\Release-x64-NoStr\liblibfar3.a(create_checkbox.o)
 .xdata$_ZN3Far15CheckBoxBindingD1Ev
                0x0000000068a95534        0x4 D:\projects\andrew-grechkin\LIB\libfar3\Release-x64-NoStr\liblibfar3.a(create_checkbox.o)
 .xdata$_ZN3Far15CheckBoxBindingD0Ev
                0x0000000068a95538        0x8 D:\projects\andrew-grechkin\LIB\libfar3\Release-x64-NoStr\liblibfar3.a(create_checkbox.o)
 .xdata         0x0000000068a95540       0x4c D:\projects\andrew-grechkin\LIB\libfar3\Release-x64-NoStr\liblibfar3.a(create_edit.o)
 .xdata$_ZN3Far22PluginEditFieldBindingD1Ev
                0x0000000068a9558c        0x4 D:\projects\andrew-grechkin\LIB\libfar3\Release-x64-NoStr\liblibfar3.a(create_edit.o)
 .xdata$_ZN3Far22PluginEditFieldBindingD0Ev
                0x0000000068a95590        0x8 D:\projects\andrew-grechkin\LIB\libfar3\Release-x64-NoStr\liblibfar3.a(create_edit.o)
 .xdata         0x0000000068a95598       0x4c D:\projects\andrew-grechkin\LIB\libfar3\Release-x64-NoStr\liblibfar3.a(globalinfo_i.o)
 .xdata         0x0000000068a955e4       0x4c D:\projects\andrew-grechkin\LIB\libfar3\Release-x64-NoStr\liblibfar3.a(plugin_i.o)
 .xdata         0x0000000068a95630      0x104 D:\projects\andrew-grechkin\LIB\libfar3\Release-x64-NoStr\liblibfar3.a(settings.o)
 .xdata         0x0000000068a95734       0x58 D:\projects\andrew-grechkin\LIB\libfar3\Release-x64-NoStr\liblibfar3.a(FarDialogItem.o)
 .xdata         0x0000000068a9578c       0x18 D:\projects\andrew-grechkin\LIB\libfar3\Release-x64-NoStr\liblibfar3.a(DlgBuilder_c.o)
 .xdata$_ZN3Far24PluginRadioButtonBindingD1Ev
                0x0000000068a957a4        0x4 D:\projects\andrew-grechkin\LIB\libfar3\Release-x64-NoStr\liblibfar3.a(DlgBuilder_c.o)
 .xdata$_ZN3Far24PluginRadioButtonBindingD0Ev
                0x0000000068a957a8        0x8 D:\projects\andrew-grechkin\LIB\libfar3\Release-x64-NoStr\liblibfar3.a(DlgBuilder_c.o)
 .xdata         0x0000000068a957b0       0x28 D:\projects\andrew-grechkin\LIB\libfar3\Release-x64-NoStr\liblibfar3.a(DialogItemBinding.o)
 .xdata         0x0000000068a957d8       0x60 D:\projects\andrew-grechkin\LIB\liblog\Release-x64-stub\libliblog.a(logger_stub.o)
 .xdata$_ZNK6Logger11Module_impl8get_nameEv
                0x0000000068a95838        0x4 D:\projects\andrew-grechkin\LIB\liblog\Release-x64-stub\libliblog.a(logger_stub.o)
 .xdata$_ZNK6Logger11Module_impl9get_levelEv
                0x0000000068a9583c        0x4 D:\projects\andrew-grechkin\LIB\liblog\Release-x64-stub\libliblog.a(logger_stub.o)
 .xdata$_ZNK6Logger11Module_impl10get_prefixEv
                0x0000000068a95840        0x4 D:\projects\andrew-grechkin\LIB\liblog\Release-x64-stub\libliblog.a(logger_stub.o)
 .xdata$_ZNK6Logger11Module_impl13is_color_modeEv
                0x0000000068a95844        0x4 D:\projects\andrew-grechkin\LIB\liblog\Release-x64-stub\libliblog.a(logger_stub.o)
 .xdata$_ZN6Logger11Module_impl9set_levelENS_5LevelE
                0x0000000068a95848        0x4 D:\projects\andrew-grechkin\LIB\liblog\Release-x64-stub\libliblog.a(logger_stub.o)
 .xdata$_ZN6Logger11Module_impl10set_prefixEy
                0x0000000068a9584c        0x4 D:\projects\andrew-grechkin\LIB\liblog\Release-x64-stub\libliblog.a(logger_stub.o)
 .xdata$_ZN6Logger11Module_impl14set_color_modeEb
                0x0000000068a95850        0x4 D:\projects\andrew-grechkin\LIB\liblog\Release-x64-stub\libliblog.a(logger_stub.o)
 .xdata$_ZN6Logger11Module_impl10set_targetERKSt10shared_ptrINS_8Target_iEE
                0x0000000068a95854        0x4 D:\projects\andrew-grechkin\LIB\liblog\Release-x64-stub\libliblog.a(logger_stub.o)
 .xdata$_ZN6Logger11Module_impl11set_enabledEb
                0x0000000068a95858        0x4 D:\projects\andrew-grechkin\LIB\liblog\Release-x64-stub\libliblog.a(logger_stub.o)
 .xdata$_ZNK6Logger11Module_impl3outEPKciS2_NS_5LevelEPKwz
                0x0000000068a9585c        0x4 D:\projects\andrew-grechkin\LIB\liblog\Release-x64-stub\libliblog.a(logger_stub.o)
 .xdata$_ZNK6Logger11Module_impl3outENS_5LevelEPKwz
                0x0000000068a95860        0x4 D:\projects\andrew-grechkin\LIB\liblog\Release-x64-stub\libliblog.a(logger_stub.o)
 .xdata$_ZNK6Logger11Module_impl10batch_lockEv
                0x0000000068a95864        0x4 D:\projects\andrew-grechkin\LIB\liblog\Release-x64-stub\libliblog.a(logger_stub.o)
 .xdata$_ZNK6Logger11Module_impl12batch_unlockEv
                0x0000000068a95868        0x4 D:\projects\andrew-grechkin\LIB\liblog\Release-x64-stub\libliblog.a(logger_stub.o)
 .xdata$_ZN6Logger11Module_implD1Ev
                0x0000000068a9586c        0x4 D:\projects\andrew-grechkin\LIB\liblog\Release-x64-stub\libliblog.a(logger_stub.o)
 .xdata$_ZN6Logger11Module_implD0Ev
                0x0000000068a95870        0x4 D:\projects\andrew-grechkin\LIB\liblog\Release-x64-stub\libliblog.a(logger_stub.o)
 .xdata         0x0000000068a95874       0x34 D:\projects\andrew-grechkin\LIB\liblog\Release-x64-stub\libliblog.a(target_null.o)
 .xdata$_ZNSt15_Sp_counted_ptrIPN6Logger9LogToNullELN9__gnu_cxx12_Lock_policyE2EED1Ev
                0x0000000068a958a8        0x4 D:\projects\andrew-grechkin\LIB\liblog\Release-x64-stub\libliblog.a(target_null.o)
 .xdata$_ZNSt15_Sp_counted_ptrIPN6Logger9LogToNullELN9__gnu_cxx12_Lock_policyE2EE10_M_disposeEv
                0x0000000068a958ac        0x4 D:\projects\andrew-grechkin\LIB\liblog\Release-x64-stub\libliblog.a(target_null.o)
 .xdata$_ZNSt15_Sp_counted_ptrIPN6Logger9LogToNullELN9__gnu_cxx12_Lock_policyE2EE14_M_get_deleterERKSt9type_info
                0x0000000068a958b0        0x4 D:\projects\andrew-grechkin\LIB\liblog\Release-x64-stub\libliblog.a(target_null.o)
 .xdata$_ZNSt15_Sp_counted_ptrIPN6Logger9LogToNullELN9__gnu_cxx12_Lock_policyE2EED0Ev
                0x0000000068a958b4        0x4 D:\projects\andrew-grechkin\LIB\liblog\Release-x64-stub\libliblog.a(target_null.o)
 .xdata$_ZNSt15_Sp_counted_ptrIPN6Logger9LogToNullELN9__gnu_cxx12_Lock_policyE2EE10_M_destroyEv
                0x0000000068a958b8        0x4 D:\projects\andrew-grechkin\LIB\liblog\Release-x64-stub\libliblog.a(target_null.o)
 .xdata         0x0000000068a958bc        0xc D:\projects\andrew-grechkin\LIB\libbase\Release-x64-NoStr\liblibbase.a(ref_cnt.o)
 .xdata         0x0000000068a958c8       0x20 D:\projects\andrew-grechkin\LIB\libbase\Release-x64-NoStr\liblibbase.a(new_delete.o)
 .xdata         0x0000000068a958e8       0x38 D:\projects\andrew-grechkin\LIB\libbase\Release-x64-NoStr\liblibbase.a(crt.o)
 .xdata         0x0000000068a95920       0x18 c:/mingw/bin/../lib/gcc/x86_64-w64-mingw32/4.8.1/../../../../x86_64-w64-mingw32/lib/../lib\libmingwex.a(lib64_libmingwex_a-wcstold.o)
 .xdata         0x0000000068a95938       0x24 c:/mingw/bin/../lib/gcc/x86_64-w64-mingw32/4.8.1/../../../../x86_64-w64-mingw32/lib/../lib\libmingwex.a(lib64_libmingwex_a-strtold.o)
 .xdata         0x0000000068a9595c       0x94 c:/mingw/bin/../lib/gcc/x86_64-w64-mingw32/4.8.1/../../../../x86_64-w64-mingw32/lib/../lib\libmingwex.a(lib64_libmingwex_a-cephes_emath.o)

.bss            0x0000000068a96000      0x1a0
                0x0000000068a96000                __bss_start__ = .
 *(.bss)
 .bss           0x0000000068a96000        0x0 src\process.o
 .bss           0x0000000068a96000        0x0 src\main.o
 .bss           0x0000000068a96000        0x0 src\guid.o
 .bss           0x0000000068a96000        0x0 src\globalinfo.o
 .bss           0x0000000068a96000       0x30 src\farplugin.o
 .bss           0x0000000068a96030        0x0 D:\projects\andrew-grechkin\LIB\libfar3\Release-x64-NoStr\liblibfar3.a(editor.o)
 .bss           0x0000000068a96030        0x0 D:\projects\andrew-grechkin\LIB\libfar3\Release-x64-NoStr\liblibfar3.a(message.o)
 .bss           0x0000000068a96030        0x0 D:\projects\andrew-grechkin\LIB\libfar3\Release-x64-NoStr\liblibfar3.a(dialog_builder.o)
 .bss           0x0000000068a96030        0x0 D:\projects\andrew-grechkin\LIB\libfar3\Release-x64-NoStr\liblibfar3.a(create_label.o)
 .bss           0x0000000068a96030        0x0 D:\projects\andrew-grechkin\LIB\libfar3\Release-x64-NoStr\liblibfar3.a(create_combobox.o)
 .bss           0x0000000068a96030        0x0 D:\projects\andrew-grechkin\LIB\libfar3\Release-x64-NoStr\liblibfar3.a(create_separator.o)
 .bss           0x0000000068a96030        0x0 D:\projects\andrew-grechkin\LIB\libfar3\Release-x64-NoStr\liblibfar3.a(create_checkbox.o)
 .bss           0x0000000068a96030        0x0 D:\projects\andrew-grechkin\LIB\libfar3\Release-x64-NoStr\liblibfar3.a(create_edit.o)
 .bss           0x0000000068a96030        0x0 D:\projects\andrew-grechkin\LIB\libfar3\Release-x64-NoStr\liblibfar3.a(globalinfo_i.o)
 .bss           0x0000000068a96030        0x0 D:\projects\andrew-grechkin\LIB\libfar3\Release-x64-NoStr\liblibfar3.a(plugin_i.o)
 .bss           0x0000000068a96030        0x0 D:\projects\andrew-grechkin\LIB\libfar3\Release-x64-NoStr\liblibfar3.a(settings.o)
 .bss           0x0000000068a96030        0x0 D:\projects\andrew-grechkin\LIB\libfar3\Release-x64-NoStr\liblibfar3.a(FarDialogItem.o)
 .bss           0x0000000068a96030        0x0 D:\projects\andrew-grechkin\LIB\libfar3\Release-x64-NoStr\liblibfar3.a(DlgBuilder_c.o)
 .bss           0x0000000068a96030        0x0 D:\projects\andrew-grechkin\LIB\libfar3\Release-x64-NoStr\liblibfar3.a(DialogItemBinding.o)
 .bss           0x0000000068a96030        0x0 D:\projects\andrew-grechkin\LIB\liblog\Release-x64-stub\libliblog.a(logger_stub.o)
 .bss           0x0000000068a96030       0x20 D:\projects\andrew-grechkin\LIB\liblog\Release-x64-stub\libliblog.a(target_null.o)
 .bss           0x0000000068a96050        0x0 D:\projects\andrew-grechkin\LIB\libbase\Release-x64-NoStr\liblibbase.a(ref_cnt.o)
 .bss           0x0000000068a96050        0x0 D:\projects\andrew-grechkin\LIB\libbase\Release-x64-NoStr\liblibbase.a(new_delete.o)
 *fill*         0x0000000068a96050       0x10 
 .bss           0x0000000068a96060      0x120 D:\projects\andrew-grechkin\LIB\libbase\Release-x64-NoStr\liblibbase.a(crt.o)
                0x0000000068a96060                Base::pf_atexitlist
                0x0000000068a96160                Base::atexit_index
 .bss           0x0000000068a96180        0x0 c:/mingw/bin/../lib/gcc/x86_64-w64-mingw32/4.8.1\libgcc.a(_ctors.o)
 .bss           0x0000000068a96180        0x0 c:/mingw/bin/../lib/gcc/x86_64-w64-mingw32/4.8.1/../../../../x86_64-w64-mingw32/lib/../lib\libmingwex.a(lib64_libmingwex_a-wcstold.o)
 .bss           0x0000000068a96180        0x0 c:/mingw/bin/../lib/gcc/x86_64-w64-mingw32/4.8.1/../../../../x86_64-w64-mingw32/lib/../lib\libmingwex.a(lib64_libmingwex_a-strtold.o)
 .bss           0x0000000068a96180        0x0 c:/mingw/bin/../lib/gcc/x86_64-w64-mingw32/4.8.1/../../../../x86_64-w64-mingw32/lib/../lib\libmingwex.a(lib64_libmingwex_a-cephes_emath.o)
 .bss           0x0000000068a96180        0x0 c:/mingw/bin/../lib/gcc/x86_64-w64-mingw32/4.8.1/../../../../x86_64-w64-mingw32/lib/../lib\libntdll.a(dyubbs02011.o)
 .bss           0x0000000068a96180        0x0 c:/mingw/bin/../lib/gcc/x86_64-w64-mingw32/4.8.1/../../../../x86_64-w64-mingw32/lib/../lib\libntdll.a(dyubbs02010.o)
 .bss           0x0000000068a96180        0x0 c:/mingw/bin/../lib/gcc/x86_64-w64-mingw32/4.8.1/../../../../x86_64-w64-mingw32/lib/../lib\libntdll.a(dyubbs01961.o)
 .bss           0x0000000068a96180        0x0 c:/mingw/bin/../lib/gcc/x86_64-w64-mingw32/4.8.1/../../../../x86_64-w64-mingw32/lib/../lib\libntdll.a(dyubbs02015.o)
 .bss           0x0000000068a96180        0x0 c:/mingw/bin/../lib/gcc/x86_64-w64-mingw32/4.8.1/../../../../x86_64-w64-mingw32/lib/../lib\libntdll.a(dyubbs02014.o)
 .bss           0x0000000068a96180        0x0 c:/mingw/bin/../lib/gcc/x86_64-w64-mingw32/4.8.1/../../../../x86_64-w64-mingw32/lib/../lib\libntdll.a(dyubbs02019.o)
 .bss           0x0000000068a96180        0x0 c:/mingw/bin/../lib/gcc/x86_64-w64-mingw32/4.8.1/../../../../x86_64-w64-mingw32/lib/../lib\libntdll.a(dyubbs01981.o)
 .bss           0x0000000068a96180        0x0 c:/mingw/bin/../lib/gcc/x86_64-w64-mingw32/4.8.1/../../../../x86_64-w64-mingw32/lib/../lib\libntdll.a(dyubbs01946.o)
 .bss           0x0000000068a96180        0x0 c:/mingw/bin/../lib/gcc/x86_64-w64-mingw32/4.8.1/../../../../x86_64-w64-mingw32/lib/../lib\libntdll.a(dyubbs01896.o)
 .bss           0x0000000068a96180        0x0 c:/mingw/bin/../lib/gcc/x86_64-w64-mingw32/4.8.1/../../../../x86_64-w64-mingw32/lib/../lib\libntdll.a(dyubbh.o)
 .bss           0x0000000068a96180        0x0 c:/mingw/bin/../lib/gcc/x86_64-w64-mingw32/4.8.1/../../../../x86_64-w64-mingw32/lib/../lib\libntdll.a(dyubbt.o)
 .bss           0x0000000068a96180        0x0 c:/mingw/bin/../lib/gcc/x86_64-w64-mingw32/4.8.1/../../../../x86_64-w64-mingw32/lib/../lib\libmsvcrt.a(dqows00092.o)
 .bss           0x0000000068a96180        0x0 c:/mingw/bin/../lib/gcc/x86_64-w64-mingw32/4.8.1/../../../../x86_64-w64-mingw32/lib/../lib\libmsvcrt.a(dqows00063.o)
 .bss           0x0000000068a96180        0x0 c:/mingw/bin/../lib/gcc/x86_64-w64-mingw32/4.8.1/../../../../x86_64-w64-mingw32/lib/../lib\libmsvcrt.a(dqows01137.o)
 .bss           0x0000000068a96180        0x0 c:/mingw/bin/../lib/gcc/x86_64-w64-mingw32/4.8.1/../../../../x86_64-w64-mingw32/lib/../lib\libmsvcrt.a(dqows00508.o)
 .bss           0x0000000068a96180        0x0 c:/mingw/bin/../lib/gcc/x86_64-w64-mingw32/4.8.1/../../../../x86_64-w64-mingw32/lib/../lib\libmsvcrt.a(dqows01079.o)
 .bss           0x0000000068a96180        0x0 c:/mingw/bin/../lib/gcc/x86_64-w64-mingw32/4.8.1/../../../../x86_64-w64-mingw32/lib/../lib\libmsvcrt.a(dqows01130.o)
 .bss           0x0000000068a96180        0x0 c:/mingw/bin/../lib/gcc/x86_64-w64-mingw32/4.8.1/../../../../x86_64-w64-mingw32/lib/../lib\libmsvcrt.a(dqows00201.o)
 .bss           0x0000000068a96180        0x0 c:/mingw/bin/../lib/gcc/x86_64-w64-mingw32/4.8.1/../../../../x86_64-w64-mingw32/lib/../lib\libmsvcrt.a(dqowh.o)
 .bss           0x0000000068a96180        0x0 c:/mingw/bin/../lib/gcc/x86_64-w64-mingw32/4.8.1/../../../../x86_64-w64-mingw32/lib/../lib\libmsvcrt.a(dqowt.o)
 .bss           0x0000000068a96180        0x0 c:/mingw/bin/../lib/gcc/x86_64-w64-mingw32/4.8.1/../../../../x86_64-w64-mingw32/lib/../lib\libkernel32.a(dspqs00103.o)
 .bss           0x0000000068a96180        0x0 c:/mingw/bin/../lib/gcc/x86_64-w64-mingw32/4.8.1/../../../../x86_64-w64-mingw32/lib/../lib\libkernel32.a(dspqs00603.o)
 .bss           0x0000000068a96180        0x0 c:/mingw/bin/../lib/gcc/x86_64-w64-mingw32/4.8.1/../../../../x86_64-w64-mingw32/lib/../lib\libkernel32.a(dspqs00740.o)
 .bss           0x0000000068a96180        0x0 c:/mingw/bin/../lib/gcc/x86_64-w64-mingw32/4.8.1/../../../../x86_64-w64-mingw32/lib/../lib\libkernel32.a(dspqs00734.o)
 .bss           0x0000000068a96180        0x0 c:/mingw/bin/../lib/gcc/x86_64-w64-mingw32/4.8.1/../../../../x86_64-w64-mingw32/lib/../lib\libkernel32.a(dspqs00744.o)
 .bss           0x0000000068a96180        0x0 c:/mingw/bin/../lib/gcc/x86_64-w64-mingw32/4.8.1/../../../../x86_64-w64-mingw32/lib/../lib\libkernel32.a(dspqs01358.o)
 .bss           0x0000000068a96180        0x0 c:/mingw/bin/../lib/gcc/x86_64-w64-mingw32/4.8.1/../../../../x86_64-w64-mingw32/lib/../lib\libkernel32.a(dspqs01355.o)
 .bss           0x0000000068a96180        0x0 c:/mingw/bin/../lib/gcc/x86_64-w64-mingw32/4.8.1/../../../../x86_64-w64-mingw32/lib/../lib\libkernel32.a(dspqs01294.o)
 .bss           0x0000000068a96180        0x0 c:/mingw/bin/../lib/gcc/x86_64-w64-mingw32/4.8.1/../../../../x86_64-w64-mingw32/lib/../lib\libkernel32.a(dspqh.o)
 .bss           0x0000000068a96180        0x0 c:/mingw/bin/../lib/gcc/x86_64-w64-mingw32/4.8.1/../../../../x86_64-w64-mingw32/lib/../lib\libkernel32.a(dspqt.o)
 *(COMMON)
 COMMON         0x0000000068a96180       0x20 c:/mingw/bin/../lib/gcc/x86_64-w64-mingw32/4.8.1\libgcc.a(_ctors.o)
                0x0000000068a961a0                __bss_end__ = .

.edata          0x0000000068a97000      0x200
 *(.edata)
 .edata         0x0000000068a97000       0xbc dll stuff

/DISCARD/
 *(.debug$S)
 *(.debug$T)
 *(.debug$F)
 *(.drectve)
 *(.note.GNU-stack)
 *(.gnu.lto_*)

.idata          0x0000000068a98000      0x400
 SORT(*)(.idata$2)
 .idata$2       0x0000000068a98000       0x14 c:/mingw/bin/../lib/gcc/x86_64-w64-mingw32/4.8.1/../../../../x86_64-w64-mingw32/lib/../lib\libkernel32.a(dspqh.o)
                0x0000000068a98000                _head_lib64_libkernel32_a
 .idata$2       0x0000000068a98014       0x14 c:/mingw/bin/../lib/gcc/x86_64-w64-mingw32/4.8.1/../../../../x86_64-w64-mingw32/lib/../lib\libmsvcrt.a(dqowh.o)
                0x0000000068a98014                _head_lib64_libmsvcrt_a
 .idata$2       0x0000000068a98028       0x14 c:/mingw/bin/../lib/gcc/x86_64-w64-mingw32/4.8.1/../../../../x86_64-w64-mingw32/lib/../lib\libntdll.a(dyubbh.o)
                0x0000000068a98028                _head_lib64_libntdll_a
 SORT(*)(.idata$3)
                0x0000000068a9803c        0x4 LONG 0x0
                0x0000000068a98040        0x4 LONG 0x0
                0x0000000068a98044        0x4 LONG 0x0
                0x0000000068a98048        0x4 LONG 0x0
                0x0000000068a9804c        0x4 LONG 0x0
 SORT(*)(.idata$4)
 .idata$4       0x0000000068a98050        0x0 c:/mingw/bin/../lib/gcc/x86_64-w64-mingw32/4.8.1/../../../../x86_64-w64-mingw32/lib/../lib\libkernel32.a(dspqh.o)
 .idata$4       0x0000000068a98050        0x8 c:/mingw/bin/../lib/gcc/x86_64-w64-mingw32/4.8.1/../../../../x86_64-w64-mingw32/lib/../lib\libkernel32.a(dspqs00103.o)
 .idata$4       0x0000000068a98058        0x8 c:/mingw/bin/../lib/gcc/x86_64-w64-mingw32/4.8.1/../../../../x86_64-w64-mingw32/lib/../lib\libkernel32.a(dspqs00603.o)
 .idata$4       0x0000000068a98060        0x8 c:/mingw/bin/../lib/gcc/x86_64-w64-mingw32/4.8.1/../../../../x86_64-w64-mingw32/lib/../lib\libkernel32.a(dspqs00734.o)
 .idata$4       0x0000000068a98068        0x8 c:/mingw/bin/../lib/gcc/x86_64-w64-mingw32/4.8.1/../../../../x86_64-w64-mingw32/lib/../lib\libkernel32.a(dspqs00740.o)
 .idata$4       0x0000000068a98070        0x8 c:/mingw/bin/../lib/gcc/x86_64-w64-mingw32/4.8.1/../../../../x86_64-w64-mingw32/lib/../lib\libkernel32.a(dspqs00744.o)
 .idata$4       0x0000000068a98078        0x8 c:/mingw/bin/../lib/gcc/x86_64-w64-mingw32/4.8.1/../../../../x86_64-w64-mingw32/lib/../lib\libkernel32.a(dspqs01294.o)
 .idata$4       0x0000000068a98080        0x8 c:/mingw/bin/../lib/gcc/x86_64-w64-mingw32/4.8.1/../../../../x86_64-w64-mingw32/lib/../lib\libkernel32.a(dspqs01355.o)
 .idata$4       0x0000000068a98088        0x8 c:/mingw/bin/../lib/gcc/x86_64-w64-mingw32/4.8.1/../../../../x86_64-w64-mingw32/lib/../lib\libkernel32.a(dspqs01358.o)
 .idata$4       0x0000000068a98090        0x8 c:/mingw/bin/../lib/gcc/x86_64-w64-mingw32/4.8.1/../../../../x86_64-w64-mingw32/lib/../lib\libkernel32.a(dspqt.o)
 .idata$4       0x0000000068a98098        0x0 c:/mingw/bin/../lib/gcc/x86_64-w64-mingw32/4.8.1/../../../../x86_64-w64-mingw32/lib/../lib\libmsvcrt.a(dqowh.o)
 .idata$4       0x0000000068a98098        0x8 c:/mingw/bin/../lib/gcc/x86_64-w64-mingw32/4.8.1/../../../../x86_64-w64-mingw32/lib/../lib\libmsvcrt.a(dqows00063.o)
 .idata$4       0x0000000068a980a0        0x8 c:/mingw/bin/../lib/gcc/x86_64-w64-mingw32/4.8.1/../../../../x86_64-w64-mingw32/lib/../lib\libmsvcrt.a(dqows00092.o)
 .idata$4       0x0000000068a980a8        0x8 c:/mingw/bin/../lib/gcc/x86_64-w64-mingw32/4.8.1/../../../../x86_64-w64-mingw32/lib/../lib\libmsvcrt.a(dqows00201.o)
 .idata$4       0x0000000068a980b0        0x8 c:/mingw/bin/../lib/gcc/x86_64-w64-mingw32/4.8.1/../../../../x86_64-w64-mingw32/lib/../lib\libmsvcrt.a(dqows00508.o)
 .idata$4       0x0000000068a980b8        0x8 c:/mingw/bin/../lib/gcc/x86_64-w64-mingw32/4.8.1/../../../../x86_64-w64-mingw32/lib/../lib\libmsvcrt.a(dqows01079.o)
 .idata$4       0x0000000068a980c0        0x8 c:/mingw/bin/../lib/gcc/x86_64-w64-mingw32/4.8.1/../../../../x86_64-w64-mingw32/lib/../lib\libmsvcrt.a(dqows01130.o)
 .idata$4       0x0000000068a980c8        0x8 c:/mingw/bin/../lib/gcc/x86_64-w64-mingw32/4.8.1/../../../../x86_64-w64-mingw32/lib/../lib\libmsvcrt.a(dqows01137.o)
 .idata$4       0x0000000068a980d0        0x8 c:/mingw/bin/../lib/gcc/x86_64-w64-mingw32/4.8.1/../../../../x86_64-w64-mingw32/lib/../lib\libmsvcrt.a(dqowt.o)
 .idata$4       0x0000000068a980d8        0x0 c:/mingw/bin/../lib/gcc/x86_64-w64-mingw32/4.8.1/../../../../x86_64-w64-mingw32/lib/../lib\libntdll.a(dyubbh.o)
 .idata$4       0x0000000068a980d8        0x8 c:/mingw/bin/../lib/gcc/x86_64-w64-mingw32/4.8.1/../../../../x86_64-w64-mingw32/lib/../lib\libntdll.a(dyubbs01896.o)
 .idata$4       0x0000000068a980e0        0x8 c:/mingw/bin/../lib/gcc/x86_64-w64-mingw32/4.8.1/../../../../x86_64-w64-mingw32/lib/../lib\libntdll.a(dyubbs01946.o)
 .idata$4       0x0000000068a980e8        0x8 c:/mingw/bin/../lib/gcc/x86_64-w64-mingw32/4.8.1/../../../../x86_64-w64-mingw32/lib/../lib\libntdll.a(dyubbs01961.o)
 .idata$4       0x0000000068a980f0        0x8 c:/mingw/bin/../lib/gcc/x86_64-w64-mingw32/4.8.1/../../../../x86_64-w64-mingw32/lib/../lib\libntdll.a(dyubbs01981.o)
 .idata$4       0x0000000068a980f8        0x8 c:/mingw/bin/../lib/gcc/x86_64-w64-mingw32/4.8.1/../../../../x86_64-w64-mingw32/lib/../lib\libntdll.a(dyubbs02010.o)
 .idata$4       0x0000000068a98100        0x8 c:/mingw/bin/../lib/gcc/x86_64-w64-mingw32/4.8.1/../../../../x86_64-w64-mingw32/lib/../lib\libntdll.a(dyubbs02011.o)
 .idata$4       0x0000000068a98108        0x8 c:/mingw/bin/../lib/gcc/x86_64-w64-mingw32/4.8.1/../../../../x86_64-w64-mingw32/lib/../lib\libntdll.a(dyubbs02014.o)
 .idata$4       0x0000000068a98110        0x8 c:/mingw/bin/../lib/gcc/x86_64-w64-mingw32/4.8.1/../../../../x86_64-w64-mingw32/lib/../lib\libntdll.a(dyubbs02015.o)
 .idata$4       0x0000000068a98118        0x8 c:/mingw/bin/../lib/gcc/x86_64-w64-mingw32/4.8.1/../../../../x86_64-w64-mingw32/lib/../lib\libntdll.a(dyubbs02019.o)
 .idata$4       0x0000000068a98120        0x8 c:/mingw/bin/../lib/gcc/x86_64-w64-mingw32/4.8.1/../../../../x86_64-w64-mingw32/lib/../lib\libntdll.a(dyubbt.o)
                0x0000000068a98128                __IAT_start__ = .
 SORT(*)(.idata$5)
 .idata$5       0x0000000068a98128        0x0 c:/mingw/bin/../lib/gcc/x86_64-w64-mingw32/4.8.1/../../../../x86_64-w64-mingw32/lib/../lib\libkernel32.a(dspqh.o)
 .idata$5       0x0000000068a98128        0x8 c:/mingw/bin/../lib/gcc/x86_64-w64-mingw32/4.8.1/../../../../x86_64-w64-mingw32/lib/../lib\libkernel32.a(dspqs00103.o)
                0x0000000068a98128                __imp_CompareStringW
 .idata$5       0x0000000068a98130        0x8 c:/mingw/bin/../lib/gcc/x86_64-w64-mingw32/4.8.1/../../../../x86_64-w64-mingw32/lib/../lib\libkernel32.a(dspqs00603.o)
                0x0000000068a98130                __imp_GetProcessHeap
 .idata$5       0x0000000068a98138        0x8 c:/mingw/bin/../lib/gcc/x86_64-w64-mingw32/4.8.1/../../../../x86_64-w64-mingw32/lib/../lib\libkernel32.a(dspqs00734.o)
                0x0000000068a98138                __imp_HeapAlloc
 .idata$5       0x0000000068a98140        0x8 c:/mingw/bin/../lib/gcc/x86_64-w64-mingw32/4.8.1/../../../../x86_64-w64-mingw32/lib/../lib\libkernel32.a(dspqs00740.o)
                0x0000000068a98140                __imp_HeapFree
 .idata$5       0x0000000068a98148        0x8 c:/mingw/bin/../lib/gcc/x86_64-w64-mingw32/4.8.1/../../../../x86_64-w64-mingw32/lib/../lib\libkernel32.a(dspqs00744.o)
                0x0000000068a98148                __imp_HeapReAlloc
 .idata$5       0x0000000068a98150        0x8 c:/mingw/bin/../lib/gcc/x86_64-w64-mingw32/4.8.1/../../../../x86_64-w64-mingw32/lib/../lib\libkernel32.a(dspqs01294.o)
                0x0000000068a98150                __imp_WideCharToMultiByte
 .idata$5       0x0000000068a98158        0x8 c:/mingw/bin/../lib/gcc/x86_64-w64-mingw32/4.8.1/../../../../x86_64-w64-mingw32/lib/../lib\libkernel32.a(dspqs01355.o)
                0x0000000068a98158                __imp_lstrcpynW
 .idata$5       0x0000000068a98160        0x8 c:/mingw/bin/../lib/gcc/x86_64-w64-mingw32/4.8.1/../../../../x86_64-w64-mingw32/lib/../lib\libkernel32.a(dspqs01358.o)
                0x0000000068a98160                __imp_lstrlenW
 .idata$5       0x0000000068a98168        0x8 c:/mingw/bin/../lib/gcc/x86_64-w64-mingw32/4.8.1/../../../../x86_64-w64-mingw32/lib/../lib\libkernel32.a(dspqt.o)
 .idata$5       0x0000000068a98170        0x0 c:/mingw/bin/../lib/gcc/x86_64-w64-mingw32/4.8.1/../../../../x86_64-w64-mingw32/lib/../lib\libmsvcrt.a(dqowh.o)
 .idata$5       0x0000000068a98170        0x8 c:/mingw/bin/../lib/gcc/x86_64-w64-mingw32/4.8.1/../../../../x86_64-w64-mingw32/lib/../lib\libmsvcrt.a(dqows00063.o)
                0x0000000068a98170                __imp____lc_codepage_func
 .idata$5       0x0000000068a98178        0x8 c:/mingw/bin/../lib/gcc/x86_64-w64-mingw32/4.8.1/../../../../x86_64-w64-mingw32/lib/../lib\libmsvcrt.a(dqows00092.o)
                0x0000000068a98178                __imp___mb_cur_max
 .idata$5       0x0000000068a98180        0x8 c:/mingw/bin/../lib/gcc/x86_64-w64-mingw32/4.8.1/../../../../x86_64-w64-mingw32/lib/../lib\libmsvcrt.a(dqows00201.o)
                0x0000000068a98180                __imp__errno
 .idata$5       0x0000000068a98188        0x8 c:/mingw/bin/../lib/gcc/x86_64-w64-mingw32/4.8.1/../../../../x86_64-w64-mingw32/lib/../lib\libmsvcrt.a(dqows00508.o)
                0x0000000068a98188                __imp__mbslen
 .idata$5       0x0000000068a98190        0x8 c:/mingw/bin/../lib/gcc/x86_64-w64-mingw32/4.8.1/../../../../x86_64-w64-mingw32/lib/../lib\libmsvcrt.a(dqows01079.o)
                0x0000000068a98190                __imp_free
 .idata$5       0x0000000068a98198        0x8 c:/mingw/bin/../lib/gcc/x86_64-w64-mingw32/4.8.1/../../../../x86_64-w64-mingw32/lib/../lib\libmsvcrt.a(dqows01130.o)
                0x0000000068a98198                __imp_localeconv
 .idata$5       0x0000000068a981a0        0x8 c:/mingw/bin/../lib/gcc/x86_64-w64-mingw32/4.8.1/../../../../x86_64-w64-mingw32/lib/../lib\libmsvcrt.a(dqows01137.o)
                0x0000000068a981a0                __imp_malloc
 .idata$5       0x0000000068a981a8        0x8 c:/mingw/bin/../lib/gcc/x86_64-w64-mingw32/4.8.1/../../../../x86_64-w64-mingw32/lib/../lib\libmsvcrt.a(dqowt.o)
 .idata$5       0x0000000068a981b0        0x0 c:/mingw/bin/../lib/gcc/x86_64-w64-mingw32/4.8.1/../../../../x86_64-w64-mingw32/lib/../lib\libntdll.a(dyubbh.o)
 .idata$5       0x0000000068a981b0        0x8 c:/mingw/bin/../lib/gcc/x86_64-w64-mingw32/4.8.1/../../../../x86_64-w64-mingw32/lib/../lib\libntdll.a(dyubbs01896.o)
                0x0000000068a981b0                __imp__strnicmp
 .idata$5       0x0000000068a981b8        0x8 c:/mingw/bin/../lib/gcc/x86_64-w64-mingw32/4.8.1/../../../../x86_64-w64-mingw32/lib/../lib\libntdll.a(dyubbs01946.o)
                0x0000000068a981b8                __imp_isspace
 .idata$5       0x0000000068a981c0        0x8 c:/mingw/bin/../lib/gcc/x86_64-w64-mingw32/4.8.1/../../../../x86_64-w64-mingw32/lib/../lib\libntdll.a(dyubbs01961.o)
                0x0000000068a981c0                __imp_memcpy
 .idata$5       0x0000000068a981c8        0x8 c:/mingw/bin/../lib/gcc/x86_64-w64-mingw32/4.8.1/../../../../x86_64-w64-mingw32/lib/../lib\libntdll.a(dyubbs01981.o)
                0x0000000068a981c8                __imp_strlen
 .idata$5       0x0000000068a981d0        0x8 c:/mingw/bin/../lib/gcc/x86_64-w64-mingw32/4.8.1/../../../../x86_64-w64-mingw32/lib/../lib\libntdll.a(dyubbs02010.o)
                0x0000000068a981d0                __imp_wcschr
 .idata$5       0x0000000068a981d8        0x8 c:/mingw/bin/../lib/gcc/x86_64-w64-mingw32/4.8.1/../../../../x86_64-w64-mingw32/lib/../lib\libntdll.a(dyubbs02011.o)
                0x0000000068a981d8                __imp_wcscmp
 .idata$5       0x0000000068a981e0        0x8 c:/mingw/bin/../lib/gcc/x86_64-w64-mingw32/4.8.1/../../../../x86_64-w64-mingw32/lib/../lib\libntdll.a(dyubbs02014.o)
                0x0000000068a981e0                __imp_wcscspn
 .idata$5       0x0000000068a981e8        0x8 c:/mingw/bin/../lib/gcc/x86_64-w64-mingw32/4.8.1/../../../../x86_64-w64-mingw32/lib/../lib\libntdll.a(dyubbs02015.o)
                0x0000000068a981e8                __imp_wcslen
 .idata$5       0x0000000068a981f0        0x8 c:/mingw/bin/../lib/gcc/x86_64-w64-mingw32/4.8.1/../../../../x86_64-w64-mingw32/lib/../lib\libntdll.a(dyubbs02019.o)
                0x0000000068a981f0                __imp_wcsncpy
 .idata$5       0x0000000068a981f8        0x8 c:/mingw/bin/../lib/gcc/x86_64-w64-mingw32/4.8.1/../../../../x86_64-w64-mingw32/lib/../lib\libntdll.a(dyubbt.o)
                0x0000000068a98200                __IAT_end__ = .
 SORT(*)(.idata$6)
 .idata$6       0x0000000068a98200       0x12 c:/mingw/bin/../lib/gcc/x86_64-w64-mingw32/4.8.1/../../../../x86_64-w64-mingw32/lib/../lib\libkernel32.a(dspqs00103.o)
 .idata$6       0x0000000068a98212       0x12 c:/mingw/bin/../lib/gcc/x86_64-w64-mingw32/4.8.1/../../../../x86_64-w64-mingw32/lib/../lib\libkernel32.a(dspqs00603.o)
 .idata$6       0x0000000068a98224        0xc c:/mingw/bin/../lib/gcc/x86_64-w64-mingw32/4.8.1/../../../../x86_64-w64-mingw32/lib/../lib\libkernel32.a(dspqs00734.o)
 .idata$6       0x0000000068a98230        0xc c:/mingw/bin/../lib/gcc/x86_64-w64-mingw32/4.8.1/../../../../x86_64-w64-mingw32/lib/../lib\libkernel32.a(dspqs00740.o)
 .idata$6       0x0000000068a9823c        0xe c:/mingw/bin/../lib/gcc/x86_64-w64-mingw32/4.8.1/../../../../x86_64-w64-mingw32/lib/../lib\libkernel32.a(dspqs00744.o)
 .idata$6       0x0000000068a9824a       0x16 c:/mingw/bin/../lib/gcc/x86_64-w64-mingw32/4.8.1/../../../../x86_64-w64-mingw32/lib/../lib\libkernel32.a(dspqs01294.o)
 .idata$6       0x0000000068a98260        0xc c:/mingw/bin/../lib/gcc/x86_64-w64-mingw32/4.8.1/../../../../x86_64-w64-mingw32/lib/../lib\libkernel32.a(dspqs01355.o)
 .idata$6       0x0000000068a9826c        0xc c:/mingw/bin/../lib/gcc/x86_64-w64-mingw32/4.8.1/../../../../x86_64-w64-mingw32/lib/../lib\libkernel32.a(dspqs01358.o)
 .idata$6       0x0000000068a98278       0x16 c:/mingw/bin/../lib/gcc/x86_64-w64-mingw32/4.8.1/../../../../x86_64-w64-mingw32/lib/../lib\libmsvcrt.a(dqows00063.o)
 .idata$6       0x0000000068a9828e       0x10 c:/mingw/bin/../lib/gcc/x86_64-w64-mingw32/4.8.1/../../../../x86_64-w64-mingw32/lib/../lib\libmsvcrt.a(dqows00092.o)
 .idata$6       0x0000000068a9829e        0xa c:/mingw/bin/../lib/gcc/x86_64-w64-mingw32/4.8.1/../../../../x86_64-w64-mingw32/lib/../lib\libmsvcrt.a(dqows00201.o)
 .idata$6       0x0000000068a982a8        0xa c:/mingw/bin/../lib/gcc/x86_64-w64-mingw32/4.8.1/../../../../x86_64-w64-mingw32/lib/../lib\libmsvcrt.a(dqows00508.o)
 .idata$6       0x0000000068a982b2        0x8 c:/mingw/bin/../lib/gcc/x86_64-w64-mingw32/4.8.1/../../../../x86_64-w64-mingw32/lib/../lib\libmsvcrt.a(dqows01079.o)
 .idata$6       0x0000000068a982ba        0xe c:/mingw/bin/../lib/gcc/x86_64-w64-mingw32/4.8.1/../../../../x86_64-w64-mingw32/lib/../lib\libmsvcrt.a(dqows01130.o)
 .idata$6       0x0000000068a982c8        0xa c:/mingw/bin/../lib/gcc/x86_64-w64-mingw32/4.8.1/../../../../x86_64-w64-mingw32/lib/../lib\libmsvcrt.a(dqows01137.o)
 .idata$6       0x0000000068a982d2        0xc c:/mingw/bin/../lib/gcc/x86_64-w64-mingw32/4.8.1/../../../../x86_64-w64-mingw32/lib/../lib\libntdll.a(dyubbs01896.o)
 .idata$6       0x0000000068a982de        0xa c:/mingw/bin/../lib/gcc/x86_64-w64-mingw32/4.8.1/../../../../x86_64-w64-mingw32/lib/../lib\libntdll.a(dyubbs01946.o)
 .idata$6       0x0000000068a982e8        0xa c:/mingw/bin/../lib/gcc/x86_64-w64-mingw32/4.8.1/../../../../x86_64-w64-mingw32/lib/../lib\libntdll.a(dyubbs01961.o)
 .idata$6       0x0000000068a982f2        0xa c:/mingw/bin/../lib/gcc/x86_64-w64-mingw32/4.8.1/../../../../x86_64-w64-mingw32/lib/../lib\libntdll.a(dyubbs01981.o)
 .idata$6       0x0000000068a982fc        0xa c:/mingw/bin/../lib/gcc/x86_64-w64-mingw32/4.8.1/../../../../x86_64-w64-mingw32/lib/../lib\libntdll.a(dyubbs02010.o)
 .idata$6       0x0000000068a98306        0xa c:/mingw/bin/../lib/gcc/x86_64-w64-mingw32/4.8.1/../../../../x86_64-w64-mingw32/lib/../lib\libntdll.a(dyubbs02011.o)
 .idata$6       0x0000000068a98310        0xa c:/mingw/bin/../lib/gcc/x86_64-w64-mingw32/4.8.1/../../../../x86_64-w64-mingw32/lib/../lib\libntdll.a(dyubbs02014.o)
 .idata$6       0x0000000068a9831a        0xa c:/mingw/bin/../lib/gcc/x86_64-w64-mingw32/4.8.1/../../../../x86_64-w64-mingw32/lib/../lib\libntdll.a(dyubbs02015.o)
 .idata$6       0x0000000068a98324        0xa c:/mingw/bin/../lib/gcc/x86_64-w64-mingw32/4.8.1/../../../../x86_64-w64-mingw32/lib/../lib\libntdll.a(dyubbs02019.o)
 SORT(*)(.idata$7)
 *fill*         0x0000000068a9832e        0x2 
 .idata$7       0x0000000068a98330        0x4 c:/mingw/bin/../lib/gcc/x86_64-w64-mingw32/4.8.1/../../../../x86_64-w64-mingw32/lib/../lib\libkernel32.a(dspqs00103.o)
 .idata$7       0x0000000068a98334        0x4 c:/mingw/bin/../lib/gcc/x86_64-w64-mingw32/4.8.1/../../../../x86_64-w64-mingw32/lib/../lib\libkernel32.a(dspqs00603.o)
 .idata$7       0x0000000068a98338        0x4 c:/mingw/bin/../lib/gcc/x86_64-w64-mingw32/4.8.1/../../../../x86_64-w64-mingw32/lib/../lib\libkernel32.a(dspqs00734.o)
 .idata$7       0x0000000068a9833c        0x4 c:/mingw/bin/../lib/gcc/x86_64-w64-mingw32/4.8.1/../../../../x86_64-w64-mingw32/lib/../lib\libkernel32.a(dspqs00740.o)
 .idata$7       0x0000000068a98340        0x4 c:/mingw/bin/../lib/gcc/x86_64-w64-mingw32/4.8.1/../../../../x86_64-w64-mingw32/lib/../lib\libkernel32.a(dspqs00744.o)
 .idata$7       0x0000000068a98344        0x4 c:/mingw/bin/../lib/gcc/x86_64-w64-mingw32/4.8.1/../../../../x86_64-w64-mingw32/lib/../lib\libkernel32.a(dspqs01294.o)
 .idata$7       0x0000000068a98348        0x4 c:/mingw/bin/../lib/gcc/x86_64-w64-mingw32/4.8.1/../../../../x86_64-w64-mingw32/lib/../lib\libkernel32.a(dspqs01355.o)
 .idata$7       0x0000000068a9834c        0x4 c:/mingw/bin/../lib/gcc/x86_64-w64-mingw32/4.8.1/../../../../x86_64-w64-mingw32/lib/../lib\libkernel32.a(dspqs01358.o)
 .idata$7       0x0000000068a98350       0x10 c:/mingw/bin/../lib/gcc/x86_64-w64-mingw32/4.8.1/../../../../x86_64-w64-mingw32/lib/../lib\libkernel32.a(dspqt.o)
                0x0000000068a98350                __lib64_libkernel32_a_iname
 .idata$7       0x0000000068a98360        0x4 c:/mingw/bin/../lib/gcc/x86_64-w64-mingw32/4.8.1/../../../../x86_64-w64-mingw32/lib/../lib\libmsvcrt.a(dqows00063.o)
 .idata$7       0x0000000068a98364        0x4 c:/mingw/bin/../lib/gcc/x86_64-w64-mingw32/4.8.1/../../../../x86_64-w64-mingw32/lib/../lib\libmsvcrt.a(dqows00092.o)
 .idata$7       0x0000000068a98368        0x4 c:/mingw/bin/../lib/gcc/x86_64-w64-mingw32/4.8.1/../../../../x86_64-w64-mingw32/lib/../lib\libmsvcrt.a(dqows00201.o)
 .idata$7       0x0000000068a9836c        0x4 c:/mingw/bin/../lib/gcc/x86_64-w64-mingw32/4.8.1/../../../../x86_64-w64-mingw32/lib/../lib\libmsvcrt.a(dqows00508.o)
 .idata$7       0x0000000068a98370        0x4 c:/mingw/bin/../lib/gcc/x86_64-w64-mingw32/4.8.1/../../../../x86_64-w64-mingw32/lib/../lib\libmsvcrt.a(dqows01079.o)
 .idata$7       0x0000000068a98374        0x4 c:/mingw/bin/../lib/gcc/x86_64-w64-mingw32/4.8.1/../../../../x86_64-w64-mingw32/lib/../lib\libmsvcrt.a(dqows01130.o)
 .idata$7       0x0000000068a98378        0x4 c:/mingw/bin/../lib/gcc/x86_64-w64-mingw32/4.8.1/../../../../x86_64-w64-mingw32/lib/../lib\libmsvcrt.a(dqows01137.o)
 .idata$7       0x0000000068a9837c        0xc c:/mingw/bin/../lib/gcc/x86_64-w64-mingw32/4.8.1/../../../../x86_64-w64-mingw32/lib/../lib\libmsvcrt.a(dqowt.o)
                0x0000000068a9837c                __lib64_libmsvcrt_a_iname
 .idata$7       0x0000000068a98388        0x4 c:/mingw/bin/../lib/gcc/x86_64-w64-mingw32/4.8.1/../../../../x86_64-w64-mingw32/lib/../lib\libntdll.a(dyubbs01896.o)
 .idata$7       0x0000000068a9838c        0x4 c:/mingw/bin/../lib/gcc/x86_64-w64-mingw32/4.8.1/../../../../x86_64-w64-mingw32/lib/../lib\libntdll.a(dyubbs01946.o)
 .idata$7       0x0000000068a98390        0x4 c:/mingw/bin/../lib/gcc/x86_64-w64-mingw32/4.8.1/../../../../x86_64-w64-mingw32/lib/../lib\libntdll.a(dyubbs01961.o)
 .idata$7       0x0000000068a98394        0x4 c:/mingw/bin/../lib/gcc/x86_64-w64-mingw32/4.8.1/../../../../x86_64-w64-mingw32/lib/../lib\libntdll.a(dyubbs01981.o)
 .idata$7       0x0000000068a98398        0x4 c:/mingw/bin/../lib/gcc/x86_64-w64-mingw32/4.8.1/../../../../x86_64-w64-mingw32/lib/../lib\libntdll.a(dyubbs02010.o)
 .idata$7       0x0000000068a9839c        0x4 c:/mingw/bin/../lib/gcc/x86_64-w64-mingw32/4.8.1/../../../../x86_64-w64-mingw32/lib/../lib\libntdll.a(dyubbs02011.o)
 .idata$7       0x0000000068a983a0        0x4 c:/mingw/bin/../lib/gcc/x86_64-w64-mingw32/4.8.1/../../../../x86_64-w64-mingw32/lib/../lib\libntdll.a(dyubbs02014.o)
 .idata$7       0x0000000068a983a4        0x4 c:/mingw/bin/../lib/gcc/x86_64-w64-mingw32/4.8.1/../../../../x86_64-w64-mingw32/lib/../lib\libntdll.a(dyubbs02015.o)
 .idata$7       0x0000000068a983a8        0x4 c:/mingw/bin/../lib/gcc/x86_64-w64-mingw32/4.8.1/../../../../x86_64-w64-mingw32/lib/../lib\libntdll.a(dyubbs02019.o)
 .idata$7       0x0000000068a983ac        0xc c:/mingw/bin/../lib/gcc/x86_64-w64-mingw32/4.8.1/../../../../x86_64-w64-mingw32/lib/../lib\libntdll.a(dyubbt.o)
                0x0000000068a983ac                __lib64_libntdll_a_iname

.CRT            0x0000000068a99000        0x0
                0x0000000068a99000                ___crt_xc_start__ = .
 *(SORT(.CRT$XC*))
                0x0000000068a99000                ___crt_xc_end__ = .
                0x0000000068a99000                ___crt_xi_start__ = .
 *(SORT(.CRT$XI*))
                0x0000000068a99000                ___crt_xi_end__ = .
                0x0000000068a99000                ___crt_xl_start__ = .
 *(SORT(.CRT$XL*))
                0x0000000068a99000                ___crt_xp_start__ = .
 *(SORT(.CRT$XP*))
                0x0000000068a99000                ___crt_xp_end__ = .
                0x0000000068a99000                ___crt_xt_start__ = .
 *(SORT(.CRT$XT*))
                0x0000000068a99000                ___crt_xt_end__ = .

.tls            0x0000000068a99000        0x0
                0x0000000068a99000                ___tls_start__ = .
 *(.tls)
 *(.tls$)
 *(SORT(.tls$*))
                0x0000000068a99000                ___tls_end__ = .

.endjunk        0x0000000068a99000        0x0
                0x0000000068a99000                PROVIDE (end, .)
                0x0000000068a99000                PROVIDE (_end, .)
                0x0000000068a99000                __end__ = .

.rsrc           0x0000000068a99000      0x400
 *(.rsrc)
 .rsrc          0x0000000068a99000      0x2f4 src\main.res
 *(SORT(.rsrc$*))

.reloc          0x0000000068a9a000      0x200
 *(.reloc)
 .reloc         0x0000000068a9a000      0x130 dll stuff

.stab
 *(.stab)

.stabstr
 *(.stabstr)

.debug_aranges
 *(.debug_aranges)

.debug_pubnames
 *(.debug_pubnames)

.debug_pubtypes
 *(.debug_pubtypes)

.debug_info
 *(.debug_info .gnu.linkonce.wi.*)

.debug_abbrev
 *(.debug_abbrev)

.debug_line
 *(.debug_line)

.debug_frame
 *(.debug_frame*)

.debug_str
 *(.debug_str)

.debug_loc
 *(.debug_loc)

.debug_macinfo
 *(.debug_macinfo)

.debug_weaknames
 *(.debug_weaknames)

.debug_funcnames
 *(.debug_funcnames)

.debug_typenames
 *(.debug_typenames)

.debug_varnames
 *(.debug_varnames)

.debug_macro
 *(.debug_macro)

.debug_ranges
 *(.debug_ranges)

.debug_types
 *(.debug_types .gnu.linkonce.wt.*)
OUTPUT(sortstr-x64.dll pei-x86-64)
LOAD dll stuff
